
kernel.elf:     formato del fichero elf32-littleriscv


Desensamblado de la sección .text:

80000000 <_start>:
80000000:	0000f197          	auipc	gp,0xf
80000004:	da818193          	addi	gp,gp,-600 # 8000eda8 <__global_pointer$>
80000008:	8000e137          	lui	sp,0x8000e
8000000c:	84010113          	addi	sp,sp,-1984 # 8000d840 <_exit>
80000010:	800002b7          	lui	t0,0x80000
80000014:	06028293          	addi	t0,t0,96 # 80000060 <isr_vector>
80000018:	30529073          	csrw	mtvec,t0
8000001c:	0000e517          	auipc	a0,0xe
80000020:	9a850513          	addi	a0,a0,-1624 # 8000d9c4 <_edata>
80000024:	0000e617          	auipc	a2,0xe
80000028:	0dc60613          	addi	a2,a2,220 # 8000e100 <_end>
8000002c:	40a60633          	sub	a2,a2,a0
80000030:	00000593          	li	a1,0
80000034:	00004097          	auipc	ra,0x4
80000038:	6ac080e7          	jalr	1708(ra) # 800046e0 <memset>
8000003c:	4450a0ef          	jal	8000ac80 <start>
80000040:	00012503          	lw	a0,0(sp)
80000044:	00410593          	addi	a1,sp,4
80000048:	00000613          	li	a2,0
8000004c:	0000b097          	auipc	ra,0xb
80000050:	be8080e7          	jalr	-1048(ra) # 8000ac34 <main>
80000054:	00007317          	auipc	t1,0x7
80000058:	26030067          	jr	608(t1) # 800072b4 <exit>

8000005c <_fini>:
8000005c:	00008067          	ret

80000060 <isr_vector>:
80000060:	f7410113          	addi	sp,sp,-140
80000064:	09f12423          	sw	t6,136(sp)
80000068:	09e12223          	sw	t5,132(sp)
8000006c:	09d12023          	sw	t4,128(sp)
80000070:	07c12e23          	sw	t3,124(sp)
80000074:	07b12c23          	sw	s11,120(sp)
80000078:	07a12a23          	sw	s10,116(sp)
8000007c:	07912823          	sw	s9,112(sp)
80000080:	07812623          	sw	s8,108(sp)
80000084:	07712423          	sw	s7,104(sp)
80000088:	07612223          	sw	s6,100(sp)
8000008c:	07512023          	sw	s5,96(sp)
80000090:	05412e23          	sw	s4,92(sp)
80000094:	05312c23          	sw	s3,88(sp)
80000098:	05212a23          	sw	s2,84(sp)
8000009c:	05112823          	sw	a7,80(sp)
800000a0:	05012623          	sw	a6,76(sp)
800000a4:	04f12423          	sw	a5,72(sp)
800000a8:	04e12223          	sw	a4,68(sp)
800000ac:	04d12023          	sw	a3,64(sp)
800000b0:	02c12e23          	sw	a2,60(sp)
800000b4:	02b12c23          	sw	a1,56(sp)
800000b8:	02a12a23          	sw	a0,52(sp)
800000bc:	02912823          	sw	s1,48(sp)
800000c0:	02812623          	sw	s0,44(sp)
800000c4:	02712423          	sw	t2,40(sp)
800000c8:	02612223          	sw	t1,36(sp)
800000cc:	02512023          	sw	t0,32(sp)
800000d0:	00412e23          	sw	tp,28(sp)
800000d4:	00312c23          	sw	gp,24(sp)
800000d8:	00212a23          	sw	sp,20(sp)
800000dc:	00112823          	sw	ra,16(sp)
800000e0:	34202473          	csrr	s0,mcause
800000e4:	00812423          	sw	s0,8(sp)
800000e8:	30002473          	csrr	s0,mstatus
800000ec:	00812223          	sw	s0,4(sp)
800000f0:	34102473          	csrr	s0,mepc
800000f4:	00812023          	sw	s0,0(sp)
800000f8:	00010513          	mv	a0,sp
800000fc:	2b4000ef          	jal	800003b0 <exception_handler>

80000100 <exception_return>:
80000100:	00050113          	mv	sp,a0
80000104:	00012403          	lw	s0,0(sp)
80000108:	34141073          	csrw	mepc,s0
8000010c:	00412403          	lw	s0,4(sp)
80000110:	30041073          	csrw	mstatus,s0
80000114:	01012083          	lw	ra,16(sp)
80000118:	01812183          	lw	gp,24(sp)
8000011c:	01c12203          	lw	tp,28(sp)
80000120:	02012283          	lw	t0,32(sp)
80000124:	02412303          	lw	t1,36(sp)
80000128:	02812383          	lw	t2,40(sp)
8000012c:	02c12403          	lw	s0,44(sp)
80000130:	03012483          	lw	s1,48(sp)
80000134:	03412503          	lw	a0,52(sp)
80000138:	03812583          	lw	a1,56(sp)
8000013c:	03c12603          	lw	a2,60(sp)
80000140:	04012683          	lw	a3,64(sp)
80000144:	04412703          	lw	a4,68(sp)
80000148:	04812783          	lw	a5,72(sp)
8000014c:	04c12803          	lw	a6,76(sp)
80000150:	05012883          	lw	a7,80(sp)
80000154:	05412903          	lw	s2,84(sp)
80000158:	05812983          	lw	s3,88(sp)
8000015c:	05c12a03          	lw	s4,92(sp)
80000160:	06012a83          	lw	s5,96(sp)
80000164:	06412b03          	lw	s6,100(sp)
80000168:	06812b83          	lw	s7,104(sp)
8000016c:	06c12c03          	lw	s8,108(sp)
80000170:	07012c83          	lw	s9,112(sp)
80000174:	07412d03          	lw	s10,116(sp)
80000178:	07812d83          	lw	s11,120(sp)
8000017c:	07c12e03          	lw	t3,124(sp)
80000180:	08012e83          	lw	t4,128(sp)
80000184:	08412f03          	lw	t5,132(sp)
80000188:	08812f83          	lw	t6,136(sp)
8000018c:	08c10113          	addi	sp,sp,140
80000190:	30200073          	mret

80000194 <exception_syscall>:
80000194:	00000073          	ecall
80000198:	00008067          	ret

8000019c <ctxsw>:
8000019c:	fa410113          	addi	sp,sp,-92
800001a0:	05112c23          	sw	a7,88(sp)
800001a4:	05012a23          	sw	a6,84(sp)
800001a8:	04f12823          	sw	a5,80(sp)
800001ac:	04e12623          	sw	a4,76(sp)
800001b0:	04d12423          	sw	a3,72(sp)
800001b4:	04c12223          	sw	a2,68(sp)
800001b8:	04b12023          	sw	a1,64(sp)
800001bc:	02a12e23          	sw	a0,60(sp)
800001c0:	03b12c23          	sw	s11,56(sp)
800001c4:	03a12a23          	sw	s10,52(sp)
800001c8:	03912823          	sw	s9,48(sp)
800001cc:	03812623          	sw	s8,44(sp)
800001d0:	03712423          	sw	s7,40(sp)
800001d4:	03612223          	sw	s6,36(sp)
800001d8:	03512023          	sw	s5,32(sp)
800001dc:	01412e23          	sw	s4,28(sp)
800001e0:	01312c23          	sw	s3,24(sp)
800001e4:	01212a23          	sw	s2,20(sp)
800001e8:	00912823          	sw	s1,16(sp)
800001ec:	00812623          	sw	s0,12(sp)
800001f0:	300023f3          	csrr	t2,mstatus
800001f4:	00712423          	sw	t2,8(sp)
800001f8:	00112223          	sw	ra,4(sp)
800001fc:	00112023          	sw	ra,0(sp)
80000200:	00252023          	sw	sp,0(a0)
80000204:	0005a103          	lw	sp,0(a1)
80000208:	00012283          	lw	t0,0(sp)
8000020c:	00412083          	lw	ra,4(sp)
80000210:	00812383          	lw	t2,8(sp)
80000214:	00c12403          	lw	s0,12(sp)
80000218:	01012483          	lw	s1,16(sp)
8000021c:	01412903          	lw	s2,20(sp)
80000220:	01812983          	lw	s3,24(sp)
80000224:	01c12a03          	lw	s4,28(sp)
80000228:	02012a83          	lw	s5,32(sp)
8000022c:	02412b03          	lw	s6,36(sp)
80000230:	02812b83          	lw	s7,40(sp)
80000234:	02c12c03          	lw	s8,44(sp)
80000238:	03012c83          	lw	s9,48(sp)
8000023c:	03412d03          	lw	s10,52(sp)
80000240:	03812d83          	lw	s11,56(sp)
80000244:	03c12503          	lw	a0,60(sp)
80000248:	04012583          	lw	a1,64(sp)
8000024c:	04412603          	lw	a2,68(sp)
80000250:	04812683          	lw	a3,72(sp)
80000254:	04c12703          	lw	a4,76(sp)
80000258:	05012783          	lw	a5,80(sp)
8000025c:	05412803          	lw	a6,84(sp)
80000260:	05812883          	lw	a7,88(sp)
80000264:	05c10113          	addi	sp,sp,92
80000268:	0083fe13          	andi	t3,t2,8
8000026c:	000e0a63          	beqz	t3,80000280 <end_ctxsw>
80000270:	ff73f393          	andi	t2,t2,-9
80000274:	300393f3          	csrrw	t2,mstatus,t2
80000278:	34129373          	csrrw	t1,mepc,t0
8000027c:	30200073          	mret

80000280 <end_ctxsw>:
80000280:	00028367          	jalr	t1,t0

80000284 <enable>:
80000284:	30046573          	csrrsi	a0,mstatus,8
80000288:	00008067          	ret

8000028c <disable>:
8000028c:	30047573          	csrrci	a0,mstatus,8
80000290:	00008067          	ret

80000294 <restore>:
80000294:	30051073          	csrw	mstatus,a0
80000298:	00008067          	ret

8000029c <enable_interrupt_status>:
8000029c:	00800293          	li	t0,8
800002a0:	3002a073          	csrs	mstatus,t0
800002a4:	00008067          	ret

800002a8 <enable_interrupt>:
800002a8:	00100293          	li	t0,1
800002ac:	00a292b3          	sll	t0,t0,a0
800002b0:	3042a073          	csrs	mie,t0
800002b4:	00008067          	ret

800002b8 <disable_interrupt_status>:
800002b8:	00800293          	li	t0,8
800002bc:	3002b073          	csrc	mstatus,t0
800002c0:	00008067          	ret

800002c4 <disable_interrupt>:
800002c4:	00100293          	li	t0,1
800002c8:	00a292b3          	sll	t0,t0,a0
800002cc:	3042b073          	csrc	mie,t0
800002d0:	00008067          	ret

800002d4 <clear_interrupts>:
800002d4:	00000293          	li	t0,0
800002d8:	34429073          	csrw	mip,t0
800002dc:	00008067          	ret

800002e0 <soft_trap>:
800002e0:	00800293          	li	t0,8
800002e4:	3442a073          	csrs	mip,t0
800002e8:	00008067          	ret

800002ec <csr_read_dynamic>:
800002ec:	333028f3          	csrr	a7,mhpmevent19
800002f0:	00000013          	nop
800002f4:	00000013          	nop
800002f8:	00088513          	mv	a0,a7
800002fc:	00008067          	ret

80000300 <exception_set_irq_handler>:
80000300:	8005f7b7          	lui	a5,0x8005f
80000304:	00a7a023          	sw	a0,0(a5) # 8005f000 <_irq_handler>
80000308:	00008067          	ret

8000030c <exception_set_syscall_handler>:
8000030c:	8000e7b7          	lui	a5,0x8000e
80000310:	a0078793          	addi	a5,a5,-1536 # 8000da00 <_exception_table>
80000314:	02a7a023          	sw	a0,32(a5)
80000318:	02a7a223          	sw	a0,36(a5)
8000031c:	02a7a623          	sw	a0,44(a5)
80000320:	00008067          	ret

80000324 <exception_set_handler>:
80000324:	8000e7b7          	lui	a5,0x8000e
80000328:	00251513          	slli	a0,a0,0x2
8000032c:	a0078793          	addi	a5,a5,-1536 # 8000da00 <_exception_table>
80000330:	00a787b3          	add	a5,a5,a0
80000334:	00b7a023          	sw	a1,0(a5)
80000338:	00008067          	ret

8000033c <exception_dump_ctx>:
8000033c:	fe010113          	addi	sp,sp,-32
80000340:	00452683          	lw	a3,4(a0)
80000344:	00852603          	lw	a2,8(a0)
80000348:	00052583          	lw	a1,0(a0)
8000034c:	00812c23          	sw	s0,24(sp)
80000350:	00050413          	mv	s0,a0
80000354:	8000b537          	lui	a0,0x8000b
80000358:	d5c50513          	addi	a0,a0,-676 # 8000ad5c <start+0xdc>
8000035c:	00912a23          	sw	s1,20(sp)
80000360:	01212823          	sw	s2,16(sp)
80000364:	01312623          	sw	s3,12(sp)
80000368:	00112e23          	sw	ra,28(sp)
8000036c:	00c40413          	addi	s0,s0,12
80000370:	0810a0ef          	jal	8000abf0 <kprintf>
80000374:	00000493          	li	s1,0
80000378:	8000b9b7          	lui	s3,0x8000b
8000037c:	02000913          	li	s2,32
80000380:	00042603          	lw	a2,0(s0)
80000384:	00048593          	mv	a1,s1
80000388:	d8898513          	addi	a0,s3,-632 # 8000ad88 <start+0x108>
8000038c:	00148493          	addi	s1,s1,1
80000390:	0610a0ef          	jal	8000abf0 <kprintf>
80000394:	00440413          	addi	s0,s0,4
80000398:	ff2494e3          	bne	s1,s2,80000380 <exception_dump_ctx+0x44>
8000039c:	000057b7          	lui	a5,0x5
800003a0:	55578793          	addi	a5,a5,1365 # 5555 <_start-0x7fffaaab>
800003a4:	111002b7          	lui	t0,0x11100
800003a8:	00f2a023          	sw	a5,0(t0) # 11100000 <_start-0x6ef00000>
800003ac:	0000006f          	j	800003ac <exception_dump_ctx+0x70>

800003b0 <exception_handler>:
800003b0:	00852603          	lw	a2,8(a0)
800003b4:	ff010113          	addi	sp,sp,-16
800003b8:	00812423          	sw	s0,8(sp)
800003bc:	00112623          	sw	ra,12(sp)
800003c0:	00050413          	mv	s0,a0
800003c4:	02065063          	bgez	a2,800003e4 <exception_handler+0x34>
800003c8:	8005f7b7          	lui	a5,0x8005f
800003cc:	0007a783          	lw	a5,0(a5) # 8005f000 <_irq_handler>
800003d0:	10078663          	beqz	a5,800004dc <exception_handler+0x12c>
800003d4:	00812403          	lw	s0,8(sp)
800003d8:	00c12083          	lw	ra,12(sp)
800003dc:	01010113          	addi	sp,sp,16
800003e0:	00078067          	jr	a5
800003e4:	00900793          	li	a5,9
800003e8:	02c7e663          	bltu	a5,a2,80000414 <exception_handler+0x64>
800003ec:	00700793          	li	a5,7
800003f0:	02c7e663          	bltu	a5,a2,8000041c <exception_handler+0x6c>
800003f4:	8000e7b7          	lui	a5,0x8000e
800003f8:	00261713          	slli	a4,a2,0x2
800003fc:	a0078793          	addi	a5,a5,-1536 # 8000da00 <_exception_table>
80000400:	00e787b3          	add	a5,a5,a4
80000404:	0007a783          	lw	a5,0(a5)
80000408:	04078063          	beqz	a5,80000448 <exception_handler+0x98>
8000040c:	00040513          	mv	a0,s0
80000410:	fc5ff06f          	j	800003d4 <exception_handler+0x24>
80000414:	00b00793          	li	a5,11
80000418:	00f61a63          	bne	a2,a5,8000042c <exception_handler+0x7c>
8000041c:	00042783          	lw	a5,0(s0)
80000420:	00478793          	addi	a5,a5,4
80000424:	00f42023          	sw	a5,0(s0)
80000428:	fcdff06f          	j	800003f4 <exception_handler+0x44>
8000042c:	00f00793          	li	a5,15
80000430:	fcc7f2e3          	bgeu	a5,a2,800003f4 <exception_handler+0x44>
80000434:	00042583          	lw	a1,0(s0)
80000438:	8000b537          	lui	a0,0x8000b
8000043c:	f0050513          	addi	a0,a0,-256 # 8000af00 <start+0x280>
80000440:	7b00a0ef          	jal	8000abf0 <kprintf>
80000444:	0480006f          	j	8000048c <exception_handler+0xdc>
80000448:	ffd67793          	andi	a5,a2,-3
8000044c:	ffc78793          	addi	a5,a5,-4
80000450:	00100713          	li	a4,1
80000454:	fef760e3          	bltu	a4,a5,80000434 <exception_handler+0x84>
80000458:	343025f3          	csrr	a1,mtval
8000045c:	00842783          	lw	a5,8(s0)
80000460:	00700713          	li	a4,7
80000464:	02f76463          	bltu	a4,a5,8000048c <exception_handler+0xdc>
80000468:	8000c737          	lui	a4,0x8000c
8000046c:	00279793          	slli	a5,a5,0x2
80000470:	c0070713          	addi	a4,a4,-1024 # 8000bc00 <start+0xf80>
80000474:	00e787b3          	add	a5,a5,a4
80000478:	0007a783          	lw	a5,0(a5)
8000047c:	00078067          	jr	a5
80000480:	8000b537          	lui	a0,0x8000b
80000484:	da850513          	addi	a0,a0,-600 # 8000ada8 <start+0x128>
80000488:	7680a0ef          	jal	8000abf0 <kprintf>
8000048c:	00040513          	mv	a0,s0
80000490:	eadff0ef          	jal	8000033c <exception_dump_ctx>
80000494:	8000b537          	lui	a0,0x8000b
80000498:	dd850513          	addi	a0,a0,-552 # 8000add8 <start+0x158>
8000049c:	fedff06f          	j	80000488 <exception_handler+0xd8>
800004a0:	8000b537          	lui	a0,0x8000b
800004a4:	e0850513          	addi	a0,a0,-504 # 8000ae08 <start+0x188>
800004a8:	fe1ff06f          	j	80000488 <exception_handler+0xd8>
800004ac:	8000b537          	lui	a0,0x8000b
800004b0:	e3c50513          	addi	a0,a0,-452 # 8000ae3c <start+0x1bc>
800004b4:	fd5ff06f          	j	80000488 <exception_handler+0xd8>
800004b8:	8000b537          	lui	a0,0x8000b
800004bc:	e7050513          	addi	a0,a0,-400 # 8000ae70 <start+0x1f0>
800004c0:	fc9ff06f          	j	80000488 <exception_handler+0xd8>
800004c4:	8000b537          	lui	a0,0x8000b
800004c8:	e9c50513          	addi	a0,a0,-356 # 8000ae9c <start+0x21c>
800004cc:	fbdff06f          	j	80000488 <exception_handler+0xd8>
800004d0:	8000b537          	lui	a0,0x8000b
800004d4:	ed050513          	addi	a0,a0,-304 # 8000aed0 <start+0x250>
800004d8:	fb1ff06f          	j	80000488 <exception_handler+0xd8>
800004dc:	8000b537          	lui	a0,0x8000b
800004e0:	d9850513          	addi	a0,a0,-616 # 8000ad98 <start+0x118>
800004e4:	70c0a0ef          	jal	8000abf0 <kprintf>
800004e8:	00042783          	lw	a5,0(s0)
800004ec:	00c12083          	lw	ra,12(sp)
800004f0:	00040513          	mv	a0,s0
800004f4:	00478793          	addi	a5,a5,4
800004f8:	00f42023          	sw	a5,0(s0)
800004fc:	00812403          	lw	s0,8(sp)
80000500:	01010113          	addi	sp,sp,16
80000504:	00008067          	ret

80000508 <irq_handler>:
80000508:	00852783          	lw	a5,8(a0)
8000050c:	ff010113          	addi	sp,sp,-16
80000510:	00812423          	sw	s0,8(sp)
80000514:	01479793          	slli	a5,a5,0x14
80000518:	00112623          	sw	ra,12(sp)
8000051c:	0147d793          	srli	a5,a5,0x14
80000520:	00700713          	li	a4,7
80000524:	00050413          	mv	s0,a0
80000528:	02e78063          	beq	a5,a4,80000548 <irq_handler+0x40>
8000052c:	00b00713          	li	a4,11
80000530:	02e78863          	beq	a5,a4,80000560 <irq_handler+0x58>
80000534:	00300713          	li	a4,3
80000538:	00e78a63          	beq	a5,a4,8000054c <irq_handler+0x44>
8000053c:	8000b537          	lui	a0,0x8000b
80000540:	f4450513          	addi	a0,a0,-188 # 8000af44 <start+0x2c4>
80000544:	0240006f          	j	80000568 <irq_handler+0x60>
80000548:	7fd050ef          	jal	80006544 <clkhandler>
8000054c:	00c12083          	lw	ra,12(sp)
80000550:	00040513          	mv	a0,s0
80000554:	00812403          	lw	s0,8(sp)
80000558:	01010113          	addi	sp,sp,16
8000055c:	00008067          	ret
80000560:	8000b537          	lui	a0,0x8000b
80000564:	f2c50513          	addi	a0,a0,-212 # 8000af2c <start+0x2ac>
80000568:	6880a0ef          	jal	8000abf0 <kprintf>
8000056c:	fe1ff06f          	j	8000054c <irq_handler+0x44>

80000570 <init_timer>:
80000570:	8000e7b7          	lui	a5,0x8000e
80000574:	9a87a783          	lw	a5,-1624(a5) # 8000d9a8 <mtime>
80000578:	8000e6b7          	lui	a3,0x8000e
8000057c:	9ac6a683          	lw	a3,-1620(a3) # 8000d9ac <mtimecmp>
80000580:	0007a703          	lw	a4,0(a5)
80000584:	0047a783          	lw	a5,4(a5)
80000588:	00e50533          	add	a0,a0,a4
8000058c:	00e53633          	sltu	a2,a0,a4
80000590:	00f585b3          	add	a1,a1,a5
80000594:	00b607b3          	add	a5,a2,a1
80000598:	00a6a023          	sw	a0,0(a3)
8000059c:	00f6a223          	sw	a5,4(a3)
800005a0:	00008067          	ret

800005a4 <clkupdate>:
800005a4:	fcdff06f          	j	80000570 <init_timer>

800005a8 <timer_init>:
800005a8:	ff010113          	addi	sp,sp,-16
800005ac:	00112623          	sw	ra,12(sp)
800005b0:	d25ff0ef          	jal	800002d4 <clear_interrupts>
800005b4:	ce9ff0ef          	jal	8000029c <enable_interrupt_status>
800005b8:	00700513          	li	a0,7
800005bc:	cedff0ef          	jal	800002a8 <enable_interrupt>
800005c0:	00300513          	li	a0,3
800005c4:	ce5ff0ef          	jal	800002a8 <enable_interrupt>
800005c8:	00b00513          	li	a0,11
800005cc:	cddff0ef          	jal	800002a8 <enable_interrupt>
800005d0:	00100513          	li	a0,1
800005d4:	00000593          	li	a1,0
800005d8:	f99ff0ef          	jal	80000570 <init_timer>
800005dc:	00c12083          	lw	ra,12(sp)
800005e0:	80000537          	lui	a0,0x80000
800005e4:	50850513          	addi	a0,a0,1288 # 80000508 <irq_handler>
800005e8:	01010113          	addi	sp,sp,16
800005ec:	d15ff06f          	j	80000300 <exception_set_irq_handler>

800005f0 <timer_sleep>:
800005f0:	c0102773          	rdtime	a4
800005f4:	c01027f3          	rdtime	a5
800005f8:	40e787b3          	sub	a5,a5,a4
800005fc:	fea7cce3          	blt	a5,a0,800005f4 <timer_sleep+0x4>
80000600:	00008067          	ret

80000604 <timer_now>:
80000604:	c0102573          	rdtime	a0
80000608:	00008067          	ret

8000060c <timer_set_mtimecmp>:
8000060c:	7c051073          	csrw	0x7c0,a0
80000610:	00008067          	ret

80000614 <timer_get_mtime>:
80000614:	c0002573          	rdcycle	a0
80000618:	00008067          	ret

8000061c <getSbox>:
8000061c:	8000c7b7          	lui	a5,0x8000c
80000620:	00f57713          	andi	a4,a0,15
80000624:	c5478793          	addi	a5,a5,-940 # 8000bc54 <S_box>
80000628:	0f057513          	andi	a0,a0,240
8000062c:	00a787b3          	add	a5,a5,a0
80000630:	00e787b3          	add	a5,a5,a4
80000634:	0007c503          	lbu	a0,0(a5)
80000638:	00008067          	ret

8000063c <getinvSbox>:
8000063c:	8000c7b7          	lui	a5,0x8000c
80000640:	00f57713          	andi	a4,a0,15
80000644:	c5478793          	addi	a5,a5,-940 # 8000bc54 <S_box>
80000648:	0f057513          	andi	a0,a0,240
8000064c:	00a787b3          	add	a5,a5,a0
80000650:	00e787b3          	add	a5,a5,a4
80000654:	1007c503          	lbu	a0,256(a5)
80000658:	00008067          	ret

8000065c <key_schedule128>:
8000065c:	fd010113          	addi	sp,sp,-48
80000660:	01412c23          	sw	s4,24(sp)
80000664:	8000ca37          	lui	s4,0x8000c
80000668:	02812423          	sw	s0,40(sp)
8000066c:	02912223          	sw	s1,36(sp)
80000670:	01312e23          	sw	s3,28(sp)
80000674:	01712623          	sw	s7,12(sp)
80000678:	02112623          	sw	ra,44(sp)
8000067c:	03212023          	sw	s2,32(sp)
80000680:	01512a23          	sw	s5,20(sp)
80000684:	01612823          	sw	s6,16(sp)
80000688:	01812423          	sw	s8,8(sp)
8000068c:	01912223          	sw	s9,4(sp)
80000690:	00050413          	mv	s0,a0
80000694:	01000493          	li	s1,16
80000698:	00000993          	li	s3,0
8000069c:	c54a0a13          	addi	s4,s4,-940 # 8000bc54 <S_box>
800006a0:	0b000b93          	li	s7,176
800006a4:	00c4f793          	andi	a5,s1,12
800006a8:	0c079463          	bnez	a5,80000770 <key_schedule128+0x114>
800006ac:	00d44503          	lbu	a0,13(s0)
800006b0:	013a0933          	add	s2,s4,s3
800006b4:	00044a83          	lbu	s5,0(s0)
800006b8:	f65ff0ef          	jal	8000061c <getSbox>
800006bc:	20094783          	lbu	a5,512(s2)
800006c0:	00e44c83          	lbu	s9,14(s0)
800006c4:	00f44c03          	lbu	s8,15(s0)
800006c8:	00facab3          	xor	s5,s5,a5
800006cc:	01554533          	xor	a0,a0,s5
800006d0:	00a40823          	sb	a0,16(s0)
800006d4:	000c8513          	mv	a0,s9
800006d8:	f45ff0ef          	jal	8000061c <getSbox>
800006dc:	20a94783          	lbu	a5,522(s2)
800006e0:	00144a83          	lbu	s5,1(s0)
800006e4:	00c44b03          	lbu	s6,12(s0)
800006e8:	00198993          	addi	s3,s3,1
800006ec:	00facab3          	xor	s5,s5,a5
800006f0:	01554533          	xor	a0,a0,s5
800006f4:	00a408a3          	sb	a0,17(s0)
800006f8:	000c0513          	mv	a0,s8
800006fc:	f21ff0ef          	jal	8000061c <getSbox>
80000700:	21494783          	lbu	a5,532(s2)
80000704:	00244a83          	lbu	s5,2(s0)
80000708:	00facab3          	xor	s5,s5,a5
8000070c:	01554533          	xor	a0,a0,s5
80000710:	00a40923          	sb	a0,18(s0)
80000714:	000b0513          	mv	a0,s6
80000718:	f05ff0ef          	jal	8000061c <getSbox>
8000071c:	00344a83          	lbu	s5,3(s0)
80000720:	21e94783          	lbu	a5,542(s2)
80000724:	00facab3          	xor	s5,s5,a5
80000728:	01554533          	xor	a0,a0,s5
8000072c:	00a409a3          	sb	a0,19(s0)
80000730:	00448493          	addi	s1,s1,4
80000734:	00440413          	addi	s0,s0,4
80000738:	f77496e3          	bne	s1,s7,800006a4 <key_schedule128+0x48>
8000073c:	02c12083          	lw	ra,44(sp)
80000740:	02812403          	lw	s0,40(sp)
80000744:	02412483          	lw	s1,36(sp)
80000748:	02012903          	lw	s2,32(sp)
8000074c:	01c12983          	lw	s3,28(sp)
80000750:	01812a03          	lw	s4,24(sp)
80000754:	01412a83          	lw	s5,20(sp)
80000758:	01012b03          	lw	s6,16(sp)
8000075c:	00c12b83          	lw	s7,12(sp)
80000760:	00812c03          	lw	s8,8(sp)
80000764:	00412c83          	lw	s9,4(sp)
80000768:	03010113          	addi	sp,sp,48
8000076c:	00008067          	ret
80000770:	00044703          	lbu	a4,0(s0)
80000774:	00c44783          	lbu	a5,12(s0)
80000778:	00e7c7b3          	xor	a5,a5,a4
8000077c:	00f40823          	sb	a5,16(s0)
80000780:	00144703          	lbu	a4,1(s0)
80000784:	00d44783          	lbu	a5,13(s0)
80000788:	00e7c7b3          	xor	a5,a5,a4
8000078c:	00f408a3          	sb	a5,17(s0)
80000790:	00244703          	lbu	a4,2(s0)
80000794:	00e44783          	lbu	a5,14(s0)
80000798:	00e7c7b3          	xor	a5,a5,a4
8000079c:	00f40923          	sb	a5,18(s0)
800007a0:	00344703          	lbu	a4,3(s0)
800007a4:	00f44783          	lbu	a5,15(s0)
800007a8:	00e7c7b3          	xor	a5,a5,a4
800007ac:	00f409a3          	sb	a5,19(s0)
800007b0:	f81ff06f          	j	80000730 <key_schedule128+0xd4>

800007b4 <key_schedule256>:
800007b4:	fc010113          	addi	sp,sp,-64
800007b8:	8000c5b7          	lui	a1,0x8000c
800007bc:	02812c23          	sw	s0,56(sp)
800007c0:	00c00613          	li	a2,12
800007c4:	00050413          	mv	s0,a0
800007c8:	e7c58593          	addi	a1,a1,-388 # 8000be7c <Rcon+0x28>
800007cc:	00410513          	addi	a0,sp,4
800007d0:	02912a23          	sw	s1,52(sp)
800007d4:	03312623          	sw	s3,44(sp)
800007d8:	03412423          	sw	s4,40(sp)
800007dc:	02112e23          	sw	ra,60(sp)
800007e0:	03212823          	sw	s2,48(sp)
800007e4:	03512223          	sw	s5,36(sp)
800007e8:	03612023          	sw	s6,32(sp)
800007ec:	01712e23          	sw	s7,28(sp)
800007f0:	02000493          	li	s1,32
800007f4:	705030ef          	jal	800046f8 <memcpy>
800007f8:	00400a13          	li	s4,4
800007fc:	0f000993          	li	s3,240
80000800:	01c44b83          	lbu	s7,28(s0)
80000804:	01d44903          	lbu	s2,29(s0)
80000808:	01e44b03          	lbu	s6,30(s0)
8000080c:	01f44a83          	lbu	s5,31(s0)
80000810:	4024d793          	srai	a5,s1,0x2
80000814:	03740023          	sb	s7,32(s0)
80000818:	032400a3          	sb	s2,33(s0)
8000081c:	03640123          	sb	s6,34(s0)
80000820:	035401a3          	sb	s5,35(s0)
80000824:	0077f793          	andi	a5,a5,7
80000828:	0c079263          	bnez	a5,800008ec <key_schedule256+0x138>
8000082c:	00090513          	mv	a0,s2
80000830:	dedff0ef          	jal	8000061c <getSbox>
80000834:	00050913          	mv	s2,a0
80000838:	000b0513          	mv	a0,s6
8000083c:	de1ff0ef          	jal	8000061c <getSbox>
80000840:	02a400a3          	sb	a0,33(s0)
80000844:	000a8513          	mv	a0,s5
80000848:	dd5ff0ef          	jal	8000061c <getSbox>
8000084c:	02a40123          	sb	a0,34(s0)
80000850:	000b8513          	mv	a0,s7
80000854:	dc9ff0ef          	jal	8000061c <getSbox>
80000858:	4054d793          	srai	a5,s1,0x5
8000085c:	01078793          	addi	a5,a5,16
80000860:	002787b3          	add	a5,a5,sp
80000864:	ff47c783          	lbu	a5,-12(a5)
80000868:	02a401a3          	sb	a0,35(s0)
8000086c:	00f94933          	xor	s2,s2,a5
80000870:	03240023          	sb	s2,32(s0)
80000874:	02044783          	lbu	a5,32(s0)
80000878:	00044703          	lbu	a4,0(s0)
8000087c:	00448493          	addi	s1,s1,4
80000880:	00440413          	addi	s0,s0,4
80000884:	00e7c7b3          	xor	a5,a5,a4
80000888:	00f40e23          	sb	a5,28(s0)
8000088c:	ffd44703          	lbu	a4,-3(s0)
80000890:	01d44783          	lbu	a5,29(s0)
80000894:	00e7c7b3          	xor	a5,a5,a4
80000898:	00f40ea3          	sb	a5,29(s0)
8000089c:	ffe44703          	lbu	a4,-2(s0)
800008a0:	01e44783          	lbu	a5,30(s0)
800008a4:	00e7c7b3          	xor	a5,a5,a4
800008a8:	00f40f23          	sb	a5,30(s0)
800008ac:	fff44703          	lbu	a4,-1(s0)
800008b0:	01f44783          	lbu	a5,31(s0)
800008b4:	00e7c7b3          	xor	a5,a5,a4
800008b8:	00f40fa3          	sb	a5,31(s0)
800008bc:	f53492e3          	bne	s1,s3,80000800 <key_schedule256+0x4c>
800008c0:	03c12083          	lw	ra,60(sp)
800008c4:	03812403          	lw	s0,56(sp)
800008c8:	03412483          	lw	s1,52(sp)
800008cc:	03012903          	lw	s2,48(sp)
800008d0:	02c12983          	lw	s3,44(sp)
800008d4:	02812a03          	lw	s4,40(sp)
800008d8:	02412a83          	lw	s5,36(sp)
800008dc:	02012b03          	lw	s6,32(sp)
800008e0:	01c12b83          	lw	s7,28(sp)
800008e4:	04010113          	addi	sp,sp,64
800008e8:	00008067          	ret
800008ec:	f94794e3          	bne	a5,s4,80000874 <key_schedule256+0xc0>
800008f0:	000b8513          	mv	a0,s7
800008f4:	d29ff0ef          	jal	8000061c <getSbox>
800008f8:	02a40023          	sb	a0,32(s0)
800008fc:	00090513          	mv	a0,s2
80000900:	d1dff0ef          	jal	8000061c <getSbox>
80000904:	02a400a3          	sb	a0,33(s0)
80000908:	000b0513          	mv	a0,s6
8000090c:	d11ff0ef          	jal	8000061c <getSbox>
80000910:	02a40123          	sb	a0,34(s0)
80000914:	000a8513          	mv	a0,s5
80000918:	d05ff0ef          	jal	8000061c <getSbox>
8000091c:	02a401a3          	sb	a0,35(s0)
80000920:	f55ff06f          	j	80000874 <key_schedule256+0xc0>

80000924 <add_round_key>:
80000924:	00000793          	li	a5,0
80000928:	01000613          	li	a2,16
8000092c:	00f506b3          	add	a3,a0,a5
80000930:	00f58733          	add	a4,a1,a5
80000934:	00074703          	lbu	a4,0(a4)
80000938:	0006c803          	lbu	a6,0(a3)
8000093c:	00178793          	addi	a5,a5,1
80000940:	01074733          	xor	a4,a4,a6
80000944:	00e68023          	sb	a4,0(a3)
80000948:	fec792e3          	bne	a5,a2,8000092c <add_round_key+0x8>
8000094c:	00008067          	ret

80000950 <byte_sub>:
80000950:	ff010113          	addi	sp,sp,-16
80000954:	00812423          	sw	s0,8(sp)
80000958:	00912223          	sw	s1,4(sp)
8000095c:	00112623          	sw	ra,12(sp)
80000960:	00050413          	mv	s0,a0
80000964:	01050493          	addi	s1,a0,16
80000968:	00044503          	lbu	a0,0(s0)
8000096c:	00140413          	addi	s0,s0,1
80000970:	cadff0ef          	jal	8000061c <getSbox>
80000974:	fea40fa3          	sb	a0,-1(s0)
80000978:	fe9418e3          	bne	s0,s1,80000968 <byte_sub+0x18>
8000097c:	00c12083          	lw	ra,12(sp)
80000980:	00812403          	lw	s0,8(sp)
80000984:	00412483          	lw	s1,4(sp)
80000988:	01010113          	addi	sp,sp,16
8000098c:	00008067          	ret

80000990 <shift_row>:
80000990:	00554703          	lbu	a4,5(a0)
80000994:	00154783          	lbu	a5,1(a0)
80000998:	00e54683          	lbu	a3,14(a0)
8000099c:	00e500a3          	sb	a4,1(a0)
800009a0:	00954703          	lbu	a4,9(a0)
800009a4:	00a54603          	lbu	a2,10(a0)
800009a8:	00e502a3          	sb	a4,5(a0)
800009ac:	00d54703          	lbu	a4,13(a0)
800009b0:	00f506a3          	sb	a5,13(a0)
800009b4:	00654783          	lbu	a5,6(a0)
800009b8:	00e504a3          	sb	a4,9(a0)
800009bc:	00254703          	lbu	a4,2(a0)
800009c0:	00d50323          	sb	a3,6(a0)
800009c4:	00c50123          	sb	a2,2(a0)
800009c8:	00354683          	lbu	a3,3(a0)
800009cc:	00f54603          	lbu	a2,15(a0)
800009d0:	00e50523          	sb	a4,10(a0)
800009d4:	00f50723          	sb	a5,14(a0)
800009d8:	00754703          	lbu	a4,7(a0)
800009dc:	00b54783          	lbu	a5,11(a0)
800009e0:	00c501a3          	sb	a2,3(a0)
800009e4:	00d503a3          	sb	a3,7(a0)
800009e8:	00e505a3          	sb	a4,11(a0)
800009ec:	00f507a3          	sb	a5,15(a0)
800009f0:	00008067          	ret

800009f4 <ml>:
800009f4:	ffe58593          	addi	a1,a1,-2
800009f8:	0ff5f593          	zext.b	a1,a1
800009fc:	00c00793          	li	a5,12
80000a00:	08b7e863          	bltu	a5,a1,80000a90 <ml+0x9c>
80000a04:	8000c7b7          	lui	a5,0x8000c
80000a08:	c2078793          	addi	a5,a5,-992 # 8000bc20 <start+0xfa0>
80000a0c:	00259593          	slli	a1,a1,0x2
80000a10:	00f585b3          	add	a1,a1,a5
80000a14:	0005a783          	lw	a5,0(a1)
80000a18:	00078067          	jr	a5
80000a1c:	8000c7b7          	lui	a5,0x8000c
80000a20:	c5478793          	addi	a5,a5,-940 # 8000bc54 <S_box>
80000a24:	00a787b3          	add	a5,a5,a0
80000a28:	2347c503          	lbu	a0,564(a5)
80000a2c:	00008067          	ret
80000a30:	8000c7b7          	lui	a5,0x8000c
80000a34:	c5478793          	addi	a5,a5,-940 # 8000bc54 <S_box>
80000a38:	00a787b3          	add	a5,a5,a0
80000a3c:	3347c503          	lbu	a0,820(a5)
80000a40:	00008067          	ret
80000a44:	8000c7b7          	lui	a5,0x8000c
80000a48:	c5478793          	addi	a5,a5,-940 # 8000bc54 <S_box>
80000a4c:	00a787b3          	add	a5,a5,a0
80000a50:	4347c503          	lbu	a0,1076(a5)
80000a54:	00008067          	ret
80000a58:	8000c7b7          	lui	a5,0x8000c
80000a5c:	c5478793          	addi	a5,a5,-940 # 8000bc54 <S_box>
80000a60:	00a787b3          	add	a5,a5,a0
80000a64:	5347c503          	lbu	a0,1332(a5)
80000a68:	00008067          	ret
80000a6c:	8000c7b7          	lui	a5,0x8000c
80000a70:	c5478793          	addi	a5,a5,-940 # 8000bc54 <S_box>
80000a74:	00a787b3          	add	a5,a5,a0
80000a78:	6347c503          	lbu	a0,1588(a5)
80000a7c:	00008067          	ret
80000a80:	8000c7b7          	lui	a5,0x8000c
80000a84:	c5478793          	addi	a5,a5,-940 # 8000bc54 <S_box>
80000a88:	00a787b3          	add	a5,a5,a0
80000a8c:	7347c503          	lbu	a0,1844(a5)
80000a90:	00008067          	ret

80000a94 <mix_columns>:
80000a94:	fd010113          	addi	sp,sp,-48
80000a98:	01512a23          	sw	s5,20(sp)
80000a9c:	8000dab7          	lui	s5,0x8000d
80000aa0:	03212023          	sw	s2,32(sp)
80000aa4:	01412c23          	sw	s4,24(sp)
80000aa8:	01612823          	sw	s6,16(sp)
80000aac:	02112623          	sw	ra,44(sp)
80000ab0:	02812423          	sw	s0,40(sp)
80000ab4:	02912223          	sw	s1,36(sp)
80000ab8:	01312e23          	sw	s3,28(sp)
80000abc:	00050a13          	mv	s4,a0
80000ac0:	00000913          	li	s2,0
80000ac4:	c54a8a93          	addi	s5,s5,-940 # 8000cc54 <_sdata+0x414>
80000ac8:	01000b13          	li	s6,16
80000acc:	00397493          	andi	s1,s2,3
80000ad0:	ffc97993          	andi	s3,s2,-4
80000ad4:	00249493          	slli	s1,s1,0x2
80000ad8:	009a84b3          	add	s1,s5,s1
80000adc:	013a09b3          	add	s3,s4,s3
80000ae0:	8344c583          	lbu	a1,-1996(s1)
80000ae4:	0009c503          	lbu	a0,0(s3)
80000ae8:	f0dff0ef          	jal	800009f4 <ml>
80000aec:	8354c583          	lbu	a1,-1995(s1)
80000af0:	00050413          	mv	s0,a0
80000af4:	0019c503          	lbu	a0,1(s3)
80000af8:	efdff0ef          	jal	800009f4 <ml>
80000afc:	8364c583          	lbu	a1,-1994(s1)
80000b00:	00a44433          	xor	s0,s0,a0
80000b04:	0029c503          	lbu	a0,2(s3)
80000b08:	0ff47413          	zext.b	s0,s0
80000b0c:	ee9ff0ef          	jal	800009f4 <ml>
80000b10:	00a44433          	xor	s0,s0,a0
80000b14:	8374c583          	lbu	a1,-1993(s1)
80000b18:	0039c503          	lbu	a0,3(s3)
80000b1c:	0ff47413          	zext.b	s0,s0
80000b20:	ed5ff0ef          	jal	800009f4 <ml>
80000b24:	012107b3          	add	a5,sp,s2
80000b28:	00a44433          	xor	s0,s0,a0
80000b2c:	00878023          	sb	s0,0(a5)
80000b30:	00190913          	addi	s2,s2,1
80000b34:	f9691ce3          	bne	s2,s6,80000acc <mix_columns+0x38>
80000b38:	00010593          	mv	a1,sp
80000b3c:	000a0513          	mv	a0,s4
80000b40:	01000613          	li	a2,16
80000b44:	3b5030ef          	jal	800046f8 <memcpy>
80000b48:	02c12083          	lw	ra,44(sp)
80000b4c:	02812403          	lw	s0,40(sp)
80000b50:	02412483          	lw	s1,36(sp)
80000b54:	02012903          	lw	s2,32(sp)
80000b58:	01c12983          	lw	s3,28(sp)
80000b5c:	01812a03          	lw	s4,24(sp)
80000b60:	01412a83          	lw	s5,20(sp)
80000b64:	01012b03          	lw	s6,16(sp)
80000b68:	03010113          	addi	sp,sp,48
80000b6c:	00008067          	ret

80000b70 <inv_mix_columns>:
80000b70:	fd010113          	addi	sp,sp,-48
80000b74:	01512a23          	sw	s5,20(sp)
80000b78:	8000dab7          	lui	s5,0x8000d
80000b7c:	03212023          	sw	s2,32(sp)
80000b80:	01412c23          	sw	s4,24(sp)
80000b84:	01612823          	sw	s6,16(sp)
80000b88:	02112623          	sw	ra,44(sp)
80000b8c:	02812423          	sw	s0,40(sp)
80000b90:	02912223          	sw	s1,36(sp)
80000b94:	01312e23          	sw	s3,28(sp)
80000b98:	00050a13          	mv	s4,a0
80000b9c:	00000913          	li	s2,0
80000ba0:	c54a8a93          	addi	s5,s5,-940 # 8000cc54 <_sdata+0x414>
80000ba4:	01000b13          	li	s6,16
80000ba8:	00397493          	andi	s1,s2,3
80000bac:	ffc97993          	andi	s3,s2,-4
80000bb0:	00249493          	slli	s1,s1,0x2
80000bb4:	009a84b3          	add	s1,s5,s1
80000bb8:	013a09b3          	add	s3,s4,s3
80000bbc:	8444c583          	lbu	a1,-1980(s1)
80000bc0:	0009c503          	lbu	a0,0(s3)
80000bc4:	e31ff0ef          	jal	800009f4 <ml>
80000bc8:	8454c583          	lbu	a1,-1979(s1)
80000bcc:	00050413          	mv	s0,a0
80000bd0:	0019c503          	lbu	a0,1(s3)
80000bd4:	e21ff0ef          	jal	800009f4 <ml>
80000bd8:	8464c583          	lbu	a1,-1978(s1)
80000bdc:	00a44433          	xor	s0,s0,a0
80000be0:	0029c503          	lbu	a0,2(s3)
80000be4:	0ff47413          	zext.b	s0,s0
80000be8:	e0dff0ef          	jal	800009f4 <ml>
80000bec:	00a44433          	xor	s0,s0,a0
80000bf0:	8474c583          	lbu	a1,-1977(s1)
80000bf4:	0039c503          	lbu	a0,3(s3)
80000bf8:	0ff47413          	zext.b	s0,s0
80000bfc:	df9ff0ef          	jal	800009f4 <ml>
80000c00:	012107b3          	add	a5,sp,s2
80000c04:	00a44433          	xor	s0,s0,a0
80000c08:	00878023          	sb	s0,0(a5)
80000c0c:	00190913          	addi	s2,s2,1
80000c10:	f9691ce3          	bne	s2,s6,80000ba8 <inv_mix_columns+0x38>
80000c14:	00010593          	mv	a1,sp
80000c18:	000a0513          	mv	a0,s4
80000c1c:	01000613          	li	a2,16
80000c20:	2d9030ef          	jal	800046f8 <memcpy>
80000c24:	02c12083          	lw	ra,44(sp)
80000c28:	02812403          	lw	s0,40(sp)
80000c2c:	02412483          	lw	s1,36(sp)
80000c30:	02012903          	lw	s2,32(sp)
80000c34:	01c12983          	lw	s3,28(sp)
80000c38:	01812a03          	lw	s4,24(sp)
80000c3c:	01412a83          	lw	s5,20(sp)
80000c40:	01012b03          	lw	s6,16(sp)
80000c44:	03010113          	addi	sp,sp,48
80000c48:	00008067          	ret

80000c4c <inv_shift_row>:
80000c4c:	00954703          	lbu	a4,9(a0)
80000c50:	00d54783          	lbu	a5,13(a0)
80000c54:	00254683          	lbu	a3,2(a0)
80000c58:	00e506a3          	sb	a4,13(a0)
80000c5c:	00554703          	lbu	a4,5(a0)
80000c60:	00654603          	lbu	a2,6(a0)
80000c64:	00e504a3          	sb	a4,9(a0)
80000c68:	00154703          	lbu	a4,1(a0)
80000c6c:	00f500a3          	sb	a5,1(a0)
80000c70:	00a54783          	lbu	a5,10(a0)
80000c74:	00e502a3          	sb	a4,5(a0)
80000c78:	00e54703          	lbu	a4,14(a0)
80000c7c:	00d50523          	sb	a3,10(a0)
80000c80:	00c50723          	sb	a2,14(a0)
80000c84:	00f54683          	lbu	a3,15(a0)
80000c88:	00354603          	lbu	a2,3(a0)
80000c8c:	00e50323          	sb	a4,6(a0)
80000c90:	00f50123          	sb	a5,2(a0)
80000c94:	00b54703          	lbu	a4,11(a0)
80000c98:	00754783          	lbu	a5,7(a0)
80000c9c:	00c507a3          	sb	a2,15(a0)
80000ca0:	00d505a3          	sb	a3,11(a0)
80000ca4:	00e503a3          	sb	a4,7(a0)
80000ca8:	00f501a3          	sb	a5,3(a0)
80000cac:	00008067          	ret

80000cb0 <inv_byte_sub>:
80000cb0:	ff010113          	addi	sp,sp,-16
80000cb4:	00812423          	sw	s0,8(sp)
80000cb8:	00912223          	sw	s1,4(sp)
80000cbc:	00112623          	sw	ra,12(sp)
80000cc0:	00050413          	mv	s0,a0
80000cc4:	01050493          	addi	s1,a0,16
80000cc8:	00044503          	lbu	a0,0(s0)
80000ccc:	00140413          	addi	s0,s0,1
80000cd0:	96dff0ef          	jal	8000063c <getinvSbox>
80000cd4:	fea40fa3          	sb	a0,-1(s0)
80000cd8:	fe9418e3          	bne	s0,s1,80000cc8 <inv_byte_sub+0x18>
80000cdc:	00c12083          	lw	ra,12(sp)
80000ce0:	00812403          	lw	s0,8(sp)
80000ce4:	00412483          	lw	s1,4(sp)
80000ce8:	01010113          	addi	sp,sp,16
80000cec:	00008067          	ret

80000cf0 <AES_setKey>:
80000cf0:	00050593          	mv	a1,a0
80000cf4:	8000e537          	lui	a0,0x8000e
80000cf8:	02000613          	li	a2,32
80000cfc:	a4050513          	addi	a0,a0,-1472 # 8000da40 <key>
80000d00:	1f90306f          	j	800046f8 <memcpy>

80000d04 <AES128_encrypt>:
80000d04:	f4010113          	addi	sp,sp,-192
80000d08:	0a812c23          	sw	s0,184(sp)
80000d0c:	0b000613          	li	a2,176
80000d10:	00050413          	mv	s0,a0
80000d14:	00000593          	li	a1,0
80000d18:	00010513          	mv	a0,sp
80000d1c:	0a112e23          	sw	ra,188(sp)
80000d20:	0a912a23          	sw	s1,180(sp)
80000d24:	0b212823          	sw	s2,176(sp)
80000d28:	1b9030ef          	jal	800046e0 <memset>
80000d2c:	8000e5b7          	lui	a1,0x8000e
80000d30:	01000613          	li	a2,16
80000d34:	a4058593          	addi	a1,a1,-1472 # 8000da40 <key>
80000d38:	00010513          	mv	a0,sp
80000d3c:	1bd030ef          	jal	800046f8 <memcpy>
80000d40:	00010513          	mv	a0,sp
80000d44:	919ff0ef          	jal	8000065c <key_schedule128>
80000d48:	00010593          	mv	a1,sp
80000d4c:	00040513          	mv	a0,s0
80000d50:	bd5ff0ef          	jal	80000924 <add_round_key>
80000d54:	00100493          	li	s1,1
80000d58:	00a00913          	li	s2,10
80000d5c:	00040513          	mv	a0,s0
80000d60:	bf1ff0ef          	jal	80000950 <byte_sub>
80000d64:	00040513          	mv	a0,s0
80000d68:	c29ff0ef          	jal	80000990 <shift_row>
80000d6c:	00040513          	mv	a0,s0
80000d70:	d25ff0ef          	jal	80000a94 <mix_columns>
80000d74:	00449593          	slli	a1,s1,0x4
80000d78:	00b105b3          	add	a1,sp,a1
80000d7c:	00040513          	mv	a0,s0
80000d80:	00148493          	addi	s1,s1,1
80000d84:	ba1ff0ef          	jal	80000924 <add_round_key>
80000d88:	fd249ae3          	bne	s1,s2,80000d5c <AES128_encrypt+0x58>
80000d8c:	00040513          	mv	a0,s0
80000d90:	bc1ff0ef          	jal	80000950 <byte_sub>
80000d94:	00040513          	mv	a0,s0
80000d98:	bf9ff0ef          	jal	80000990 <shift_row>
80000d9c:	0a010593          	addi	a1,sp,160
80000da0:	00040513          	mv	a0,s0
80000da4:	b81ff0ef          	jal	80000924 <add_round_key>
80000da8:	0bc12083          	lw	ra,188(sp)
80000dac:	0b812403          	lw	s0,184(sp)
80000db0:	0b412483          	lw	s1,180(sp)
80000db4:	0b012903          	lw	s2,176(sp)
80000db8:	0c010113          	addi	sp,sp,192
80000dbc:	00008067          	ret

80000dc0 <AES128_decrypt>:
80000dc0:	f4010113          	addi	sp,sp,-192
80000dc4:	0a912a23          	sw	s1,180(sp)
80000dc8:	00010493          	mv	s1,sp
80000dcc:	0a812c23          	sw	s0,184(sp)
80000dd0:	0b000613          	li	a2,176
80000dd4:	00050413          	mv	s0,a0
80000dd8:	00000593          	li	a1,0
80000ddc:	00048513          	mv	a0,s1
80000de0:	0a112e23          	sw	ra,188(sp)
80000de4:	0b212823          	sw	s2,176(sp)
80000de8:	0f9030ef          	jal	800046e0 <memset>
80000dec:	8000e5b7          	lui	a1,0x8000e
80000df0:	01000613          	li	a2,16
80000df4:	a4058593          	addi	a1,a1,-1472 # 8000da40 <key>
80000df8:	00048513          	mv	a0,s1
80000dfc:	0fd030ef          	jal	800046f8 <memcpy>
80000e00:	00048513          	mv	a0,s1
80000e04:	859ff0ef          	jal	8000065c <key_schedule128>
80000e08:	0a010593          	addi	a1,sp,160
80000e0c:	00040513          	mv	a0,s0
80000e10:	b15ff0ef          	jal	80000924 <add_round_key>
80000e14:	00040513          	mv	a0,s0
80000e18:	e35ff0ef          	jal	80000c4c <inv_shift_row>
80000e1c:	00040513          	mv	a0,s0
80000e20:	e91ff0ef          	jal	80000cb0 <inv_byte_sub>
80000e24:	09010913          	addi	s2,sp,144
80000e28:	00090593          	mv	a1,s2
80000e2c:	00040513          	mv	a0,s0
80000e30:	af5ff0ef          	jal	80000924 <add_round_key>
80000e34:	00040513          	mv	a0,s0
80000e38:	d39ff0ef          	jal	80000b70 <inv_mix_columns>
80000e3c:	00040513          	mv	a0,s0
80000e40:	e0dff0ef          	jal	80000c4c <inv_shift_row>
80000e44:	00040513          	mv	a0,s0
80000e48:	ff090913          	addi	s2,s2,-16
80000e4c:	e65ff0ef          	jal	80000cb0 <inv_byte_sub>
80000e50:	fd249ce3          	bne	s1,s2,80000e28 <AES128_decrypt+0x68>
80000e54:	00048593          	mv	a1,s1
80000e58:	00040513          	mv	a0,s0
80000e5c:	ac9ff0ef          	jal	80000924 <add_round_key>
80000e60:	0bc12083          	lw	ra,188(sp)
80000e64:	0b812403          	lw	s0,184(sp)
80000e68:	0b412483          	lw	s1,180(sp)
80000e6c:	0b012903          	lw	s2,176(sp)
80000e70:	0c010113          	addi	sp,sp,192
80000e74:	00008067          	ret

80000e78 <AES256_encrypt>:
80000e78:	f0010113          	addi	sp,sp,-256
80000e7c:	0e812c23          	sw	s0,248(sp)
80000e80:	0f000613          	li	a2,240
80000e84:	00050413          	mv	s0,a0
80000e88:	00000593          	li	a1,0
80000e8c:	00010513          	mv	a0,sp
80000e90:	0e112e23          	sw	ra,252(sp)
80000e94:	0e912a23          	sw	s1,244(sp)
80000e98:	0f212823          	sw	s2,240(sp)
80000e9c:	045030ef          	jal	800046e0 <memset>
80000ea0:	8000e5b7          	lui	a1,0x8000e
80000ea4:	02000613          	li	a2,32
80000ea8:	a4058593          	addi	a1,a1,-1472 # 8000da40 <key>
80000eac:	00010513          	mv	a0,sp
80000eb0:	049030ef          	jal	800046f8 <memcpy>
80000eb4:	00010513          	mv	a0,sp
80000eb8:	8fdff0ef          	jal	800007b4 <key_schedule256>
80000ebc:	00010593          	mv	a1,sp
80000ec0:	00040513          	mv	a0,s0
80000ec4:	a61ff0ef          	jal	80000924 <add_round_key>
80000ec8:	00100493          	li	s1,1
80000ecc:	00e00913          	li	s2,14
80000ed0:	00040513          	mv	a0,s0
80000ed4:	a7dff0ef          	jal	80000950 <byte_sub>
80000ed8:	00040513          	mv	a0,s0
80000edc:	ab5ff0ef          	jal	80000990 <shift_row>
80000ee0:	00040513          	mv	a0,s0
80000ee4:	bb1ff0ef          	jal	80000a94 <mix_columns>
80000ee8:	00449593          	slli	a1,s1,0x4
80000eec:	00b105b3          	add	a1,sp,a1
80000ef0:	00040513          	mv	a0,s0
80000ef4:	00148493          	addi	s1,s1,1
80000ef8:	a2dff0ef          	jal	80000924 <add_round_key>
80000efc:	fd249ae3          	bne	s1,s2,80000ed0 <AES256_encrypt+0x58>
80000f00:	00040513          	mv	a0,s0
80000f04:	a4dff0ef          	jal	80000950 <byte_sub>
80000f08:	00040513          	mv	a0,s0
80000f0c:	a85ff0ef          	jal	80000990 <shift_row>
80000f10:	0e010593          	addi	a1,sp,224
80000f14:	00040513          	mv	a0,s0
80000f18:	a0dff0ef          	jal	80000924 <add_round_key>
80000f1c:	0fc12083          	lw	ra,252(sp)
80000f20:	0f812403          	lw	s0,248(sp)
80000f24:	0f412483          	lw	s1,244(sp)
80000f28:	0f012903          	lw	s2,240(sp)
80000f2c:	10010113          	addi	sp,sp,256
80000f30:	00008067          	ret

80000f34 <AES256_decrypt>:
80000f34:	f0010113          	addi	sp,sp,-256
80000f38:	0e912a23          	sw	s1,244(sp)
80000f3c:	00010493          	mv	s1,sp
80000f40:	0e812c23          	sw	s0,248(sp)
80000f44:	0f000613          	li	a2,240
80000f48:	00050413          	mv	s0,a0
80000f4c:	00000593          	li	a1,0
80000f50:	00048513          	mv	a0,s1
80000f54:	0e112e23          	sw	ra,252(sp)
80000f58:	0f212823          	sw	s2,240(sp)
80000f5c:	784030ef          	jal	800046e0 <memset>
80000f60:	8000e5b7          	lui	a1,0x8000e
80000f64:	02000613          	li	a2,32
80000f68:	a4058593          	addi	a1,a1,-1472 # 8000da40 <key>
80000f6c:	00048513          	mv	a0,s1
80000f70:	788030ef          	jal	800046f8 <memcpy>
80000f74:	00048513          	mv	a0,s1
80000f78:	83dff0ef          	jal	800007b4 <key_schedule256>
80000f7c:	0e010593          	addi	a1,sp,224
80000f80:	00040513          	mv	a0,s0
80000f84:	9a1ff0ef          	jal	80000924 <add_round_key>
80000f88:	00040513          	mv	a0,s0
80000f8c:	cc1ff0ef          	jal	80000c4c <inv_shift_row>
80000f90:	00040513          	mv	a0,s0
80000f94:	d1dff0ef          	jal	80000cb0 <inv_byte_sub>
80000f98:	0d010913          	addi	s2,sp,208
80000f9c:	00090593          	mv	a1,s2
80000fa0:	00040513          	mv	a0,s0
80000fa4:	981ff0ef          	jal	80000924 <add_round_key>
80000fa8:	00040513          	mv	a0,s0
80000fac:	bc5ff0ef          	jal	80000b70 <inv_mix_columns>
80000fb0:	00040513          	mv	a0,s0
80000fb4:	c99ff0ef          	jal	80000c4c <inv_shift_row>
80000fb8:	00040513          	mv	a0,s0
80000fbc:	ff090913          	addi	s2,s2,-16
80000fc0:	cf1ff0ef          	jal	80000cb0 <inv_byte_sub>
80000fc4:	fd249ce3          	bne	s1,s2,80000f9c <AES256_decrypt+0x68>
80000fc8:	00048593          	mv	a1,s1
80000fcc:	00040513          	mv	a0,s0
80000fd0:	955ff0ef          	jal	80000924 <add_round_key>
80000fd4:	0fc12083          	lw	ra,252(sp)
80000fd8:	0f812403          	lw	s0,248(sp)
80000fdc:	0f412483          	lw	s1,244(sp)
80000fe0:	0f012903          	lw	s2,240(sp)
80000fe4:	10010113          	addi	sp,sp,256
80000fe8:	00008067          	ret

80000fec <_prtl10>:
80000fec:	00a00793          	li	a5,10
80000ff0:	02f567b3          	rem	a5,a0,a5
80000ff4:	ff010113          	addi	sp,sp,-16
80000ff8:	00010223          	sb	zero,4(sp)
80000ffc:	0ff7f793          	zext.b	a5,a5
80001000:	08055c63          	bgez	a0,80001098 <_prtl10+0xac>
80001004:	03000713          	li	a4,48
80001008:	40f707b3          	sub	a5,a4,a5
8000100c:	0ff7f793          	zext.b	a5,a5
80001010:	00f102a3          	sb	a5,5(sp)
80001014:	00a00793          	li	a5,10
80001018:	00055463          	bgez	a0,80001020 <_prtl10+0x34>
8000101c:	ff600793          	li	a5,-10
80001020:	02f54533          	div	a0,a0,a5
80001024:	00a00693          	li	a3,10
80001028:	00200793          	li	a5,2
8000102c:	00b00613          	li	a2,11
80001030:	00410713          	addi	a4,sp,4
80001034:	00f70833          	add	a6,a4,a5
80001038:	00178793          	addi	a5,a5,1
8000103c:	02d56733          	rem	a4,a0,a3
80001040:	03070713          	addi	a4,a4,48
80001044:	00e80023          	sb	a4,0(a6)
80001048:	02d54533          	div	a0,a0,a3
8000104c:	fec792e3          	bne	a5,a2,80001030 <_prtl10+0x44>
80001050:	00a00793          	li	a5,10
80001054:	03000713          	li	a4,48
80001058:	00410693          	addi	a3,sp,4
8000105c:	00f686b3          	add	a3,a3,a5
80001060:	0006c683          	lbu	a3,0(a3)
80001064:	02e68e63          	beq	a3,a4,800010a0 <_prtl10+0xb4>
80001068:	00079463          	bnez	a5,80001070 <_prtl10+0x84>
8000106c:	00100793          	li	a5,1
80001070:	fff00713          	li	a4,-1
80001074:	00410693          	addi	a3,sp,4
80001078:	00f686b3          	add	a3,a3,a5
8000107c:	0006c683          	lbu	a3,0(a3)
80001080:	fff78793          	addi	a5,a5,-1
80001084:	00158593          	addi	a1,a1,1
80001088:	fed58fa3          	sb	a3,-1(a1)
8000108c:	fee794e3          	bne	a5,a4,80001074 <_prtl10+0x88>
80001090:	01010113          	addi	sp,sp,16
80001094:	00008067          	ret
80001098:	03078793          	addi	a5,a5,48
8000109c:	f71ff06f          	j	8000100c <_prtl10+0x20>
800010a0:	fff78793          	addi	a5,a5,-1
800010a4:	fb5ff06f          	j	80001058 <_prtl10+0x6c>

800010a8 <_prtl8>:
800010a8:	ff010113          	addi	sp,sp,-16
800010ac:	00010223          	sb	zero,4(sp)
800010b0:	00100793          	li	a5,1
800010b4:	00c00693          	li	a3,12
800010b8:	00410713          	addi	a4,sp,4
800010bc:	00f70633          	add	a2,a4,a5
800010c0:	00757713          	andi	a4,a0,7
800010c4:	03070713          	addi	a4,a4,48
800010c8:	00e60023          	sb	a4,0(a2)
800010cc:	00178793          	addi	a5,a5,1
800010d0:	40355513          	srai	a0,a0,0x3
800010d4:	fed792e3          	bne	a5,a3,800010b8 <_prtl8+0x10>
800010d8:	00f14783          	lbu	a5,15(sp)
800010dc:	03000713          	li	a4,48
800010e0:	0337f793          	andi	a5,a5,51
800010e4:	00f107a3          	sb	a5,15(sp)
800010e8:	00b00793          	li	a5,11
800010ec:	00410693          	addi	a3,sp,4
800010f0:	00f686b3          	add	a3,a3,a5
800010f4:	0006c683          	lbu	a3,0(a3)
800010f8:	02e68a63          	beq	a3,a4,8000112c <_prtl8+0x84>
800010fc:	00079463          	bnez	a5,80001104 <_prtl8+0x5c>
80001100:	00100793          	li	a5,1
80001104:	fff00713          	li	a4,-1
80001108:	00410693          	addi	a3,sp,4
8000110c:	00f686b3          	add	a3,a3,a5
80001110:	0006c683          	lbu	a3,0(a3)
80001114:	fff78793          	addi	a5,a5,-1
80001118:	00158593          	addi	a1,a1,1
8000111c:	fed58fa3          	sb	a3,-1(a1)
80001120:	fee794e3          	bne	a5,a4,80001108 <_prtl8+0x60>
80001124:	01010113          	addi	sp,sp,16
80001128:	00008067          	ret
8000112c:	fff78793          	addi	a5,a5,-1
80001130:	fbdff06f          	j	800010ec <_prtl8+0x44>

80001134 <_prtl16>:
80001134:	ff010113          	addi	sp,sp,-16
80001138:	8000b6b7          	lui	a3,0x8000b
8000113c:	00010223          	sb	zero,4(sp)
80001140:	00100793          	li	a5,1
80001144:	f6068693          	addi	a3,a3,-160 # 8000af60 <start+0x2e0>
80001148:	00900613          	li	a2,9
8000114c:	00410713          	addi	a4,sp,4
80001150:	00f70833          	add	a6,a4,a5
80001154:	00f57713          	andi	a4,a0,15
80001158:	00e68733          	add	a4,a3,a4
8000115c:	00074703          	lbu	a4,0(a4)
80001160:	00178793          	addi	a5,a5,1
80001164:	40455513          	srai	a0,a0,0x4
80001168:	00e80023          	sb	a4,0(a6)
8000116c:	fec790e3          	bne	a5,a2,8000114c <_prtl16+0x18>
80001170:	00800793          	li	a5,8
80001174:	03000713          	li	a4,48
80001178:	00410693          	addi	a3,sp,4
8000117c:	00f686b3          	add	a3,a3,a5
80001180:	0006c683          	lbu	a3,0(a3)
80001184:	02e68a63          	beq	a3,a4,800011b8 <_prtl16+0x84>
80001188:	00079463          	bnez	a5,80001190 <_prtl16+0x5c>
8000118c:	00100793          	li	a5,1
80001190:	fff00713          	li	a4,-1
80001194:	00410693          	addi	a3,sp,4
80001198:	00f686b3          	add	a3,a3,a5
8000119c:	0006c683          	lbu	a3,0(a3)
800011a0:	fff78793          	addi	a5,a5,-1
800011a4:	00158593          	addi	a1,a1,1
800011a8:	fed58fa3          	sb	a3,-1(a1)
800011ac:	fee794e3          	bne	a5,a4,80001194 <_prtl16+0x60>
800011b0:	01010113          	addi	sp,sp,16
800011b4:	00008067          	ret
800011b8:	fff78793          	addi	a5,a5,-1
800011bc:	fbdff06f          	j	80001178 <_prtl16+0x44>

800011c0 <_prtX16>:
800011c0:	ff010113          	addi	sp,sp,-16
800011c4:	8000b6b7          	lui	a3,0x8000b
800011c8:	00010223          	sb	zero,4(sp)
800011cc:	00100793          	li	a5,1
800011d0:	f7468693          	addi	a3,a3,-140 # 8000af74 <start+0x2f4>
800011d4:	00900613          	li	a2,9
800011d8:	00410713          	addi	a4,sp,4
800011dc:	00f70833          	add	a6,a4,a5
800011e0:	00f57713          	andi	a4,a0,15
800011e4:	00e68733          	add	a4,a3,a4
800011e8:	00074703          	lbu	a4,0(a4)
800011ec:	00178793          	addi	a5,a5,1
800011f0:	40455513          	srai	a0,a0,0x4
800011f4:	00e80023          	sb	a4,0(a6)
800011f8:	fec790e3          	bne	a5,a2,800011d8 <_prtX16+0x18>
800011fc:	00800793          	li	a5,8
80001200:	03000713          	li	a4,48
80001204:	00410693          	addi	a3,sp,4
80001208:	00f686b3          	add	a3,a3,a5
8000120c:	0006c683          	lbu	a3,0(a3)
80001210:	02e68a63          	beq	a3,a4,80001244 <_prtX16+0x84>
80001214:	00079463          	bnez	a5,8000121c <_prtX16+0x5c>
80001218:	00100793          	li	a5,1
8000121c:	fff00713          	li	a4,-1
80001220:	00410693          	addi	a3,sp,4
80001224:	00f686b3          	add	a3,a3,a5
80001228:	0006c683          	lbu	a3,0(a3)
8000122c:	fff78793          	addi	a5,a5,-1
80001230:	00158593          	addi	a1,a1,1
80001234:	fed58fa3          	sb	a3,-1(a1)
80001238:	fee794e3          	bne	a5,a4,80001220 <_prtX16+0x60>
8000123c:	01010113          	addi	sp,sp,16
80001240:	00008067          	ret
80001244:	fff78793          	addi	a5,a5,-1
80001248:	fbdff06f          	j	80001204 <_prtX16+0x44>

8000124c <_prtl2>:
8000124c:	fd010113          	addi	sp,sp,-48
80001250:	00010623          	sb	zero,12(sp)
80001254:	00100793          	li	a5,1
80001258:	02100693          	li	a3,33
8000125c:	00c10713          	addi	a4,sp,12
80001260:	00f70633          	add	a2,a4,a5
80001264:	00157713          	andi	a4,a0,1
80001268:	03070713          	addi	a4,a4,48
8000126c:	00e60023          	sb	a4,0(a2)
80001270:	00178793          	addi	a5,a5,1
80001274:	40155513          	srai	a0,a0,0x1
80001278:	fed792e3          	bne	a5,a3,8000125c <_prtl2+0x10>
8000127c:	02000793          	li	a5,32
80001280:	03000713          	li	a4,48
80001284:	00c10693          	addi	a3,sp,12
80001288:	00f686b3          	add	a3,a3,a5
8000128c:	0006c683          	lbu	a3,0(a3)
80001290:	02e68a63          	beq	a3,a4,800012c4 <_prtl2+0x78>
80001294:	00079463          	bnez	a5,8000129c <_prtl2+0x50>
80001298:	00100793          	li	a5,1
8000129c:	fff00713          	li	a4,-1
800012a0:	00c10693          	addi	a3,sp,12
800012a4:	00f686b3          	add	a3,a3,a5
800012a8:	0006c683          	lbu	a3,0(a3)
800012ac:	fff78793          	addi	a5,a5,-1
800012b0:	00158593          	addi	a1,a1,1
800012b4:	fed58fa3          	sb	a3,-1(a1)
800012b8:	fee794e3          	bne	a5,a4,800012a0 <_prtl2+0x54>
800012bc:	03010113          	addi	sp,sp,48
800012c0:	00008067          	ret
800012c4:	fff78793          	addi	a5,a5,-1
800012c8:	fbdff06f          	j	80001284 <_prtl2+0x38>

800012cc <_doprnt>:
800012cc:	fb010113          	addi	sp,sp,-80
800012d0:	04812423          	sw	s0,72(sp)
800012d4:	03512a23          	sw	s5,52(sp)
800012d8:	03612823          	sw	s6,48(sp)
800012dc:	03912223          	sw	s9,36(sp)
800012e0:	04112623          	sw	ra,76(sp)
800012e4:	04912223          	sw	s1,68(sp)
800012e8:	05212023          	sw	s2,64(sp)
800012ec:	03312e23          	sw	s3,60(sp)
800012f0:	03412c23          	sw	s4,56(sp)
800012f4:	03712623          	sw	s7,44(sp)
800012f8:	03812423          	sw	s8,40(sp)
800012fc:	03a12023          	sw	s10,32(sp)
80001300:	00050b13          	mv	s6,a0
80001304:	00058413          	mv	s0,a1
80001308:	00060a93          	mv	s5,a2
8000130c:	02500c93          	li	s9,37
80001310:	000b4503          	lbu	a0,0(s6)
80001314:	001b0493          	addi	s1,s6,1
80001318:	01951e63          	bne	a0,s9,80001334 <_doprnt+0x68>
8000131c:	001b4c03          	lbu	s8,1(s6)
80001320:	039c1263          	bne	s8,s9,80001344 <_doprnt+0x78>
80001324:	02500513          	li	a0,37
80001328:	002b0b13          	addi	s6,s6,2
8000132c:	000a80e7          	jalr	s5
80001330:	fe1ff06f          	j	80001310 <_doprnt+0x44>
80001334:	3a050063          	beqz	a0,800016d4 <_doprnt+0x408>
80001338:	000a80e7          	jalr	s5
8000133c:	00048b13          	mv	s6,s1
80001340:	fd1ff06f          	j	80001310 <_doprnt+0x44>
80001344:	02d00793          	li	a5,45
80001348:	00fc1463          	bne	s8,a5,80001350 <_doprnt+0x84>
8000134c:	002b0493          	addi	s1,s6,2
80001350:	0004cb83          	lbu	s7,0(s1)
80001354:	03000793          	li	a5,48
80001358:	06fb9863          	bne	s7,a5,800013c8 <_doprnt+0xfc>
8000135c:	00148493          	addi	s1,s1,1
80001360:	0004c703          	lbu	a4,0(s1)
80001364:	02a00793          	li	a5,42
80001368:	08f71863          	bne	a4,a5,800013f8 <_doprnt+0x12c>
8000136c:	00042983          	lw	s3,0(s0)
80001370:	00148493          	addi	s1,s1,1
80001374:	00440413          	addi	s0,s0,4
80001378:	0004c703          	lbu	a4,0(s1)
8000137c:	02e00793          	li	a5,46
80001380:	00000913          	li	s2,0
80001384:	08f71863          	bne	a4,a5,80001414 <_doprnt+0x148>
80001388:	0014c703          	lbu	a4,1(s1)
8000138c:	02a00793          	li	a5,42
80001390:	06f70c63          	beq	a4,a5,80001408 <_doprnt+0x13c>
80001394:	00148493          	addi	s1,s1,1
80001398:	00900693          	li	a3,9
8000139c:	00a00593          	li	a1,10
800013a0:	0004c703          	lbu	a4,0(s1)
800013a4:	00148613          	addi	a2,s1,1
800013a8:	fd070793          	addi	a5,a4,-48
800013ac:	0ff7f793          	zext.b	a5,a5
800013b0:	06f6e263          	bltu	a3,a5,80001414 <_doprnt+0x148>
800013b4:	02b90933          	mul	s2,s2,a1
800013b8:	00060493          	mv	s1,a2
800013bc:	00e90933          	add	s2,s2,a4
800013c0:	fd090913          	addi	s2,s2,-48
800013c4:	fddff06f          	j	800013a0 <_doprnt+0xd4>
800013c8:	02000b93          	li	s7,32
800013cc:	f95ff06f          	j	80001360 <_doprnt+0x94>
800013d0:	02b989b3          	mul	s3,s3,a1
800013d4:	00060493          	mv	s1,a2
800013d8:	00e989b3          	add	s3,s3,a4
800013dc:	fd098993          	addi	s3,s3,-48
800013e0:	0004c703          	lbu	a4,0(s1)
800013e4:	00148613          	addi	a2,s1,1
800013e8:	fd070793          	addi	a5,a4,-48
800013ec:	0ff7f793          	zext.b	a5,a5
800013f0:	fef6f0e3          	bgeu	a3,a5,800013d0 <_doprnt+0x104>
800013f4:	f85ff06f          	j	80001378 <_doprnt+0xac>
800013f8:	00000993          	li	s3,0
800013fc:	00900693          	li	a3,9
80001400:	00a00593          	li	a1,10
80001404:	fddff06f          	j	800013e0 <_doprnt+0x114>
80001408:	00042903          	lw	s2,0(s0)
8000140c:	00248493          	addi	s1,s1,2
80001410:	00440413          	addi	s0,s0,4
80001414:	0004c503          	lbu	a0,0(s1)
80001418:	00148b13          	addi	s6,s1,1
8000141c:	04051263          	bnez	a0,80001460 <_doprnt+0x194>
80001420:	04812403          	lw	s0,72(sp)
80001424:	04c12083          	lw	ra,76(sp)
80001428:	04412483          	lw	s1,68(sp)
8000142c:	04012903          	lw	s2,64(sp)
80001430:	03c12983          	lw	s3,60(sp)
80001434:	03812a03          	lw	s4,56(sp)
80001438:	03012b03          	lw	s6,48(sp)
8000143c:	02c12b83          	lw	s7,44(sp)
80001440:	02812c03          	lw	s8,40(sp)
80001444:	02412c83          	lw	s9,36(sp)
80001448:	02012d03          	lw	s10,32(sp)
8000144c:	000a8793          	mv	a5,s5
80001450:	03412a83          	lw	s5,52(sp)
80001454:	02500513          	li	a0,37
80001458:	05010113          	addi	sp,sp,80
8000145c:	00078067          	jr	a5
80001460:	07800793          	li	a5,120
80001464:	00a7ee63          	bltu	a5,a0,80001480 <_doprnt+0x1b4>
80001468:	06100793          	li	a5,97
8000146c:	02a7e263          	bltu	a5,a0,80001490 <_doprnt+0x1c4>
80001470:	04800793          	li	a5,72
80001474:	18f50463          	beq	a0,a5,800015fc <_doprnt+0x330>
80001478:	05800793          	li	a5,88
8000147c:	14f50c63          	beq	a0,a5,800015d4 <_doprnt+0x308>
80001480:	000a80e7          	jalr	s5
80001484:	00040a13          	mv	s4,s0
80001488:	00000493          	li	s1,0
8000148c:	0480006f          	j	800014d4 <_doprnt+0x208>
80001490:	f9e50793          	addi	a5,a0,-98
80001494:	0ff7f793          	zext.b	a5,a5
80001498:	01600713          	li	a4,22
8000149c:	fef762e3          	bltu	a4,a5,80001480 <_doprnt+0x1b4>
800014a0:	8000c737          	lui	a4,0x8000c
800014a4:	00279793          	slli	a5,a5,0x2
800014a8:	52c70713          	addi	a4,a4,1324 # 8000c52c <_ctype_+0x84>
800014ac:	00e787b3          	add	a5,a5,a4
800014b0:	0007a783          	lw	a5,0(a5)
800014b4:	00078067          	jr	a5
800014b8:	00042783          	lw	a5,0(s0)
800014bc:	00440a13          	addi	s4,s0,4
800014c0:	000106a3          	sb	zero,13(sp)
800014c4:	00f10623          	sb	a5,12(sp)
800014c8:	00000493          	li	s1,0
800014cc:	00000913          	li	s2,0
800014d0:	02000b93          	li	s7,32
800014d4:	00c10413          	addi	s0,sp,12
800014d8:	0180006f          	j	800014f0 <_doprnt+0x224>
800014dc:	00440a13          	addi	s4,s0,4
800014e0:	00042403          	lw	s0,0(s0)
800014e4:	00000493          	li	s1,0
800014e8:	02000b93          	li	s7,32
800014ec:	14040e63          	beqz	s0,80001648 <_doprnt+0x37c>
800014f0:	00000d13          	li	s10,0
800014f4:	01a407b3          	add	a5,s0,s10
800014f8:	0007c783          	lbu	a5,0(a5)
800014fc:	14079c63          	bnez	a5,80001654 <_doprnt+0x388>
80001500:	05000793          	li	a5,80
80001504:	0137f463          	bgeu	a5,s3,8000150c <_doprnt+0x240>
80001508:	00000993          	li	s3,0
8000150c:	fff90793          	addi	a5,s2,-1
80001510:	04f00713          	li	a4,79
80001514:	14f77463          	bgeu	a4,a5,8000165c <_doprnt+0x390>
80001518:	14099863          	bnez	s3,80001668 <_doprnt+0x39c>
8000151c:	02d00793          	li	a5,45
80001520:	14f48c63          	beq	s1,a5,80001678 <_doprnt+0x3ac>
80001524:	02d00793          	li	a5,45
80001528:	02fc0263          	beq	s8,a5,8000154c <_doprnt+0x280>
8000152c:	00000913          	li	s2,0
80001530:	15394e63          	blt	s2,s3,8000168c <_doprnt+0x3c0>
80001534:	02d00793          	li	a5,45
80001538:	00f49a63          	bne	s1,a5,8000154c <_doprnt+0x280>
8000153c:	02000793          	li	a5,32
80001540:	00fb9663          	bne	s7,a5,8000154c <_doprnt+0x280>
80001544:	02d00513          	li	a0,45
80001548:	000a80e7          	jalr	s5
8000154c:	00000493          	li	s1,0
80001550:	15a49663          	bne	s1,s10,8000169c <_doprnt+0x3d0>
80001554:	02d00793          	li	a5,45
80001558:	16fc1463          	bne	s8,a5,800016c0 <_doprnt+0x3f4>
8000155c:	00000413          	li	s0,0
80001560:	15c0006f          	j	800016bc <_doprnt+0x3f0>
80001564:	00042503          	lw	a0,0(s0)
80001568:	00c10593          	addi	a1,sp,12
8000156c:	00440a13          	addi	s4,s0,4
80001570:	41f55493          	srai	s1,a0,0x1f
80001574:	02d4f493          	andi	s1,s1,45
80001578:	a75ff0ef          	jal	80000fec <_prtl10>
8000157c:	f59ff06f          	j	800014d4 <_doprnt+0x208>
80001580:	00042503          	lw	a0,0(s0)
80001584:	00440a13          	addi	s4,s0,4
80001588:	00000413          	li	s0,0
8000158c:	00055a63          	bgez	a0,800015a0 <_doprnt+0x2d4>
80001590:	88ca77b7          	lui	a5,0x88ca7
80001594:	c0078793          	addi	a5,a5,-1024 # 88ca6c00 <nnames+0x8c47bac>
80001598:	00f50533          	add	a0,a0,a5
8000159c:	00200413          	li	s0,2
800015a0:	00c10593          	addi	a1,sp,12
800015a4:	a49ff0ef          	jal	80000fec <_prtl10>
800015a8:	00c14783          	lbu	a5,12(sp)
800015ac:	00f40433          	add	s0,s0,a5
800015b0:	00810623          	sb	s0,12(sp)
800015b4:	00000493          	li	s1,0
800015b8:	00000913          	li	s2,0
800015bc:	f19ff06f          	j	800014d4 <_doprnt+0x208>
800015c0:	00042503          	lw	a0,0(s0)
800015c4:	00c10593          	addi	a1,sp,12
800015c8:	00440a13          	addi	s4,s0,4
800015cc:	addff0ef          	jal	800010a8 <_prtl8>
800015d0:	fe5ff06f          	j	800015b4 <_doprnt+0x2e8>
800015d4:	00042503          	lw	a0,0(s0)
800015d8:	00440a13          	addi	s4,s0,4
800015dc:	00c10593          	addi	a1,sp,12
800015e0:	be1ff0ef          	jal	800011c0 <_prtX16>
800015e4:	fd1ff06f          	j	800015b4 <_doprnt+0x2e8>
800015e8:	00042503          	lw	a0,0(s0)
800015ec:	00440a13          	addi	s4,s0,4
800015f0:	00c10593          	addi	a1,sp,12
800015f4:	b41ff0ef          	jal	80001134 <_prtl16>
800015f8:	fbdff06f          	j	800015b4 <_doprnt+0x2e8>
800015fc:	00042503          	lw	a0,0(s0)
80001600:	00c10593          	addi	a1,sp,12
80001604:	00840a13          	addi	s4,s0,8
80001608:	bb9ff0ef          	jal	800011c0 <_prtX16>
8000160c:	00442503          	lw	a0,4(s0)
80001610:	01410593          	addi	a1,sp,20
80001614:	fcdff06f          	j	800015e0 <_doprnt+0x314>
80001618:	00042503          	lw	a0,0(s0)
8000161c:	00c10593          	addi	a1,sp,12
80001620:	00840a13          	addi	s4,s0,8
80001624:	b11ff0ef          	jal	80001134 <_prtl16>
80001628:	00442503          	lw	a0,4(s0)
8000162c:	01410593          	addi	a1,sp,20
80001630:	fc5ff06f          	j	800015f4 <_doprnt+0x328>
80001634:	00042503          	lw	a0,0(s0)
80001638:	00c10593          	addi	a1,sp,12
8000163c:	00440a13          	addi	s4,s0,4
80001640:	c0dff0ef          	jal	8000124c <_prtl2>
80001644:	f71ff06f          	j	800015b4 <_doprnt+0x2e8>
80001648:	8000b437          	lui	s0,0x8000b
8000164c:	f8840413          	addi	s0,s0,-120 # 8000af88 <start+0x308>
80001650:	ea1ff06f          	j	800014f0 <_doprnt+0x224>
80001654:	001d0d13          	addi	s10,s10,1
80001658:	e9dff06f          	j	800014f4 <_doprnt+0x228>
8000165c:	01a95463          	bge	s2,s10,80001664 <_doprnt+0x398>
80001660:	00090d13          	mv	s10,s2
80001664:	00098463          	beqz	s3,8000166c <_doprnt+0x3a0>
80001668:	41a989b3          	sub	s3,s3,s10
8000166c:	02d00793          	li	a5,45
80001670:	eaf49ae3          	bne	s1,a5,80001524 <_doprnt+0x258>
80001674:	fff98993          	addi	s3,s3,-1
80001678:	03000793          	li	a5,48
8000167c:	04fb9663          	bne	s7,a5,800016c8 <_doprnt+0x3fc>
80001680:	02d00513          	li	a0,45
80001684:	000a80e7          	jalr	s5
80001688:	e9dff06f          	j	80001524 <_doprnt+0x258>
8000168c:	000b8513          	mv	a0,s7
80001690:	000a80e7          	jalr	s5
80001694:	00190913          	addi	s2,s2,1
80001698:	e99ff06f          	j	80001530 <_doprnt+0x264>
8000169c:	009407b3          	add	a5,s0,s1
800016a0:	0007c503          	lbu	a0,0(a5)
800016a4:	00148493          	addi	s1,s1,1
800016a8:	000a80e7          	jalr	s5
800016ac:	ea5ff06f          	j	80001550 <_doprnt+0x284>
800016b0:	000b8513          	mv	a0,s7
800016b4:	000a80e7          	jalr	s5
800016b8:	00140413          	addi	s0,s0,1
800016bc:	ff344ae3          	blt	s0,s3,800016b0 <_doprnt+0x3e4>
800016c0:	000a0413          	mv	s0,s4
800016c4:	c4dff06f          	j	80001310 <_doprnt+0x44>
800016c8:	02d00793          	li	a5,45
800016cc:	e6fc0ce3          	beq	s8,a5,80001544 <_doprnt+0x278>
800016d0:	e5dff06f          	j	8000152c <_doprnt+0x260>
800016d4:	04c12083          	lw	ra,76(sp)
800016d8:	04812403          	lw	s0,72(sp)
800016dc:	04412483          	lw	s1,68(sp)
800016e0:	04012903          	lw	s2,64(sp)
800016e4:	03c12983          	lw	s3,60(sp)
800016e8:	03812a03          	lw	s4,56(sp)
800016ec:	03412a83          	lw	s5,52(sp)
800016f0:	03012b03          	lw	s6,48(sp)
800016f4:	02c12b83          	lw	s7,44(sp)
800016f8:	02812c03          	lw	s8,40(sp)
800016fc:	02412c83          	lw	s9,36(sp)
80001700:	02012d03          	lw	s10,32(sp)
80001704:	05010113          	addi	sp,sp,80
80001708:	00008067          	ret

8000170c <_doscan>:
8000170c:	f7010113          	addi	sp,sp,-144
80001710:	09212023          	sw	s2,128(sp)
80001714:	07412c23          	sw	s4,120(sp)
80001718:	07712623          	sw	s7,108(sp)
8000171c:	07812423          	sw	s8,104(sp)
80001720:	08112623          	sw	ra,140(sp)
80001724:	08812423          	sw	s0,136(sp)
80001728:	08912223          	sw	s1,132(sp)
8000172c:	07312e23          	sw	s3,124(sp)
80001730:	07512a23          	sw	s5,116(sp)
80001734:	07612823          	sw	s6,112(sp)
80001738:	07912223          	sw	s9,100(sp)
8000173c:	07a12023          	sw	s10,96(sp)
80001740:	05b12e23          	sw	s11,92(sp)
80001744:	00058c13          	mv	s8,a1
80001748:	00060913          	mv	s2,a2
8000174c:	00068a13          	mv	s4,a3
80001750:	00e12223          	sw	a4,4(sp)
80001754:	00f12423          	sw	a5,8(sp)
80001758:	00000b93          	li	s7,0
8000175c:	00054d83          	lbu	s11,0(a0)
80001760:	02000793          	li	a5,32
80001764:	00150413          	addi	s0,a0,1
80001768:	40fd8e63          	beq	s11,a5,80001b84 <_doscan+0x478>
8000176c:	05b7e063          	bltu	a5,s11,800017ac <_doscan+0xa0>
80001770:	1c0d8863          	beqz	s11,80001940 <_doscan+0x234>
80001774:	ff7d8793          	addi	a5,s11,-9
80001778:	0ff7f793          	zext.b	a5,a5
8000177c:	00100713          	li	a4,1
80001780:	40f77263          	bgeu	a4,a5,80001b84 <_doscan+0x478>
80001784:	00812583          	lw	a1,8(sp)
80001788:	00412503          	lw	a0,4(sp)
8000178c:	000900e7          	jalr	s2
80001790:	40ad8e63          	beq	s11,a0,80001bac <_doscan+0x4a0>
80001794:	ffe00793          	li	a5,-2
80001798:	1af50263          	beq	a0,a5,8000193c <_doscan+0x230>
8000179c:	00812583          	lw	a1,8(sp)
800017a0:	00412503          	lw	a0,4(sp)
800017a4:	000a00e7          	jalr	s4
800017a8:	1980006f          	j	80001940 <_doscan+0x234>
800017ac:	02500793          	li	a5,37
800017b0:	fcfd9ae3          	bne	s11,a5,80001784 <_doscan+0x78>
800017b4:	00154d83          	lbu	s11,1(a0)
800017b8:	00250413          	addi	s0,a0,2
800017bc:	fcfd84e3          	beq	s11,a5,80001784 <_doscan+0x78>
800017c0:	02a00793          	li	a5,42
800017c4:	0afd8463          	beq	s11,a5,8000186c <_doscan+0x160>
800017c8:	000c0993          	mv	s3,s8
800017cc:	004c0c13          	addi	s8,s8,4
800017d0:	8000ccb7          	lui	s9,0x8000c
800017d4:	00000493          	li	s1,0
800017d8:	4a9c8c93          	addi	s9,s9,1193 # 8000c4a9 <_ctype_+0x1>
800017dc:	00a00693          	li	a3,10
800017e0:	019d8733          	add	a4,s11,s9
800017e4:	00074703          	lbu	a4,0(a4)
800017e8:	00477713          	andi	a4,a4,4
800017ec:	08071863          	bnez	a4,8000187c <_doscan+0x170>
800017f0:	00049663          	bnez	s1,800017fc <_doscan+0xf0>
800017f4:	000074b7          	lui	s1,0x7
800017f8:	53048493          	addi	s1,s1,1328 # 7530 <_start-0x7fff8ad0>
800017fc:	06c00713          	li	a4,108
80001800:	08ed9a63          	bne	s11,a4,80001894 <_doscan+0x188>
80001804:	00044d83          	lbu	s11,0(s0)
80001808:	00200a93          	li	s5,2
8000180c:	00140413          	addi	s0,s0,1
80001810:	01bc8733          	add	a4,s9,s11
80001814:	00074703          	lbu	a4,0(a4)
80001818:	00177713          	andi	a4,a4,1
8000181c:	10070e63          	beqz	a4,80001938 <_doscan+0x22c>
80001820:	020d8d93          	addi	s11,s11,32
80001824:	00200a93          	li	s5,2
80001828:	06f00713          	li	a4,111
8000182c:	20ed8e63          	beq	s11,a4,80001a48 <_doscan+0x33c>
80001830:	15b74863          	blt	a4,s11,80001980 <_doscan+0x274>
80001834:	fa5d8713          	addi	a4,s11,-91
80001838:	ff777713          	andi	a4,a4,-9
8000183c:	00a00b13          	li	s6,10
80001840:	14071c63          	bnez	a4,80001998 <_doscan+0x28c>
80001844:	00000a93          	li	s5,0
80001848:	00098463          	beqz	s3,80001850 <_doscan+0x144>
8000184c:	0009aa83          	lw	s5,0(s3)
80001850:	06300713          	li	a4,99
80001854:	36ed9e63          	bne	s11,a4,80001bd0 <_doscan+0x4c4>
80001858:	00007737          	lui	a4,0x7
8000185c:	53070713          	addi	a4,a4,1328 # 7530 <_start-0x7fff8ad0>
80001860:	16e48463          	beq	s1,a4,800019c8 <_doscan+0x2bc>
80001864:	00000c93          	li	s9,0
80001868:	3700006f          	j	80001bd8 <_doscan+0x4cc>
8000186c:	00254d83          	lbu	s11,2(a0)
80001870:	00350413          	addi	s0,a0,3
80001874:	00000993          	li	s3,0
80001878:	f59ff06f          	j	800017d0 <_doscan+0xc4>
8000187c:	02d487b3          	mul	a5,s1,a3
80001880:	00140413          	addi	s0,s0,1
80001884:	01b787b3          	add	a5,a5,s11
80001888:	fd078493          	addi	s1,a5,-48
8000188c:	fff44d83          	lbu	s11,-1(s0)
80001890:	f51ff06f          	j	800017e0 <_doscan+0xd4>
80001894:	06800713          	li	a4,104
80001898:	00ed9a63          	bne	s11,a4,800018ac <_doscan+0x1a0>
8000189c:	00044d83          	lbu	s11,0(s0)
800018a0:	00000a93          	li	s5,0
800018a4:	00140413          	addi	s0,s0,1
800018a8:	f69ff06f          	j	80001810 <_doscan+0x104>
800018ac:	05b00713          	li	a4,91
800018b0:	00100a93          	li	s5,1
800018b4:	f4ed9ee3          	bne	s11,a4,80001810 <_doscan+0x104>
800018b8:	00044683          	lbu	a3,0(s0)
800018bc:	05e00713          	li	a4,94
800018c0:	00000613          	li	a2,0
800018c4:	00e69663          	bne	a3,a4,800018d0 <_doscan+0x1c4>
800018c8:	00140413          	addi	s0,s0,1
800018cc:	00100613          	li	a2,1
800018d0:	8000e6b7          	lui	a3,0x8000e
800018d4:	87468713          	addi	a4,a3,-1932 # 8000d874 <_sctab>
800018d8:	08070813          	addi	a6,a4,128
800018dc:	87468693          	addi	a3,a3,-1932
800018e0:	00074503          	lbu	a0,0(a4)
800018e4:	00256593          	ori	a1,a0,2
800018e8:	00060463          	beqz	a2,800018f0 <_doscan+0x1e4>
800018ec:	0fd57593          	andi	a1,a0,253
800018f0:	00b70023          	sb	a1,0(a4)
800018f4:	00170713          	addi	a4,a4,1
800018f8:	fee814e3          	bne	a6,a4,800018e0 <_doscan+0x1d4>
800018fc:	05d00813          	li	a6,93
80001900:	00044703          	lbu	a4,0(s0)
80001904:	00140413          	addi	s0,s0,1
80001908:	07f77593          	andi	a1,a4,127
8000190c:	01059663          	bne	a1,a6,80001918 <_doscan+0x20c>
80001910:	00100a93          	li	s5,1
80001914:	efdff06f          	j	80001810 <_doscan+0x104>
80001918:	00e685b3          	add	a1,a3,a4
8000191c:	0005c503          	lbu	a0,0(a1)
80001920:	0fd57593          	andi	a1,a0,253
80001924:	00060463          	beqz	a2,8000192c <_doscan+0x220>
80001928:	00256593          	ori	a1,a0,2
8000192c:	00e68733          	add	a4,a3,a4
80001930:	00b70023          	sb	a1,0(a4)
80001934:	fcdff06f          	j	80001900 <_doscan+0x1f4>
80001938:	ee0d98e3          	bnez	s11,80001828 <_doscan+0x11c>
8000193c:	fff00b93          	li	s7,-1
80001940:	08c12083          	lw	ra,140(sp)
80001944:	08812403          	lw	s0,136(sp)
80001948:	08412483          	lw	s1,132(sp)
8000194c:	08012903          	lw	s2,128(sp)
80001950:	07c12983          	lw	s3,124(sp)
80001954:	07812a03          	lw	s4,120(sp)
80001958:	07412a83          	lw	s5,116(sp)
8000195c:	07012b03          	lw	s6,112(sp)
80001960:	06812c03          	lw	s8,104(sp)
80001964:	06412c83          	lw	s9,100(sp)
80001968:	06012d03          	lw	s10,96(sp)
8000196c:	05c12d83          	lw	s11,92(sp)
80001970:	000b8513          	mv	a0,s7
80001974:	06c12b83          	lw	s7,108(sp)
80001978:	09010113          	addi	sp,sp,144
8000197c:	00008067          	ret
80001980:	07300713          	li	a4,115
80001984:	24ed8263          	beq	s11,a4,80001bc8 <_doscan+0x4bc>
80001988:	07800713          	li	a4,120
8000198c:	00a00b13          	li	s6,10
80001990:	00ed9463          	bne	s11,a4,80001998 <_doscan+0x28c>
80001994:	01000b13          	li	s6,16
80001998:	00a00d13          	li	s10,10
8000199c:	02000d93          	li	s11,32
800019a0:	00812583          	lw	a1,8(sp)
800019a4:	00412503          	lw	a0,4(sp)
800019a8:	000900e7          	jalr	s2
800019ac:	0ff57513          	zext.b	a0,a0
800019b0:	00800693          	li	a3,8
800019b4:	08ad6e63          	bltu	s10,a0,80001a50 <_doscan+0x344>
800019b8:	fea6e4e3          	bltu	a3,a0,800019a0 <_doscan+0x294>
800019bc:	00000613          	li	a2,0
800019c0:	01010d13          	addi	s10,sp,16
800019c4:	0bc0006f          	j	80001a80 <_doscan+0x374>
800019c8:	00100493          	li	s1,1
800019cc:	e99ff06f          	j	80001864 <_doscan+0x158>
800019d0:	000c8663          	beqz	s9,800019dc <_doscan+0x2d0>
800019d4:	00ac8023          	sb	a0,0(s9)
800019d8:	001c8c93          	addi	s9,s9,1
800019dc:	fff48493          	addi	s1,s1,-1
800019e0:	02905c63          	blez	s1,80001a18 <_doscan+0x30c>
800019e4:	00812583          	lw	a1,8(sp)
800019e8:	00412503          	lw	a0,4(sp)
800019ec:	000900e7          	jalr	s2
800019f0:	ffe00613          	li	a2,-2
800019f4:	04c50663          	beq	a0,a2,80001a40 <_doscan+0x334>
800019f8:	00ab0733          	add	a4,s6,a0
800019fc:	00074703          	lbu	a4,0(a4)
80001a00:	01a77733          	and	a4,a4,s10
80001a04:	fc0706e3          	beqz	a4,800019d0 <_doscan+0x2c4>
80001a08:	00905863          	blez	s1,80001a18 <_doscan+0x30c>
80001a0c:	00812583          	lw	a1,8(sp)
80001a10:	00412503          	lw	a0,4(sp)
80001a14:	000a00e7          	jalr	s4
80001a18:	00000793          	li	a5,0
80001a1c:	000c8c63          	beqz	s9,80001a34 <_doscan+0x328>
80001a20:	015c8a63          	beq	s9,s5,80001a34 <_doscan+0x328>
80001a24:	06300713          	li	a4,99
80001a28:	00ed8463          	beq	s11,a4,80001a30 <_doscan+0x324>
80001a2c:	000c8023          	sb	zero,0(s9)
80001a30:	14099263          	bnez	s3,80001b74 <_doscan+0x468>
80001a34:	16078c63          	beqz	a5,80001bac <_doscan+0x4a0>
80001a38:	f00b94e3          	bnez	s7,80001940 <_doscan+0x234>
80001a3c:	f01ff06f          	j	8000193c <_doscan+0x230>
80001a40:	00100793          	li	a5,1
80001a44:	fd9ff06f          	j	80001a1c <_doscan+0x310>
80001a48:	00800b13          	li	s6,8
80001a4c:	f4dff06f          	j	80001998 <_doscan+0x28c>
80001a50:	f5b508e3          	beq	a0,s11,800019a0 <_doscan+0x294>
80001a54:	02d00713          	li	a4,45
80001a58:	fff48d93          	addi	s11,s1,-1
80001a5c:	02e51663          	bne	a0,a4,80001a88 <_doscan+0x37c>
80001a60:	00a10823          	sb	a0,16(sp)
80001a64:	00812583          	lw	a1,8(sp)
80001a68:	00412503          	lw	a0,4(sp)
80001a6c:	000d8493          	mv	s1,s11
80001a70:	01110d13          	addi	s10,sp,17
80001a74:	000900e7          	jalr	s2
80001a78:	0ff57513          	zext.b	a0,a0
80001a7c:	00100613          	li	a2,1
80001a80:	00000d93          	li	s11,0
80001a84:	0a00006f          	j	80001b24 <_doscan+0x418>
80001a88:	02b00713          	li	a4,43
80001a8c:	f2e518e3          	bne	a0,a4,800019bc <_doscan+0x2b0>
80001a90:	00812583          	lw	a1,8(sp)
80001a94:	00412503          	lw	a0,4(sp)
80001a98:	000d8493          	mv	s1,s11
80001a9c:	000900e7          	jalr	s2
80001aa0:	0ff57513          	zext.b	a0,a0
80001aa4:	f19ff06f          	j	800019bc <_doscan+0x2b0>
80001aa8:	00ac86b3          	add	a3,s9,a0
80001aac:	0006c683          	lbu	a3,0(a3)
80001ab0:	0046f693          	andi	a3,a3,4
80001ab4:	00069463          	bnez	a3,80001abc <_doscan+0x3b0>
80001ab8:	091b1063          	bne	s6,a7,80001b38 <_doscan+0x42c>
80001abc:	fdf57693          	andi	a3,a0,-33
80001ac0:	fbf68693          	addi	a3,a3,-65
80001ac4:	0ff6f693          	zext.b	a3,a3
80001ac8:	06d86863          	bltu	a6,a3,80001b38 <_doscan+0x42c>
80001acc:	003d9693          	slli	a3,s11,0x3
80001ad0:	006b0c63          	beq	s6,t1,80001ae8 <_doscan+0x3dc>
80001ad4:	00a00593          	li	a1,10
80001ad8:	004d9693          	slli	a3,s11,0x4
80001adc:	00bb1663          	bne	s6,a1,80001ae8 <_doscan+0x3dc>
80001ae0:	030d86b3          	mul	a3,s11,a6
80001ae4:	00169693          	slli	a3,a3,0x1
80001ae8:	f9f50593          	addi	a1,a0,-97
80001aec:	0ff5f593          	zext.b	a1,a1
80001af0:	fa950d93          	addi	s11,a0,-87
80001af4:	00b87463          	bgeu	a6,a1,80001afc <_doscan+0x3f0>
80001af8:	fc950d93          	addi	s11,a0,-55
80001afc:	00ad0023          	sb	a0,0(s10)
80001b00:	00812583          	lw	a1,8(sp)
80001b04:	00412503          	lw	a0,4(sp)
80001b08:	0ffdfd93          	zext.b	s11,s11
80001b0c:	00c12623          	sw	a2,12(sp)
80001b10:	00dd8db3          	add	s11,s11,a3
80001b14:	000900e7          	jalr	s2
80001b18:	00c12603          	lw	a2,12(sp)
80001b1c:	001d0d13          	addi	s10,s10,1
80001b20:	0ff57513          	zext.b	a0,a0
80001b24:	fff48493          	addi	s1,s1,-1
80001b28:	01000893          	li	a7,16
80001b2c:	00500813          	li	a6,5
80001b30:	00800313          	li	t1,8
80001b34:	f604dae3          	bgez	s1,80001aa8 <_doscan+0x39c>
80001b38:	00060463          	beqz	a2,80001b40 <_doscan+0x434>
80001b3c:	41b00db3          	neg	s11,s11
80001b40:	00812583          	lw	a1,8(sp)
80001b44:	00412503          	lw	a0,4(sp)
80001b48:	000a00e7          	jalr	s4
80001b4c:	06098063          	beqz	s3,80001bac <_doscan+0x4a0>
80001b50:	01010793          	addi	a5,sp,16
80001b54:	04fd0c63          	beq	s10,a5,80001bac <_doscan+0x4a0>
80001b58:	00100713          	li	a4,1
80001b5c:	0009a783          	lw	a5,0(s3)
80001b60:	00ea8e63          	beq	s5,a4,80001b7c <_doscan+0x470>
80001b64:	00200713          	li	a4,2
80001b68:	00ea8a63          	beq	s5,a4,80001b7c <_doscan+0x470>
80001b6c:	01b79023          	sh	s11,0(a5)
80001b70:	00000793          	li	a5,0
80001b74:	001b8b93          	addi	s7,s7,1
80001b78:	ebdff06f          	j	80001a34 <_doscan+0x328>
80001b7c:	01b7a023          	sw	s11,0(a5)
80001b80:	ff1ff06f          	j	80001b70 <_doscan+0x464>
80001b84:	00a00a93          	li	s5,10
80001b88:	00800b13          	li	s6,8
80001b8c:	02000993          	li	s3,32
80001b90:	00812583          	lw	a1,8(sp)
80001b94:	00412503          	lw	a0,4(sp)
80001b98:	000900e7          	jalr	s2
80001b9c:	00aacc63          	blt	s5,a0,80001bb4 <_doscan+0x4a8>
80001ba0:	feab48e3          	blt	s6,a0,80001b90 <_doscan+0x484>
80001ba4:	ffe00793          	li	a5,-2
80001ba8:	00f51863          	bne	a0,a5,80001bb8 <_doscan+0x4ac>
80001bac:	00040513          	mv	a0,s0
80001bb0:	badff06f          	j	8000175c <_doscan+0x50>
80001bb4:	fd350ee3          	beq	a0,s3,80001b90 <_doscan+0x484>
80001bb8:	00812583          	lw	a1,8(sp)
80001bbc:	00412503          	lw	a0,4(sp)
80001bc0:	000a00e7          	jalr	s4
80001bc4:	fe9ff06f          	j	80001bac <_doscan+0x4a0>
80001bc8:	00000a93          	li	s5,0
80001bcc:	c80990e3          	bnez	s3,8000184c <_doscan+0x140>
80001bd0:	f8dd8c93          	addi	s9,s11,-115
80001bd4:	001cbc93          	seqz	s9,s9
80001bd8:	8000eb37          	lui	s6,0x8000e
80001bdc:	874b0b13          	addi	s6,s6,-1932 # 8000d874 <_sctab>
80001be0:	ffe00d13          	li	s10,-2
80001be4:	00812583          	lw	a1,8(sp)
80001be8:	00412503          	lw	a0,4(sp)
80001bec:	000900e7          	jalr	s2
80001bf0:	00ab0733          	add	a4,s6,a0
80001bf4:	00074703          	lbu	a4,0(a4)
80001bf8:	01977733          	and	a4,a4,s9
80001bfc:	00070463          	beqz	a4,80001c04 <_doscan+0x4f8>
80001c00:	ffa512e3          	bne	a0,s10,80001be4 <_doscan+0x4d8>
80001c04:	06300713          	li	a4,99
80001c08:	00000d13          	li	s10,0
80001c0c:	00ed8a63          	beq	s11,a4,80001c20 <_doscan+0x514>
80001c10:	05b00713          	li	a4,91
80001c14:	00200d13          	li	s10,2
80001c18:	00ed8463          	beq	s11,a4,80001c20 <_doscan+0x514>
80001c1c:	00100d13          	li	s10,1
80001c20:	000a8c93          	mv	s9,s5
80001c24:	dcdff06f          	j	800019f0 <_doscan+0x2e4>

80001c28 <_prtl10>:
80001c28:	ff010113          	addi	sp,sp,-16
80001c2c:	00010223          	sb	zero,4(sp)
80001c30:	00100793          	li	a5,1
80001c34:	00a00693          	li	a3,10
80001c38:	00b00613          	li	a2,11
80001c3c:	00410713          	addi	a4,sp,4
80001c40:	00f70833          	add	a6,a4,a5
80001c44:	02d56733          	rem	a4,a0,a3
80001c48:	00178793          	addi	a5,a5,1
80001c4c:	03070713          	addi	a4,a4,48
80001c50:	00e80023          	sb	a4,0(a6)
80001c54:	02d54533          	div	a0,a0,a3
80001c58:	fec792e3          	bne	a5,a2,80001c3c <_prtl10+0x14>
80001c5c:	00a00793          	li	a5,10
80001c60:	03000713          	li	a4,48
80001c64:	00410693          	addi	a3,sp,4
80001c68:	00f686b3          	add	a3,a3,a5
80001c6c:	0006c683          	lbu	a3,0(a3)
80001c70:	02e68a63          	beq	a3,a4,80001ca4 <_prtl10+0x7c>
80001c74:	00079463          	bnez	a5,80001c7c <_prtl10+0x54>
80001c78:	00100793          	li	a5,1
80001c7c:	fff00713          	li	a4,-1
80001c80:	00410693          	addi	a3,sp,4
80001c84:	00f686b3          	add	a3,a3,a5
80001c88:	0006c683          	lbu	a3,0(a3)
80001c8c:	fff78793          	addi	a5,a5,-1
80001c90:	00158593          	addi	a1,a1,1
80001c94:	fed58fa3          	sb	a3,-1(a1)
80001c98:	fee794e3          	bne	a5,a4,80001c80 <_prtl10+0x58>
80001c9c:	01010113          	addi	sp,sp,16
80001ca0:	00008067          	ret
80001ca4:	fff78793          	addi	a5,a5,-1
80001ca8:	fbdff06f          	j	80001c64 <_prtl10+0x3c>

80001cac <_prtl8>:
80001cac:	ff010113          	addi	sp,sp,-16
80001cb0:	00010223          	sb	zero,4(sp)
80001cb4:	00100793          	li	a5,1
80001cb8:	00c00693          	li	a3,12
80001cbc:	00410713          	addi	a4,sp,4
80001cc0:	00f70633          	add	a2,a4,a5
80001cc4:	00757713          	andi	a4,a0,7
80001cc8:	03070713          	addi	a4,a4,48
80001ccc:	00e60023          	sb	a4,0(a2)
80001cd0:	00178793          	addi	a5,a5,1
80001cd4:	40355513          	srai	a0,a0,0x3
80001cd8:	fed792e3          	bne	a5,a3,80001cbc <_prtl8+0x10>
80001cdc:	00f14783          	lbu	a5,15(sp)
80001ce0:	03000713          	li	a4,48
80001ce4:	0337f793          	andi	a5,a5,51
80001ce8:	00f107a3          	sb	a5,15(sp)
80001cec:	00b00793          	li	a5,11
80001cf0:	00410693          	addi	a3,sp,4
80001cf4:	00f686b3          	add	a3,a3,a5
80001cf8:	0006c683          	lbu	a3,0(a3)
80001cfc:	02e68a63          	beq	a3,a4,80001d30 <_prtl8+0x84>
80001d00:	00079463          	bnez	a5,80001d08 <_prtl8+0x5c>
80001d04:	00100793          	li	a5,1
80001d08:	fff00713          	li	a4,-1
80001d0c:	00410693          	addi	a3,sp,4
80001d10:	00f686b3          	add	a3,a3,a5
80001d14:	0006c683          	lbu	a3,0(a3)
80001d18:	fff78793          	addi	a5,a5,-1
80001d1c:	00158593          	addi	a1,a1,1
80001d20:	fed58fa3          	sb	a3,-1(a1)
80001d24:	fee794e3          	bne	a5,a4,80001d0c <_prtl8+0x60>
80001d28:	01010113          	addi	sp,sp,16
80001d2c:	00008067          	ret
80001d30:	fff78793          	addi	a5,a5,-1
80001d34:	fbdff06f          	j	80001cf0 <_prtl8+0x44>

80001d38 <_prtl16>:
80001d38:	ff010113          	addi	sp,sp,-16
80001d3c:	8000b6b7          	lui	a3,0x8000b
80001d40:	00010223          	sb	zero,4(sp)
80001d44:	00100793          	li	a5,1
80001d48:	f6068693          	addi	a3,a3,-160 # 8000af60 <start+0x2e0>
80001d4c:	00900613          	li	a2,9
80001d50:	00410713          	addi	a4,sp,4
80001d54:	00f70833          	add	a6,a4,a5
80001d58:	00f57713          	andi	a4,a0,15
80001d5c:	00e68733          	add	a4,a3,a4
80001d60:	00074703          	lbu	a4,0(a4)
80001d64:	00178793          	addi	a5,a5,1
80001d68:	40455513          	srai	a0,a0,0x4
80001d6c:	00e80023          	sb	a4,0(a6)
80001d70:	fec790e3          	bne	a5,a2,80001d50 <_prtl16+0x18>
80001d74:	00800793          	li	a5,8
80001d78:	03000713          	li	a4,48
80001d7c:	00410693          	addi	a3,sp,4
80001d80:	00f686b3          	add	a3,a3,a5
80001d84:	0006c683          	lbu	a3,0(a3)
80001d88:	02e68a63          	beq	a3,a4,80001dbc <_prtl16+0x84>
80001d8c:	00079463          	bnez	a5,80001d94 <_prtl16+0x5c>
80001d90:	00100793          	li	a5,1
80001d94:	fff00713          	li	a4,-1
80001d98:	00410693          	addi	a3,sp,4
80001d9c:	00f686b3          	add	a3,a3,a5
80001da0:	0006c683          	lbu	a3,0(a3)
80001da4:	fff78793          	addi	a5,a5,-1
80001da8:	00158593          	addi	a1,a1,1
80001dac:	fed58fa3          	sb	a3,-1(a1)
80001db0:	fee794e3          	bne	a5,a4,80001d98 <_prtl16+0x60>
80001db4:	01010113          	addi	sp,sp,16
80001db8:	00008067          	ret
80001dbc:	fff78793          	addi	a5,a5,-1
80001dc0:	fbdff06f          	j	80001d7c <_prtl16+0x44>

80001dc4 <_prtX16>:
80001dc4:	ff010113          	addi	sp,sp,-16
80001dc8:	8000b6b7          	lui	a3,0x8000b
80001dcc:	00010223          	sb	zero,4(sp)
80001dd0:	00100793          	li	a5,1
80001dd4:	f7468693          	addi	a3,a3,-140 # 8000af74 <start+0x2f4>
80001dd8:	00900613          	li	a2,9
80001ddc:	00410713          	addi	a4,sp,4
80001de0:	00f70833          	add	a6,a4,a5
80001de4:	00f57713          	andi	a4,a0,15
80001de8:	00e68733          	add	a4,a3,a4
80001dec:	00074703          	lbu	a4,0(a4)
80001df0:	00178793          	addi	a5,a5,1
80001df4:	40455513          	srai	a0,a0,0x4
80001df8:	00e80023          	sb	a4,0(a6)
80001dfc:	fec790e3          	bne	a5,a2,80001ddc <_prtX16+0x18>
80001e00:	00800793          	li	a5,8
80001e04:	03000713          	li	a4,48
80001e08:	00410693          	addi	a3,sp,4
80001e0c:	00f686b3          	add	a3,a3,a5
80001e10:	0006c683          	lbu	a3,0(a3)
80001e14:	02e68a63          	beq	a3,a4,80001e48 <_prtX16+0x84>
80001e18:	00079463          	bnez	a5,80001e20 <_prtX16+0x5c>
80001e1c:	00100793          	li	a5,1
80001e20:	fff00713          	li	a4,-1
80001e24:	00410693          	addi	a3,sp,4
80001e28:	00f686b3          	add	a3,a3,a5
80001e2c:	0006c683          	lbu	a3,0(a3)
80001e30:	fff78793          	addi	a5,a5,-1
80001e34:	00158593          	addi	a1,a1,1
80001e38:	fed58fa3          	sb	a3,-1(a1)
80001e3c:	fee794e3          	bne	a5,a4,80001e24 <_prtX16+0x60>
80001e40:	01010113          	addi	sp,sp,16
80001e44:	00008067          	ret
80001e48:	fff78793          	addi	a5,a5,-1
80001e4c:	fbdff06f          	j	80001e08 <_prtX16+0x44>

80001e50 <_prtl2>:
80001e50:	fd010113          	addi	sp,sp,-48
80001e54:	00010623          	sb	zero,12(sp)
80001e58:	00100793          	li	a5,1
80001e5c:	02100693          	li	a3,33
80001e60:	00c10713          	addi	a4,sp,12
80001e64:	00f70633          	add	a2,a4,a5
80001e68:	00157713          	andi	a4,a0,1
80001e6c:	03070713          	addi	a4,a4,48
80001e70:	00e60023          	sb	a4,0(a2)
80001e74:	00178793          	addi	a5,a5,1
80001e78:	40155513          	srai	a0,a0,0x1
80001e7c:	fed792e3          	bne	a5,a3,80001e60 <_prtl2+0x10>
80001e80:	02000793          	li	a5,32
80001e84:	03000713          	li	a4,48
80001e88:	00c10693          	addi	a3,sp,12
80001e8c:	00f686b3          	add	a3,a3,a5
80001e90:	0006c683          	lbu	a3,0(a3)
80001e94:	02e68a63          	beq	a3,a4,80001ec8 <_prtl2+0x78>
80001e98:	00079463          	bnez	a5,80001ea0 <_prtl2+0x50>
80001e9c:	00100793          	li	a5,1
80001ea0:	fff00713          	li	a4,-1
80001ea4:	00c10693          	addi	a3,sp,12
80001ea8:	00f686b3          	add	a3,a3,a5
80001eac:	0006c683          	lbu	a3,0(a3)
80001eb0:	fff78793          	addi	a5,a5,-1
80001eb4:	00158593          	addi	a1,a1,1
80001eb8:	fed58fa3          	sb	a3,-1(a1)
80001ebc:	fee794e3          	bne	a5,a4,80001ea4 <_prtl2+0x54>
80001ec0:	03010113          	addi	sp,sp,48
80001ec4:	00008067          	ret
80001ec8:	fff78793          	addi	a5,a5,-1
80001ecc:	fbdff06f          	j	80001e88 <_prtl2+0x38>

80001ed0 <_fdoprnt2>:
80001ed0:	f9010113          	addi	sp,sp,-112
80001ed4:	06812423          	sw	s0,104(sp)
80001ed8:	05412c23          	sw	s4,88(sp)
80001edc:	05612823          	sw	s6,80(sp)
80001ee0:	05712623          	sw	s7,76(sp)
80001ee4:	05a12023          	sw	s10,64(sp)
80001ee8:	06112623          	sw	ra,108(sp)
80001eec:	06912223          	sw	s1,100(sp)
80001ef0:	07212023          	sw	s2,96(sp)
80001ef4:	05312e23          	sw	s3,92(sp)
80001ef8:	05512a23          	sw	s5,84(sp)
80001efc:	05812423          	sw	s8,72(sp)
80001f00:	05912223          	sw	s9,68(sp)
80001f04:	03b12e23          	sw	s11,60(sp)
80001f08:	00050b93          	mv	s7,a0
80001f0c:	00058413          	mv	s0,a1
80001f10:	00060a13          	mv	s4,a2
80001f14:	00d12623          	sw	a3,12(sp)
80001f18:	00070b13          	mv	s6,a4
80001f1c:	02500d13          	li	s10,37
80001f20:	000bc603          	lbu	a2,0(s7)
80001f24:	001b8493          	addi	s1,s7,1
80001f28:	03a61263          	bne	a2,s10,80001f4c <_fdoprnt2+0x7c>
80001f2c:	001bcc83          	lbu	s9,1(s7)
80001f30:	03ac9a63          	bne	s9,s10,80001f64 <_fdoprnt2+0x94>
80001f34:	00c12583          	lw	a1,12(sp)
80001f38:	02500613          	li	a2,37
80001f3c:	000b0513          	mv	a0,s6
80001f40:	002b8b93          	addi	s7,s7,2
80001f44:	000a00e7          	jalr	s4
80001f48:	fd9ff06f          	j	80001f20 <_fdoprnt2+0x50>
80001f4c:	3a060a63          	beqz	a2,80002300 <_fdoprnt2+0x430>
80001f50:	00c12583          	lw	a1,12(sp)
80001f54:	000b0513          	mv	a0,s6
80001f58:	00048b93          	mv	s7,s1
80001f5c:	000a00e7          	jalr	s4
80001f60:	fc1ff06f          	j	80001f20 <_fdoprnt2+0x50>
80001f64:	02d00793          	li	a5,45
80001f68:	00fc9463          	bne	s9,a5,80001f70 <_fdoprnt2+0xa0>
80001f6c:	002b8493          	addi	s1,s7,2
80001f70:	0004cc03          	lbu	s8,0(s1)
80001f74:	03000793          	li	a5,48
80001f78:	06fc1863          	bne	s8,a5,80001fe8 <_fdoprnt2+0x118>
80001f7c:	00148493          	addi	s1,s1,1
80001f80:	0004c703          	lbu	a4,0(s1)
80001f84:	02a00793          	li	a5,42
80001f88:	08f71863          	bne	a4,a5,80002018 <_fdoprnt2+0x148>
80001f8c:	00042903          	lw	s2,0(s0)
80001f90:	00148493          	addi	s1,s1,1
80001f94:	00440413          	addi	s0,s0,4
80001f98:	0004c703          	lbu	a4,0(s1)
80001f9c:	02e00793          	li	a5,46
80001fa0:	00000993          	li	s3,0
80001fa4:	08f71863          	bne	a4,a5,80002034 <_fdoprnt2+0x164>
80001fa8:	0014c703          	lbu	a4,1(s1)
80001fac:	02a00793          	li	a5,42
80001fb0:	06f70c63          	beq	a4,a5,80002028 <_fdoprnt2+0x158>
80001fb4:	00148493          	addi	s1,s1,1
80001fb8:	00900693          	li	a3,9
80001fbc:	00a00593          	li	a1,10
80001fc0:	0004c703          	lbu	a4,0(s1)
80001fc4:	00148613          	addi	a2,s1,1
80001fc8:	fd070793          	addi	a5,a4,-48
80001fcc:	0ff7f793          	zext.b	a5,a5
80001fd0:	06f6e263          	bltu	a3,a5,80002034 <_fdoprnt2+0x164>
80001fd4:	02b989b3          	mul	s3,s3,a1
80001fd8:	00060493          	mv	s1,a2
80001fdc:	00e989b3          	add	s3,s3,a4
80001fe0:	fd098993          	addi	s3,s3,-48
80001fe4:	fddff06f          	j	80001fc0 <_fdoprnt2+0xf0>
80001fe8:	02000c13          	li	s8,32
80001fec:	f95ff06f          	j	80001f80 <_fdoprnt2+0xb0>
80001ff0:	02b90933          	mul	s2,s2,a1
80001ff4:	00060493          	mv	s1,a2
80001ff8:	00e90933          	add	s2,s2,a4
80001ffc:	fd090913          	addi	s2,s2,-48
80002000:	0004c703          	lbu	a4,0(s1)
80002004:	00148613          	addi	a2,s1,1
80002008:	fd070793          	addi	a5,a4,-48
8000200c:	0ff7f793          	zext.b	a5,a5
80002010:	fef6f0e3          	bgeu	a3,a5,80001ff0 <_fdoprnt2+0x120>
80002014:	f85ff06f          	j	80001f98 <_fdoprnt2+0xc8>
80002018:	00000913          	li	s2,0
8000201c:	00900693          	li	a3,9
80002020:	00a00593          	li	a1,10
80002024:	fddff06f          	j	80002000 <_fdoprnt2+0x130>
80002028:	00042983          	lw	s3,0(s0)
8000202c:	00248493          	addi	s1,s1,2
80002030:	00440413          	addi	s0,s0,4
80002034:	0004c603          	lbu	a2,0(s1)
80002038:	00148b93          	addi	s7,s1,1
8000203c:	04061863          	bnez	a2,8000208c <_fdoprnt2+0x1bc>
80002040:	06812403          	lw	s0,104(sp)
80002044:	00c12583          	lw	a1,12(sp)
80002048:	06c12083          	lw	ra,108(sp)
8000204c:	06412483          	lw	s1,100(sp)
80002050:	06012903          	lw	s2,96(sp)
80002054:	05c12983          	lw	s3,92(sp)
80002058:	05412a83          	lw	s5,84(sp)
8000205c:	04c12b83          	lw	s7,76(sp)
80002060:	04812c03          	lw	s8,72(sp)
80002064:	04412c83          	lw	s9,68(sp)
80002068:	04012d03          	lw	s10,64(sp)
8000206c:	03c12d83          	lw	s11,60(sp)
80002070:	000b0513          	mv	a0,s6
80002074:	000a0793          	mv	a5,s4
80002078:	05012b03          	lw	s6,80(sp)
8000207c:	05812a03          	lw	s4,88(sp)
80002080:	02500613          	li	a2,37
80002084:	07010113          	addi	sp,sp,112
80002088:	00078067          	jr	a5
8000208c:	06f00793          	li	a5,111
80002090:	16f60a63          	beq	a2,a5,80002204 <_fdoprnt2+0x334>
80002094:	06c7e263          	bltu	a5,a2,800020f8 <_fdoprnt2+0x228>
80002098:	06300793          	li	a5,99
8000209c:	10f60263          	beq	a2,a5,800021a0 <_fdoprnt2+0x2d0>
800020a0:	02c7e663          	bltu	a5,a2,800020cc <_fdoprnt2+0x1fc>
800020a4:	05800793          	li	a5,88
800020a8:	16f60863          	beq	a2,a5,80002218 <_fdoprnt2+0x348>
800020ac:	06200793          	li	a5,98
800020b0:	18f60863          	beq	a2,a5,80002240 <_fdoprnt2+0x370>
800020b4:	00c12583          	lw	a1,12(sp)
800020b8:	000b0513          	mv	a0,s6
800020bc:	00040493          	mv	s1,s0
800020c0:	000a00e7          	jalr	s4
800020c4:	00000d93          	li	s11,0
800020c8:	0f40006f          	j	800021bc <_fdoprnt2+0x2ec>
800020cc:	06400793          	li	a5,100
800020d0:	fef612e3          	bne	a2,a5,800020b4 <_fdoprnt2+0x1e4>
800020d4:	00042503          	lw	a0,0(s0)
800020d8:	00440493          	addi	s1,s0,4
800020dc:	00000d93          	li	s11,0
800020e0:	00055663          	bgez	a0,800020ec <_fdoprnt2+0x21c>
800020e4:	40a00533          	neg	a0,a0
800020e8:	02d00d93          	li	s11,45
800020ec:	01c10593          	addi	a1,sp,28
800020f0:	b39ff0ef          	jal	80001c28 <_prtl10>
800020f4:	0c80006f          	j	800021bc <_fdoprnt2+0x2ec>
800020f8:	07500793          	li	a5,117
800020fc:	0cf60463          	beq	a2,a5,800021c4 <_fdoprnt2+0x2f4>
80002100:	07800793          	li	a5,120
80002104:	12f60463          	beq	a2,a5,8000222c <_fdoprnt2+0x35c>
80002108:	07300793          	li	a5,115
8000210c:	faf614e3          	bne	a2,a5,800020b4 <_fdoprnt2+0x1e4>
80002110:	00440493          	addi	s1,s0,4
80002114:	00042403          	lw	s0,0(s0)
80002118:	00000d93          	li	s11,0
8000211c:	02000c13          	li	s8,32
80002120:	12040a63          	beqz	s0,80002254 <_fdoprnt2+0x384>
80002124:	00000a93          	li	s5,0
80002128:	015407b3          	add	a5,s0,s5
8000212c:	0007c783          	lbu	a5,0(a5)
80002130:	12079863          	bnez	a5,80002260 <_fdoprnt2+0x390>
80002134:	05000793          	li	a5,80
80002138:	0127f463          	bgeu	a5,s2,80002140 <_fdoprnt2+0x270>
8000213c:	00000913          	li	s2,0
80002140:	fff98793          	addi	a5,s3,-1
80002144:	04f00693          	li	a3,79
80002148:	12f6f063          	bgeu	a3,a5,80002268 <_fdoprnt2+0x398>
8000214c:	12091463          	bnez	s2,80002274 <_fdoprnt2+0x3a4>
80002150:	02d00793          	li	a5,45
80002154:	12fd8863          	beq	s11,a5,80002284 <_fdoprnt2+0x3b4>
80002158:	02d00793          	li	a5,45
8000215c:	02fc8663          	beq	s9,a5,80002188 <_fdoprnt2+0x2b8>
80002160:	00000993          	li	s3,0
80002164:	1329ce63          	blt	s3,s2,800022a0 <_fdoprnt2+0x3d0>
80002168:	02d00793          	li	a5,45
8000216c:	00fd9e63          	bne	s11,a5,80002188 <_fdoprnt2+0x2b8>
80002170:	02000793          	li	a5,32
80002174:	00fc1a63          	bne	s8,a5,80002188 <_fdoprnt2+0x2b8>
80002178:	00c12583          	lw	a1,12(sp)
8000217c:	02d00613          	li	a2,45
80002180:	000b0513          	mv	a0,s6
80002184:	000a00e7          	jalr	s4
80002188:	00000993          	li	s3,0
8000218c:	13599663          	bne	s3,s5,800022b8 <_fdoprnt2+0x3e8>
80002190:	02d00793          	li	a5,45
80002194:	14fc9c63          	bne	s9,a5,800022ec <_fdoprnt2+0x41c>
80002198:	00000413          	li	s0,0
8000219c:	14c0006f          	j	800022e8 <_fdoprnt2+0x418>
800021a0:	00042783          	lw	a5,0(s0)
800021a4:	00440493          	addi	s1,s0,4
800021a8:	00010ea3          	sb	zero,29(sp)
800021ac:	00f10e23          	sb	a5,28(sp)
800021b0:	00000d93          	li	s11,0
800021b4:	00000993          	li	s3,0
800021b8:	02000c13          	li	s8,32
800021bc:	01c10413          	addi	s0,sp,28
800021c0:	f65ff06f          	j	80002124 <_fdoprnt2+0x254>
800021c4:	00042503          	lw	a0,0(s0)
800021c8:	00440493          	addi	s1,s0,4
800021cc:	00000413          	li	s0,0
800021d0:	00055a63          	bgez	a0,800021e4 <_fdoprnt2+0x314>
800021d4:	88ca77b7          	lui	a5,0x88ca7
800021d8:	c0078793          	addi	a5,a5,-1024 # 88ca6c00 <nnames+0x8c47bac>
800021dc:	00f50533          	add	a0,a0,a5
800021e0:	00200413          	li	s0,2
800021e4:	01c10593          	addi	a1,sp,28
800021e8:	a41ff0ef          	jal	80001c28 <_prtl10>
800021ec:	01c14783          	lbu	a5,28(sp)
800021f0:	00f40433          	add	s0,s0,a5
800021f4:	00810e23          	sb	s0,28(sp)
800021f8:	00000d93          	li	s11,0
800021fc:	00000993          	li	s3,0
80002200:	fbdff06f          	j	800021bc <_fdoprnt2+0x2ec>
80002204:	00042503          	lw	a0,0(s0)
80002208:	01c10593          	addi	a1,sp,28
8000220c:	00440493          	addi	s1,s0,4
80002210:	a9dff0ef          	jal	80001cac <_prtl8>
80002214:	fe5ff06f          	j	800021f8 <_fdoprnt2+0x328>
80002218:	00042503          	lw	a0,0(s0)
8000221c:	01c10593          	addi	a1,sp,28
80002220:	00440493          	addi	s1,s0,4
80002224:	ba1ff0ef          	jal	80001dc4 <_prtX16>
80002228:	fd1ff06f          	j	800021f8 <_fdoprnt2+0x328>
8000222c:	00042503          	lw	a0,0(s0)
80002230:	01c10593          	addi	a1,sp,28
80002234:	00440493          	addi	s1,s0,4
80002238:	b01ff0ef          	jal	80001d38 <_prtl16>
8000223c:	fbdff06f          	j	800021f8 <_fdoprnt2+0x328>
80002240:	00042503          	lw	a0,0(s0)
80002244:	01c10593          	addi	a1,sp,28
80002248:	00440493          	addi	s1,s0,4
8000224c:	c05ff0ef          	jal	80001e50 <_prtl2>
80002250:	fa9ff06f          	j	800021f8 <_fdoprnt2+0x328>
80002254:	8000b437          	lui	s0,0x8000b
80002258:	f8840413          	addi	s0,s0,-120 # 8000af88 <start+0x308>
8000225c:	ec9ff06f          	j	80002124 <_fdoprnt2+0x254>
80002260:	001a8a93          	addi	s5,s5,1
80002264:	ec5ff06f          	j	80002128 <_fdoprnt2+0x258>
80002268:	0159d463          	bge	s3,s5,80002270 <_fdoprnt2+0x3a0>
8000226c:	00098a93          	mv	s5,s3
80002270:	00090463          	beqz	s2,80002278 <_fdoprnt2+0x3a8>
80002274:	41590933          	sub	s2,s2,s5
80002278:	02d00793          	li	a5,45
8000227c:	ecfd9ee3          	bne	s11,a5,80002158 <_fdoprnt2+0x288>
80002280:	fff90913          	addi	s2,s2,-1
80002284:	03000793          	li	a5,48
80002288:	06fc1663          	bne	s8,a5,800022f4 <_fdoprnt2+0x424>
8000228c:	00c12583          	lw	a1,12(sp)
80002290:	02d00613          	li	a2,45
80002294:	000b0513          	mv	a0,s6
80002298:	000a00e7          	jalr	s4
8000229c:	ebdff06f          	j	80002158 <_fdoprnt2+0x288>
800022a0:	00c12583          	lw	a1,12(sp)
800022a4:	000c0613          	mv	a2,s8
800022a8:	000b0513          	mv	a0,s6
800022ac:	000a00e7          	jalr	s4
800022b0:	00198993          	addi	s3,s3,1
800022b4:	eb1ff06f          	j	80002164 <_fdoprnt2+0x294>
800022b8:	013407b3          	add	a5,s0,s3
800022bc:	0007c603          	lbu	a2,0(a5)
800022c0:	00c12583          	lw	a1,12(sp)
800022c4:	000b0513          	mv	a0,s6
800022c8:	00198993          	addi	s3,s3,1
800022cc:	000a00e7          	jalr	s4
800022d0:	ebdff06f          	j	8000218c <_fdoprnt2+0x2bc>
800022d4:	00c12583          	lw	a1,12(sp)
800022d8:	000c0613          	mv	a2,s8
800022dc:	000b0513          	mv	a0,s6
800022e0:	000a00e7          	jalr	s4
800022e4:	00140413          	addi	s0,s0,1
800022e8:	ff2446e3          	blt	s0,s2,800022d4 <_fdoprnt2+0x404>
800022ec:	00048413          	mv	s0,s1
800022f0:	c31ff06f          	j	80001f20 <_fdoprnt2+0x50>
800022f4:	02d00793          	li	a5,45
800022f8:	e8fc80e3          	beq	s9,a5,80002178 <_fdoprnt2+0x2a8>
800022fc:	e65ff06f          	j	80002160 <_fdoprnt2+0x290>
80002300:	06c12083          	lw	ra,108(sp)
80002304:	06812403          	lw	s0,104(sp)
80002308:	06412483          	lw	s1,100(sp)
8000230c:	06012903          	lw	s2,96(sp)
80002310:	05c12983          	lw	s3,92(sp)
80002314:	05812a03          	lw	s4,88(sp)
80002318:	05412a83          	lw	s5,84(sp)
8000231c:	05012b03          	lw	s6,80(sp)
80002320:	04c12b83          	lw	s7,76(sp)
80002324:	04812c03          	lw	s8,72(sp)
80002328:	04412c83          	lw	s9,68(sp)
8000232c:	04012d03          	lw	s10,64(sp)
80002330:	03c12d83          	lw	s11,60(sp)
80002334:	07010113          	addi	sp,sp,112
80002338:	00008067          	ret

8000233c <_fdoprnt>:
8000233c:	fa010113          	addi	sp,sp,-96
80002340:	04812c23          	sw	s0,88(sp)
80002344:	05412423          	sw	s4,72(sp)
80002348:	05512223          	sw	s5,68(sp)
8000234c:	05612023          	sw	s6,64(sp)
80002350:	03912a23          	sw	s9,52(sp)
80002354:	04112e23          	sw	ra,92(sp)
80002358:	04912a23          	sw	s1,84(sp)
8000235c:	05212823          	sw	s2,80(sp)
80002360:	05312623          	sw	s3,76(sp)
80002364:	03712e23          	sw	s7,60(sp)
80002368:	03812c23          	sw	s8,56(sp)
8000236c:	03a12823          	sw	s10,48(sp)
80002370:	03b12623          	sw	s11,44(sp)
80002374:	00050b13          	mv	s6,a0
80002378:	00058413          	mv	s0,a1
8000237c:	00060a13          	mv	s4,a2
80002380:	00068a93          	mv	s5,a3
80002384:	02500c93          	li	s9,37
80002388:	000b4583          	lbu	a1,0(s6)
8000238c:	001b0493          	addi	s1,s6,1
80002390:	03959063          	bne	a1,s9,800023b0 <_fdoprnt+0x74>
80002394:	001b4c03          	lbu	s8,1(s6)
80002398:	039c1663          	bne	s8,s9,800023c4 <_fdoprnt+0x88>
8000239c:	02500593          	li	a1,37
800023a0:	000a8513          	mv	a0,s5
800023a4:	002b0b13          	addi	s6,s6,2
800023a8:	000a00e7          	jalr	s4
800023ac:	fddff06f          	j	80002388 <_fdoprnt+0x4c>
800023b0:	38058a63          	beqz	a1,80002744 <_fdoprnt+0x408>
800023b4:	000a8513          	mv	a0,s5
800023b8:	000a00e7          	jalr	s4
800023bc:	00048b13          	mv	s6,s1
800023c0:	fc9ff06f          	j	80002388 <_fdoprnt+0x4c>
800023c4:	02d00793          	li	a5,45
800023c8:	00fc1463          	bne	s8,a5,800023d0 <_fdoprnt+0x94>
800023cc:	002b0493          	addi	s1,s6,2
800023d0:	0004cb83          	lbu	s7,0(s1)
800023d4:	03000793          	li	a5,48
800023d8:	06fb9863          	bne	s7,a5,80002448 <_fdoprnt+0x10c>
800023dc:	00148493          	addi	s1,s1,1
800023e0:	0004c703          	lbu	a4,0(s1)
800023e4:	02a00793          	li	a5,42
800023e8:	08f71863          	bne	a4,a5,80002478 <_fdoprnt+0x13c>
800023ec:	00042903          	lw	s2,0(s0)
800023f0:	00148493          	addi	s1,s1,1
800023f4:	00440413          	addi	s0,s0,4
800023f8:	0004c703          	lbu	a4,0(s1)
800023fc:	02e00793          	li	a5,46
80002400:	00000993          	li	s3,0
80002404:	08f71863          	bne	a4,a5,80002494 <_fdoprnt+0x158>
80002408:	0014c703          	lbu	a4,1(s1)
8000240c:	02a00793          	li	a5,42
80002410:	06f70c63          	beq	a4,a5,80002488 <_fdoprnt+0x14c>
80002414:	00148493          	addi	s1,s1,1
80002418:	00900693          	li	a3,9
8000241c:	00a00593          	li	a1,10
80002420:	0004c703          	lbu	a4,0(s1)
80002424:	00148613          	addi	a2,s1,1
80002428:	fd070793          	addi	a5,a4,-48
8000242c:	0ff7f793          	zext.b	a5,a5
80002430:	06f6e263          	bltu	a3,a5,80002494 <_fdoprnt+0x158>
80002434:	02b989b3          	mul	s3,s3,a1
80002438:	00060493          	mv	s1,a2
8000243c:	00e989b3          	add	s3,s3,a4
80002440:	fd098993          	addi	s3,s3,-48
80002444:	fddff06f          	j	80002420 <_fdoprnt+0xe4>
80002448:	02000b93          	li	s7,32
8000244c:	f95ff06f          	j	800023e0 <_fdoprnt+0xa4>
80002450:	02b90933          	mul	s2,s2,a1
80002454:	00060493          	mv	s1,a2
80002458:	00e90933          	add	s2,s2,a4
8000245c:	fd090913          	addi	s2,s2,-48
80002460:	0004c703          	lbu	a4,0(s1)
80002464:	00148613          	addi	a2,s1,1
80002468:	fd070793          	addi	a5,a4,-48
8000246c:	0ff7f793          	zext.b	a5,a5
80002470:	fef6f0e3          	bgeu	a3,a5,80002450 <_fdoprnt+0x114>
80002474:	f85ff06f          	j	800023f8 <_fdoprnt+0xbc>
80002478:	00000913          	li	s2,0
8000247c:	00900693          	li	a3,9
80002480:	00a00593          	li	a1,10
80002484:	fddff06f          	j	80002460 <_fdoprnt+0x124>
80002488:	00042983          	lw	s3,0(s0)
8000248c:	00248493          	addi	s1,s1,2
80002490:	00440413          	addi	s0,s0,4
80002494:	0004c583          	lbu	a1,0(s1)
80002498:	00148b13          	addi	s6,s1,1
8000249c:	04059663          	bnez	a1,800024e8 <_fdoprnt+0x1ac>
800024a0:	05812403          	lw	s0,88(sp)
800024a4:	05c12083          	lw	ra,92(sp)
800024a8:	05412483          	lw	s1,84(sp)
800024ac:	05012903          	lw	s2,80(sp)
800024b0:	04c12983          	lw	s3,76(sp)
800024b4:	04012b03          	lw	s6,64(sp)
800024b8:	03c12b83          	lw	s7,60(sp)
800024bc:	03812c03          	lw	s8,56(sp)
800024c0:	03412c83          	lw	s9,52(sp)
800024c4:	03012d03          	lw	s10,48(sp)
800024c8:	02c12d83          	lw	s11,44(sp)
800024cc:	000a8513          	mv	a0,s5
800024d0:	000a0793          	mv	a5,s4
800024d4:	04412a83          	lw	s5,68(sp)
800024d8:	04812a03          	lw	s4,72(sp)
800024dc:	02500593          	li	a1,37
800024e0:	06010113          	addi	sp,sp,96
800024e4:	00078067          	jr	a5
800024e8:	06f00793          	li	a5,111
800024ec:	16f58663          	beq	a1,a5,80002658 <_fdoprnt+0x31c>
800024f0:	06b7e063          	bltu	a5,a1,80002550 <_fdoprnt+0x214>
800024f4:	06300793          	li	a5,99
800024f8:	0ef58e63          	beq	a1,a5,800025f4 <_fdoprnt+0x2b8>
800024fc:	02b7e463          	bltu	a5,a1,80002524 <_fdoprnt+0x1e8>
80002500:	05800793          	li	a5,88
80002504:	16f58463          	beq	a1,a5,8000266c <_fdoprnt+0x330>
80002508:	06200793          	li	a5,98
8000250c:	18f58463          	beq	a1,a5,80002694 <_fdoprnt+0x358>
80002510:	000a8513          	mv	a0,s5
80002514:	000a00e7          	jalr	s4
80002518:	00040d13          	mv	s10,s0
8000251c:	00000493          	li	s1,0
80002520:	0f00006f          	j	80002610 <_fdoprnt+0x2d4>
80002524:	06400793          	li	a5,100
80002528:	fef594e3          	bne	a1,a5,80002510 <_fdoprnt+0x1d4>
8000252c:	00042503          	lw	a0,0(s0)
80002530:	00440d13          	addi	s10,s0,4
80002534:	00000493          	li	s1,0
80002538:	00055663          	bgez	a0,80002544 <_fdoprnt+0x208>
8000253c:	40a00533          	neg	a0,a0
80002540:	02d00493          	li	s1,45
80002544:	00c10593          	addi	a1,sp,12
80002548:	ee0ff0ef          	jal	80001c28 <_prtl10>
8000254c:	0c40006f          	j	80002610 <_fdoprnt+0x2d4>
80002550:	07500793          	li	a5,117
80002554:	0cf58263          	beq	a1,a5,80002618 <_fdoprnt+0x2dc>
80002558:	07800793          	li	a5,120
8000255c:	12f58263          	beq	a1,a5,80002680 <_fdoprnt+0x344>
80002560:	07300793          	li	a5,115
80002564:	faf596e3          	bne	a1,a5,80002510 <_fdoprnt+0x1d4>
80002568:	00440d13          	addi	s10,s0,4
8000256c:	00042403          	lw	s0,0(s0)
80002570:	00000493          	li	s1,0
80002574:	02000b93          	li	s7,32
80002578:	12040863          	beqz	s0,800026a8 <_fdoprnt+0x36c>
8000257c:	00000d93          	li	s11,0
80002580:	01b407b3          	add	a5,s0,s11
80002584:	0007c783          	lbu	a5,0(a5)
80002588:	12079663          	bnez	a5,800026b4 <_fdoprnt+0x378>
8000258c:	05000793          	li	a5,80
80002590:	0127f463          	bgeu	a5,s2,80002598 <_fdoprnt+0x25c>
80002594:	00000913          	li	s2,0
80002598:	fff98793          	addi	a5,s3,-1
8000259c:	04f00713          	li	a4,79
800025a0:	10f77e63          	bgeu	a4,a5,800026bc <_fdoprnt+0x380>
800025a4:	12091263          	bnez	s2,800026c8 <_fdoprnt+0x38c>
800025a8:	02d00793          	li	a5,45
800025ac:	12f48663          	beq	s1,a5,800026d8 <_fdoprnt+0x39c>
800025b0:	02d00793          	li	a5,45
800025b4:	02fc0463          	beq	s8,a5,800025dc <_fdoprnt+0x2a0>
800025b8:	00000993          	li	s3,0
800025bc:	1329ca63          	blt	s3,s2,800026f0 <_fdoprnt+0x3b4>
800025c0:	02d00793          	li	a5,45
800025c4:	00f49c63          	bne	s1,a5,800025dc <_fdoprnt+0x2a0>
800025c8:	02000793          	li	a5,32
800025cc:	00fb9863          	bne	s7,a5,800025dc <_fdoprnt+0x2a0>
800025d0:	02d00593          	li	a1,45
800025d4:	000a8513          	mv	a0,s5
800025d8:	000a00e7          	jalr	s4
800025dc:	00000493          	li	s1,0
800025e0:	13b49263          	bne	s1,s11,80002704 <_fdoprnt+0x3c8>
800025e4:	02d00793          	li	a5,45
800025e8:	14fc1463          	bne	s8,a5,80002730 <_fdoprnt+0x3f4>
800025ec:	00000413          	li	s0,0
800025f0:	13c0006f          	j	8000272c <_fdoprnt+0x3f0>
800025f4:	00042783          	lw	a5,0(s0)
800025f8:	00440d13          	addi	s10,s0,4
800025fc:	000106a3          	sb	zero,13(sp)
80002600:	00f10623          	sb	a5,12(sp)
80002604:	00000493          	li	s1,0
80002608:	00000993          	li	s3,0
8000260c:	02000b93          	li	s7,32
80002610:	00c10413          	addi	s0,sp,12
80002614:	f69ff06f          	j	8000257c <_fdoprnt+0x240>
80002618:	00042503          	lw	a0,0(s0)
8000261c:	00440d13          	addi	s10,s0,4
80002620:	00000413          	li	s0,0
80002624:	00055a63          	bgez	a0,80002638 <_fdoprnt+0x2fc>
80002628:	88ca77b7          	lui	a5,0x88ca7
8000262c:	c0078793          	addi	a5,a5,-1024 # 88ca6c00 <nnames+0x8c47bac>
80002630:	00f50533          	add	a0,a0,a5
80002634:	00200413          	li	s0,2
80002638:	00c10593          	addi	a1,sp,12
8000263c:	decff0ef          	jal	80001c28 <_prtl10>
80002640:	00c14783          	lbu	a5,12(sp)
80002644:	00f40433          	add	s0,s0,a5
80002648:	00810623          	sb	s0,12(sp)
8000264c:	00000493          	li	s1,0
80002650:	00000993          	li	s3,0
80002654:	fbdff06f          	j	80002610 <_fdoprnt+0x2d4>
80002658:	00042503          	lw	a0,0(s0)
8000265c:	00c10593          	addi	a1,sp,12
80002660:	00440d13          	addi	s10,s0,4
80002664:	e48ff0ef          	jal	80001cac <_prtl8>
80002668:	fe5ff06f          	j	8000264c <_fdoprnt+0x310>
8000266c:	00042503          	lw	a0,0(s0)
80002670:	00c10593          	addi	a1,sp,12
80002674:	00440d13          	addi	s10,s0,4
80002678:	f4cff0ef          	jal	80001dc4 <_prtX16>
8000267c:	fd1ff06f          	j	8000264c <_fdoprnt+0x310>
80002680:	00042503          	lw	a0,0(s0)
80002684:	00c10593          	addi	a1,sp,12
80002688:	00440d13          	addi	s10,s0,4
8000268c:	eacff0ef          	jal	80001d38 <_prtl16>
80002690:	fbdff06f          	j	8000264c <_fdoprnt+0x310>
80002694:	00042503          	lw	a0,0(s0)
80002698:	00c10593          	addi	a1,sp,12
8000269c:	00440d13          	addi	s10,s0,4
800026a0:	fb0ff0ef          	jal	80001e50 <_prtl2>
800026a4:	fa9ff06f          	j	8000264c <_fdoprnt+0x310>
800026a8:	8000b437          	lui	s0,0x8000b
800026ac:	f8840413          	addi	s0,s0,-120 # 8000af88 <start+0x308>
800026b0:	ecdff06f          	j	8000257c <_fdoprnt+0x240>
800026b4:	001d8d93          	addi	s11,s11,1
800026b8:	ec9ff06f          	j	80002580 <_fdoprnt+0x244>
800026bc:	01b9d463          	bge	s3,s11,800026c4 <_fdoprnt+0x388>
800026c0:	00098d93          	mv	s11,s3
800026c4:	00090463          	beqz	s2,800026cc <_fdoprnt+0x390>
800026c8:	41b90933          	sub	s2,s2,s11
800026cc:	02d00793          	li	a5,45
800026d0:	eef490e3          	bne	s1,a5,800025b0 <_fdoprnt+0x274>
800026d4:	fff90913          	addi	s2,s2,-1
800026d8:	03000793          	li	a5,48
800026dc:	04fb9e63          	bne	s7,a5,80002738 <_fdoprnt+0x3fc>
800026e0:	02d00593          	li	a1,45
800026e4:	000a8513          	mv	a0,s5
800026e8:	000a00e7          	jalr	s4
800026ec:	ec5ff06f          	j	800025b0 <_fdoprnt+0x274>
800026f0:	000b8593          	mv	a1,s7
800026f4:	000a8513          	mv	a0,s5
800026f8:	000a00e7          	jalr	s4
800026fc:	00198993          	addi	s3,s3,1
80002700:	ebdff06f          	j	800025bc <_fdoprnt+0x280>
80002704:	009407b3          	add	a5,s0,s1
80002708:	0007c583          	lbu	a1,0(a5)
8000270c:	000a8513          	mv	a0,s5
80002710:	00148493          	addi	s1,s1,1
80002714:	000a00e7          	jalr	s4
80002718:	ec9ff06f          	j	800025e0 <_fdoprnt+0x2a4>
8000271c:	000b8593          	mv	a1,s7
80002720:	000a8513          	mv	a0,s5
80002724:	000a00e7          	jalr	s4
80002728:	00140413          	addi	s0,s0,1
8000272c:	ff2448e3          	blt	s0,s2,8000271c <_fdoprnt+0x3e0>
80002730:	000d0413          	mv	s0,s10
80002734:	c55ff06f          	j	80002388 <_fdoprnt+0x4c>
80002738:	02d00793          	li	a5,45
8000273c:	e8fc0ae3          	beq	s8,a5,800025d0 <_fdoprnt+0x294>
80002740:	e79ff06f          	j	800025b8 <_fdoprnt+0x27c>
80002744:	05c12083          	lw	ra,92(sp)
80002748:	05812403          	lw	s0,88(sp)
8000274c:	05412483          	lw	s1,84(sp)
80002750:	05012903          	lw	s2,80(sp)
80002754:	04c12983          	lw	s3,76(sp)
80002758:	04812a03          	lw	s4,72(sp)
8000275c:	04412a83          	lw	s5,68(sp)
80002760:	04012b03          	lw	s6,64(sp)
80002764:	03c12b83          	lw	s7,60(sp)
80002768:	03812c03          	lw	s8,56(sp)
8000276c:	03412c83          	lw	s9,52(sp)
80002770:	03012d03          	lw	s10,48(sp)
80002774:	02c12d83          	lw	s11,44(sp)
80002778:	06010113          	addi	sp,sp,96
8000277c:	00008067          	ret

80002780 <fprintf>:
80002780:	fc010113          	addi	sp,sp,-64
80002784:	00050313          	mv	t1,a0
80002788:	02c12423          	sw	a2,40(sp)
8000278c:	80007637          	lui	a2,0x80007
80002790:	00058513          	mv	a0,a1
80002794:	02d12623          	sw	a3,44(sp)
80002798:	02810593          	addi	a1,sp,40
8000279c:	00030693          	mv	a3,t1
800027a0:	4a060613          	addi	a2,a2,1184 # 800074a0 <putc>
800027a4:	00112e23          	sw	ra,28(sp)
800027a8:	02e12823          	sw	a4,48(sp)
800027ac:	02f12a23          	sw	a5,52(sp)
800027b0:	03012c23          	sw	a6,56(sp)
800027b4:	03112e23          	sw	a7,60(sp)
800027b8:	00b12623          	sw	a1,12(sp)
800027bc:	b81ff0ef          	jal	8000233c <_fdoprnt>
800027c0:	01c12083          	lw	ra,28(sp)
800027c4:	00000513          	li	a0,0
800027c8:	04010113          	addi	sp,sp,64
800027cc:	00008067          	ret

800027d0 <heap_init>:
800027d0:	8005f7b7          	lui	a5,0x8005f
800027d4:	00a7a423          	sw	a0,8(a5) # 8005f008 <minheap>
800027d8:	8005d7b7          	lui	a5,0x8005d
800027dc:	c6078793          	addi	a5,a5,-928 # 8005cc60 <__global_pointer$+0x4deb8>
800027e0:	8005f737          	lui	a4,0x8005f
800027e4:	00f72223          	sw	a5,4(a4) # 8005f004 <maxheap>
800027e8:	8005f737          	lui	a4,0x8005f
800027ec:	04070713          	addi	a4,a4,64 # 8005f040 <memlist>
800027f0:	40a787b3          	sub	a5,a5,a0
800027f4:	00a72023          	sw	a0,0(a4)
800027f8:	00052023          	sw	zero,0(a0)
800027fc:	00f52223          	sw	a5,4(a0)
80002800:	00f72223          	sw	a5,4(a4)
80002804:	00008067          	ret

80002808 <heap_free>:
80002808:	8005f7b7          	lui	a5,0x8005f
8000280c:	0407a783          	lw	a5,64(a5) # 8005f040 <memlist>
80002810:	00000513          	li	a0,0
80002814:	00079463          	bnez	a5,8000281c <heap_free+0x14>
80002818:	00008067          	ret
8000281c:	0047a703          	lw	a4,4(a5)
80002820:	0007a783          	lw	a5,0(a5)
80002824:	00e50533          	add	a0,a0,a4
80002828:	fedff06f          	j	80002814 <heap_free+0xc>

8000282c <freemem>:
8000282c:	ff010113          	addi	sp,sp,-16
80002830:	00912223          	sw	s1,4(sp)
80002834:	00058493          	mv	s1,a1
80002838:	00812423          	sw	s0,8(sp)
8000283c:	00112623          	sw	ra,12(sp)
80002840:	00050413          	mv	s0,a0
80002844:	a49fd0ef          	jal	8000028c <disable>
80002848:	00048e63          	beqz	s1,80002864 <freemem+0x38>
8000284c:	8005f7b7          	lui	a5,0x8005f
80002850:	0087a783          	lw	a5,8(a5) # 8005f008 <minheap>
80002854:	00f46863          	bltu	s0,a5,80002864 <freemem+0x38>
80002858:	8005f7b7          	lui	a5,0x8005f
8000285c:	0047a783          	lw	a5,4(a5) # 8005f004 <maxheap>
80002860:	0287f063          	bgeu	a5,s0,80002880 <freemem+0x54>
80002864:	a31fd0ef          	jal	80000294 <restore>
80002868:	fff00513          	li	a0,-1
8000286c:	00c12083          	lw	ra,12(sp)
80002870:	00812403          	lw	s0,8(sp)
80002874:	00412483          	lw	s1,4(sp)
80002878:	01010113          	addi	sp,sp,16
8000287c:	00008067          	ret
80002880:	8005f6b7          	lui	a3,0x8005f
80002884:	00748593          	addi	a1,s1,7
80002888:	0406a703          	lw	a4,64(a3) # 8005f040 <memlist>
8000288c:	04068793          	addi	a5,a3,64
80002890:	ff85f593          	andi	a1,a1,-8
80002894:	04068693          	addi	a3,a3,64
80002898:	00070463          	beqz	a4,800028a0 <freemem+0x74>
8000289c:	06876463          	bltu	a4,s0,80002904 <freemem+0xd8>
800028a0:	06d78863          	beq	a5,a3,80002910 <freemem+0xe4>
800028a4:	0047a603          	lw	a2,4(a5)
800028a8:	00c78633          	add	a2,a5,a2
800028ac:	fac46ce3          	bltu	s0,a2,80002864 <freemem+0x38>
800028b0:	00070663          	beqz	a4,800028bc <freemem+0x90>
800028b4:	00b40833          	add	a6,s0,a1
800028b8:	fb0766e3          	bltu	a4,a6,80002864 <freemem+0x38>
800028bc:	0046a803          	lw	a6,4(a3)
800028c0:	00b80833          	add	a6,a6,a1
800028c4:	0106a223          	sw	a6,4(a3)
800028c8:	04c41863          	bne	s0,a2,80002918 <freemem+0xec>
800028cc:	0047a683          	lw	a3,4(a5)
800028d0:	00b686b3          	add	a3,a3,a1
800028d4:	00d7a223          	sw	a3,4(a5)
800028d8:	0047a603          	lw	a2,4(a5)
800028dc:	00c786b3          	add	a3,a5,a2
800028e0:	00d71c63          	bne	a4,a3,800028f8 <freemem+0xcc>
800028e4:	00472683          	lw	a3,4(a4)
800028e8:	00072703          	lw	a4,0(a4)
800028ec:	00c686b3          	add	a3,a3,a2
800028f0:	00d7a223          	sw	a3,4(a5)
800028f4:	00e7a023          	sw	a4,0(a5)
800028f8:	99dfd0ef          	jal	80000294 <restore>
800028fc:	00100513          	li	a0,1
80002900:	f6dff06f          	j	8000286c <freemem+0x40>
80002904:	00070793          	mv	a5,a4
80002908:	00072703          	lw	a4,0(a4)
8000290c:	f8dff06f          	j	80002898 <freemem+0x6c>
80002910:	00000613          	li	a2,0
80002914:	f9dff06f          	j	800028b0 <freemem+0x84>
80002918:	00e42023          	sw	a4,0(s0)
8000291c:	00b42223          	sw	a1,4(s0)
80002920:	0087a023          	sw	s0,0(a5)
80002924:	00040793          	mv	a5,s0
80002928:	fb1ff06f          	j	800028d8 <freemem+0xac>

8000292c <getmem>:
8000292c:	ff010113          	addi	sp,sp,-16
80002930:	00812423          	sw	s0,8(sp)
80002934:	00050413          	mv	s0,a0
80002938:	00112623          	sw	ra,12(sp)
8000293c:	951fd0ef          	jal	8000028c <disable>
80002940:	00041863          	bnez	s0,80002950 <getmem+0x24>
80002944:	951fd0ef          	jal	80000294 <restore>
80002948:	fff00413          	li	s0,-1
8000294c:	0500006f          	j	8000299c <getmem+0x70>
80002950:	8005f737          	lui	a4,0x8005f
80002954:	00740793          	addi	a5,s0,7
80002958:	04070593          	addi	a1,a4,64 # 8005f040 <memlist>
8000295c:	04072403          	lw	s0,64(a4)
80002960:	00050693          	mv	a3,a0
80002964:	ff87f793          	andi	a5,a5,-8
80002968:	04070713          	addi	a4,a4,64
8000296c:	00041663          	bnez	s0,80002978 <getmem+0x4c>
80002970:	00068513          	mv	a0,a3
80002974:	fd1ff06f          	j	80002944 <getmem+0x18>
80002978:	00442603          	lw	a2,4(s0)
8000297c:	02f61a63          	bne	a2,a5,800029b0 <getmem+0x84>
80002980:	00042603          	lw	a2,0(s0)
80002984:	00c5a023          	sw	a2,0(a1)
80002988:	00472603          	lw	a2,4(a4)
8000298c:	00068513          	mv	a0,a3
80002990:	40f607b3          	sub	a5,a2,a5
80002994:	00f72223          	sw	a5,4(a4)
80002998:	8fdfd0ef          	jal	80000294 <restore>
8000299c:	00c12083          	lw	ra,12(sp)
800029a0:	00040513          	mv	a0,s0
800029a4:	00812403          	lw	s0,8(sp)
800029a8:	01010113          	addi	sp,sp,16
800029ac:	00008067          	ret
800029b0:	02c7f063          	bgeu	a5,a2,800029d0 <getmem+0xa4>
800029b4:	00f40533          	add	a0,s0,a5
800029b8:	00a5a023          	sw	a0,0(a1)
800029bc:	00042583          	lw	a1,0(s0)
800029c0:	40f60633          	sub	a2,a2,a5
800029c4:	00c52223          	sw	a2,4(a0)
800029c8:	00b52023          	sw	a1,0(a0)
800029cc:	fbdff06f          	j	80002988 <getmem+0x5c>
800029d0:	00040593          	mv	a1,s0
800029d4:	00042403          	lw	s0,0(s0)
800029d8:	f95ff06f          	j	8000296c <getmem+0x40>

800029dc <getstk>:
800029dc:	ff010113          	addi	sp,sp,-16
800029e0:	00812423          	sw	s0,8(sp)
800029e4:	00050413          	mv	s0,a0
800029e8:	00112623          	sw	ra,12(sp)
800029ec:	00912223          	sw	s1,4(sp)
800029f0:	89dfd0ef          	jal	8000028c <disable>
800029f4:	02041063          	bnez	s0,80002a14 <getstk+0x38>
800029f8:	89dfd0ef          	jal	80000294 <restore>
800029fc:	fff00513          	li	a0,-1
80002a00:	00c12083          	lw	ra,12(sp)
80002a04:	00812403          	lw	s0,8(sp)
80002a08:	00412483          	lw	s1,4(sp)
80002a0c:	01010113          	addi	sp,sp,16
80002a10:	00008067          	ret
80002a14:	8005f7b7          	lui	a5,0x8005f
80002a18:	00740413          	addi	s0,s0,7
80002a1c:	0407a703          	lw	a4,64(a5) # 8005f040 <memlist>
80002a20:	04078593          	addi	a1,a5,64
80002a24:	00050693          	mv	a3,a0
80002a28:	ff847413          	andi	s0,s0,-8
80002a2c:	00000613          	li	a2,0
80002a30:	00000493          	li	s1,0
80002a34:	04078793          	addi	a5,a5,64
80002a38:	00071863          	bnez	a4,80002a48 <getstk+0x6c>
80002a3c:	02049863          	bnez	s1,80002a6c <getstk+0x90>
80002a40:	00068513          	mv	a0,a3
80002a44:	fb5ff06f          	j	800029f8 <getstk+0x1c>
80002a48:	00472503          	lw	a0,4(a4)
80002a4c:	00857c63          	bgeu	a0,s0,80002a64 <getstk+0x88>
80002a50:	00060593          	mv	a1,a2
80002a54:	00058613          	mv	a2,a1
80002a58:	00070593          	mv	a1,a4
80002a5c:	00072703          	lw	a4,0(a4)
80002a60:	fd9ff06f          	j	80002a38 <getstk+0x5c>
80002a64:	00070493          	mv	s1,a4
80002a68:	fedff06f          	j	80002a54 <getstk+0x78>
80002a6c:	0044a703          	lw	a4,4(s1)
80002a70:	02871663          	bne	a4,s0,80002a9c <getstk+0xc0>
80002a74:	0004a703          	lw	a4,0(s1)
80002a78:	00e62023          	sw	a4,0(a2)
80002a7c:	0047a703          	lw	a4,4(a5)
80002a80:	00068513          	mv	a0,a3
80002a84:	40870733          	sub	a4,a4,s0
80002a88:	00e7a223          	sw	a4,4(a5)
80002a8c:	ffc40413          	addi	s0,s0,-4
80002a90:	805fd0ef          	jal	80000294 <restore>
80002a94:	00848533          	add	a0,s1,s0
80002a98:	f69ff06f          	j	80002a00 <getstk+0x24>
80002a9c:	40870733          	sub	a4,a4,s0
80002aa0:	00e4a223          	sw	a4,4(s1)
80002aa4:	00e484b3          	add	s1,s1,a4
80002aa8:	fd5ff06f          	j	80002a7c <getstk+0xa0>

80002aac <malloc>:
80002aac:	02051063          	bnez	a0,80002acc <malloc+0x20>
80002ab0:	00000513          	li	a0,0
80002ab4:	00008067          	ret
80002ab8:	00000513          	li	a0,0
80002abc:	00c12083          	lw	ra,12(sp)
80002ac0:	00812403          	lw	s0,8(sp)
80002ac4:	01010113          	addi	sp,sp,16
80002ac8:	00008067          	ret
80002acc:	ff010113          	addi	sp,sp,-16
80002ad0:	00812423          	sw	s0,8(sp)
80002ad4:	00850413          	addi	s0,a0,8
80002ad8:	00040513          	mv	a0,s0
80002adc:	00112623          	sw	ra,12(sp)
80002ae0:	e4dff0ef          	jal	8000292c <getmem>
80002ae4:	fff00793          	li	a5,-1
80002ae8:	fcf508e3          	beq	a0,a5,80002ab8 <malloc+0xc>
80002aec:	00a52023          	sw	a0,0(a0)
80002af0:	00852223          	sw	s0,4(a0)
80002af4:	00850513          	addi	a0,a0,8
80002af8:	fc5ff06f          	j	80002abc <malloc+0x10>

80002afc <free>:
80002afc:	00050793          	mv	a5,a0
80002b00:	ff850713          	addi	a4,a0,-8
80002b04:	ff852503          	lw	a0,-8(a0)
80002b08:	00e51663          	bne	a0,a4,80002b14 <free+0x18>
80002b0c:	ffc7a583          	lw	a1,-4(a5)
80002b10:	d1dff06f          	j	8000282c <freemem>
80002b14:	00008067          	ret

80002b18 <realloc>:
80002b18:	fe010113          	addi	sp,sp,-32
80002b1c:	00112e23          	sw	ra,28(sp)
80002b20:	00812c23          	sw	s0,24(sp)
80002b24:	00912a23          	sw	s1,20(sp)
80002b28:	06058063          	beqz	a1,80002b88 <realloc+0x70>
80002b2c:	00050493          	mv	s1,a0
80002b30:	00058513          	mv	a0,a1
80002b34:	00049c63          	bnez	s1,80002b4c <realloc+0x34>
80002b38:	01812403          	lw	s0,24(sp)
80002b3c:	01c12083          	lw	ra,28(sp)
80002b40:	01412483          	lw	s1,20(sp)
80002b44:	02010113          	addi	sp,sp,32
80002b48:	f65ff06f          	j	80002aac <malloc>
80002b4c:	00b12623          	sw	a1,12(sp)
80002b50:	f5dff0ef          	jal	80002aac <malloc>
80002b54:	00050413          	mv	s0,a0
80002b58:	00050c63          	beqz	a0,80002b70 <realloc+0x58>
80002b5c:	00c12603          	lw	a2,12(sp)
80002b60:	00048593          	mv	a1,s1
80002b64:	395010ef          	jal	800046f8 <memcpy>
80002b68:	00048513          	mv	a0,s1
80002b6c:	f91ff0ef          	jal	80002afc <free>
80002b70:	01c12083          	lw	ra,28(sp)
80002b74:	00040513          	mv	a0,s0
80002b78:	01812403          	lw	s0,24(sp)
80002b7c:	01412483          	lw	s1,20(sp)
80002b80:	02010113          	addi	sp,sp,32
80002b84:	00008067          	ret
80002b88:	00000413          	li	s0,0
80002b8c:	fe5ff06f          	j	80002b70 <realloc+0x58>

80002b90 <calloc>:
80002b90:	02b50633          	mul	a2,a0,a1
80002b94:	fe010113          	addi	sp,sp,-32
80002b98:	00812c23          	sw	s0,24(sp)
80002b9c:	00112e23          	sw	ra,28(sp)
80002ba0:	00060513          	mv	a0,a2
80002ba4:	00c12623          	sw	a2,12(sp)
80002ba8:	f05ff0ef          	jal	80002aac <malloc>
80002bac:	00050413          	mv	s0,a0
80002bb0:	00050863          	beqz	a0,80002bc0 <calloc+0x30>
80002bb4:	00c12603          	lw	a2,12(sp)
80002bb8:	00000593          	li	a1,0
80002bbc:	325010ef          	jal	800046e0 <memset>
80002bc0:	01c12083          	lw	ra,28(sp)
80002bc4:	00040513          	mv	a0,s0
80002bc8:	01812403          	lw	s0,24(sp)
80002bcc:	02010113          	addi	sp,sp,32
80002bd0:	00008067          	ret

80002bd4 <atangentf>:
80002bd4:	fc010113          	addi	sp,sp,-64
80002bd8:	03212823          	sw	s2,48(sp)
80002bdc:	03312623          	sw	s3,44(sp)
80002be0:	03412423          	sw	s4,40(sp)
80002be4:	03512223          	sw	s5,36(sp)
80002be8:	02112e23          	sw	ra,60(sp)
80002bec:	02812c23          	sw	s0,56(sp)
80002bf0:	02912a23          	sw	s1,52(sp)
80002bf4:	03612023          	sw	s6,32(sp)
80002bf8:	01712e23          	sw	s7,28(sp)
80002bfc:	00050a93          	mv	s5,a0
80002c00:	00058913          	mv	s2,a1
80002c04:	00060993          	mv	s3,a2
80002c08:	00068a13          	mv	s4,a3
80002c0c:	0a068a63          	beqz	a3,80002cc0 <atangentf+0xec>
80002c10:	00000593          	li	a1,0
80002c14:	00060513          	mv	a0,a2
80002c18:	1f1020ef          	jal	80005608 <__eqsf2>
80002c1c:	06051263          	bnez	a0,80002c80 <atangentf+0xac>
80002c20:	00000593          	li	a1,0
80002c24:	00090513          	mv	a0,s2
80002c28:	1e1020ef          	jal	80005608 <__eqsf2>
80002c2c:	26050463          	beqz	a0,80002e94 <atangentf+0x2c0>
80002c30:	8000c7b7          	lui	a5,0x8000c
80002c34:	74c7a403          	lw	s0,1868(a5) # 8000c74c <_etext>
80002c38:	00000593          	li	a1,0
80002c3c:	00090513          	mv	a0,s2
80002c40:	3d0030ef          	jal	80006010 <__ltsf2>
80002c44:	00055663          	bgez	a0,80002c50 <atangentf+0x7c>
80002c48:	800007b7          	lui	a5,0x80000
80002c4c:	0087c433          	xor	s0,a5,s0
80002c50:	03c12083          	lw	ra,60(sp)
80002c54:	00040513          	mv	a0,s0
80002c58:	03812403          	lw	s0,56(sp)
80002c5c:	03412483          	lw	s1,52(sp)
80002c60:	03012903          	lw	s2,48(sp)
80002c64:	02c12983          	lw	s3,44(sp)
80002c68:	02812a03          	lw	s4,40(sp)
80002c6c:	02412a83          	lw	s5,36(sp)
80002c70:	02012b03          	lw	s6,32(sp)
80002c74:	01c12b83          	lw	s7,28(sp)
80002c78:	04010113          	addi	sp,sp,64
80002c7c:	00008067          	ret
80002c80:	00810593          	addi	a1,sp,8
80002c84:	00090513          	mv	a0,s2
80002c88:	284000ef          	jal	80002f0c <frexpf>
80002c8c:	00c10593          	addi	a1,sp,12
80002c90:	00098513          	mv	a0,s3
80002c94:	278000ef          	jal	80002f0c <frexpf>
80002c98:	00c12703          	lw	a4,12(sp)
80002c9c:	00812783          	lw	a5,8(sp)
80002ca0:	40e787b3          	sub	a5,a5,a4
80002ca4:	08000713          	li	a4,128
80002ca8:	1cf74663          	blt	a4,a5,80002e74 <atangentf+0x2a0>
80002cac:	f8300713          	li	a4,-125
80002cb0:	1ce7c863          	blt	a5,a4,80002e80 <atangentf+0x2ac>
80002cb4:	00098593          	mv	a1,s3
80002cb8:	00090513          	mv	a0,s2
80002cbc:	778020ef          	jal	80005434 <__divsf3>
80002cc0:	3ad000ef          	jal	8000386c <fabsf>
80002cc4:	8000c7b7          	lui	a5,0x8000c
80002cc8:	7547ab03          	lw	s6,1876(a5) # 8000c754 <_etext+0x8>
80002ccc:	00050413          	mv	s0,a0
80002cd0:	8000c4b7          	lui	s1,0x8000c
80002cd4:	000b0593          	mv	a1,s6
80002cd8:	1bc030ef          	jal	80005e94 <__gtsf2>
80002cdc:	04a05263          	blez	a0,80002d20 <atangentf+0x14c>
80002ce0:	00040593          	mv	a1,s0
80002ce4:	000b0513          	mv	a0,s6
80002ce8:	74c020ef          	jal	80005434 <__divsf3>
80002cec:	7584a583          	lw	a1,1880(s1) # 8000c758 <_etext+0xc>
80002cf0:	00050413          	mv	s0,a0
80002cf4:	1a0030ef          	jal	80005e94 <__gtsf2>
80002cf8:	16a04a63          	bgtz	a0,80002e6c <atangentf+0x298>
80002cfc:	8000c7b7          	lui	a5,0x8000c
80002d00:	76c7a583          	lw	a1,1900(a5) # 8000c76c <_etext+0x20>
80002d04:	00040513          	mv	a0,s0
80002d08:	00200493          	li	s1,2
80002d0c:	304030ef          	jal	80006010 <__ltsf2>
80002d10:	0a055063          	bgez	a0,80002db0 <atangentf+0x1dc>
80002d14:	800007b7          	lui	a5,0x80000
80002d18:	0087c433          	xor	s0,a5,s0
80002d1c:	1040006f          	j	80002e20 <atangentf+0x24c>
80002d20:	7584a583          	lw	a1,1880(s1)
80002d24:	00040513          	mv	a0,s0
80002d28:	00000493          	li	s1,0
80002d2c:	168030ef          	jal	80005e94 <__gtsf2>
80002d30:	04a05c63          	blez	a0,80002d88 <atangentf+0x1b4>
80002d34:	8000c7b7          	lui	a5,0x8000c
80002d38:	75c7a583          	lw	a1,1884(a5) # 8000c75c <_etext+0x10>
80002d3c:	00040513          	mv	a0,s0
80002d40:	8000cb37          	lui	s6,0x8000c
80002d44:	594030ef          	jal	800062d8 <__mulsf3>
80002d48:	760b2583          	lw	a1,1888(s6) # 8000c760 <_etext+0x14>
80002d4c:	00148493          	addi	s1,s1,1
80002d50:	180020ef          	jal	80004ed0 <__subsf3>
80002d54:	760b2583          	lw	a1,1888(s6)
80002d58:	178020ef          	jal	80004ed0 <__subsf3>
80002d5c:	00040593          	mv	a1,s0
80002d60:	178020ef          	jal	80004ed8 <__addsf3>
80002d64:	8000c7b7          	lui	a5,0x8000c
80002d68:	7647a583          	lw	a1,1892(a5) # 8000c764 <_etext+0x18>
80002d6c:	00050b13          	mv	s6,a0
80002d70:	00040513          	mv	a0,s0
80002d74:	164020ef          	jal	80004ed8 <__addsf3>
80002d78:	00050593          	mv	a1,a0
80002d7c:	000b0513          	mv	a0,s6
80002d80:	6b4020ef          	jal	80005434 <__divsf3>
80002d84:	00050413          	mv	s0,a0
80002d88:	8000c7b7          	lui	a5,0x8000c
80002d8c:	7687a583          	lw	a1,1896(a5) # 8000c768 <_etext+0x1c>
80002d90:	00040513          	mv	a0,s0
80002d94:	100030ef          	jal	80005e94 <__gtsf2>
80002d98:	00a05c63          	blez	a0,80002db0 <atangentf+0x1dc>
80002d9c:	8000c7b7          	lui	a5,0x8000c
80002da0:	76c7a583          	lw	a1,1900(a5) # 8000c76c <_etext+0x20>
80002da4:	00040513          	mv	a0,s0
80002da8:	268030ef          	jal	80006010 <__ltsf2>
80002dac:	06054663          	bltz	a0,80002e18 <atangentf+0x244>
80002db0:	00040593          	mv	a1,s0
80002db4:	00040513          	mv	a0,s0
80002db8:	520030ef          	jal	800062d8 <__mulsf3>
80002dbc:	8000c7b7          	lui	a5,0x8000c
80002dc0:	7707a583          	lw	a1,1904(a5) # 8000c770 <_etext+0x24>
80002dc4:	00050b13          	mv	s6,a0
80002dc8:	510030ef          	jal	800062d8 <__mulsf3>
80002dcc:	8000c7b7          	lui	a5,0x8000c
80002dd0:	7747a583          	lw	a1,1908(a5) # 8000c774 <_etext+0x28>
80002dd4:	0fc020ef          	jal	80004ed0 <__subsf3>
80002dd8:	000b0593          	mv	a1,s6
80002ddc:	4fc030ef          	jal	800062d8 <__mulsf3>
80002de0:	8000c7b7          	lui	a5,0x8000c
80002de4:	7787a583          	lw	a1,1912(a5) # 8000c778 <_etext+0x2c>
80002de8:	00050b93          	mv	s7,a0
80002dec:	000b0513          	mv	a0,s6
80002df0:	0e8020ef          	jal	80004ed8 <__addsf3>
80002df4:	00050593          	mv	a1,a0
80002df8:	000b8513          	mv	a0,s7
80002dfc:	638020ef          	jal	80005434 <__divsf3>
80002e00:	00040593          	mv	a1,s0
80002e04:	4d4030ef          	jal	800062d8 <__mulsf3>
80002e08:	00050593          	mv	a1,a0
80002e0c:	00040513          	mv	a0,s0
80002e10:	0c8020ef          	jal	80004ed8 <__addsf3>
80002e14:	00050413          	mv	s0,a0
80002e18:	00100793          	li	a5,1
80002e1c:	ee97cce3          	blt	a5,s1,80002d14 <atangentf+0x140>
80002e20:	8000c7b7          	lui	a5,0x8000c
80002e24:	00249493          	slli	s1,s1,0x2
80002e28:	58878793          	addi	a5,a5,1416 # 8000c588 <a>
80002e2c:	009787b3          	add	a5,a5,s1
80002e30:	0007a583          	lw	a1,0(a5)
80002e34:	00040513          	mv	a0,s0
80002e38:	0a0020ef          	jal	80004ed8 <__addsf3>
80002e3c:	00050413          	mv	s0,a0
80002e40:	040a0463          	beqz	s4,80002e88 <atangentf+0x2b4>
80002e44:	00000593          	li	a1,0
80002e48:	00098513          	mv	a0,s3
80002e4c:	1c4030ef          	jal	80006010 <__ltsf2>
80002e50:	de0554e3          	bgez	a0,80002c38 <atangentf+0x64>
80002e54:	8000c7b7          	lui	a5,0x8000c
80002e58:	77c7a503          	lw	a0,1916(a5) # 8000c77c <_etext+0x30>
80002e5c:	00040593          	mv	a1,s0
80002e60:	070020ef          	jal	80004ed0 <__subsf3>
80002e64:	00050413          	mv	s0,a0
80002e68:	dd1ff06f          	j	80002c38 <atangentf+0x64>
80002e6c:	00200493          	li	s1,2
80002e70:	ec5ff06f          	j	80002d34 <atangentf+0x160>
80002e74:	8000c7b7          	lui	a5,0x8000c
80002e78:	74c7a403          	lw	s0,1868(a5) # 8000c74c <_etext>
80002e7c:	fc9ff06f          	j	80002e44 <atangentf+0x270>
80002e80:	00000413          	li	s0,0
80002e84:	fc1ff06f          	j	80002e44 <atangentf+0x270>
80002e88:	00000593          	li	a1,0
80002e8c:	000a8513          	mv	a0,s5
80002e90:	db1ff06f          	j	80002c40 <atangentf+0x6c>
80002e94:	8000c7b7          	lui	a5,0x8000c
80002e98:	7507a403          	lw	s0,1872(a5) # 8000c750 <_etext+0x4>
80002e9c:	db5ff06f          	j	80002c50 <atangentf+0x7c>

80002ea0 <atanf>:
80002ea0:	ff010113          	addi	sp,sp,-16
80002ea4:	00812423          	sw	s0,8(sp)
80002ea8:	00112623          	sw	ra,12(sp)
80002eac:	00050413          	mv	s0,a0
80002eb0:	288000ef          	jal	80003138 <numtestf>
80002eb4:	00100793          	li	a5,1
80002eb8:	02f50863          	beq	a0,a5,80002ee8 <atanf+0x48>
80002ebc:	00200793          	li	a5,2
80002ec0:	02f50863          	beq	a0,a5,80002ef0 <atanf+0x50>
80002ec4:	04050063          	beqz	a0,80002f04 <atanf+0x64>
80002ec8:	00040513          	mv	a0,s0
80002ecc:	00812403          	lw	s0,8(sp)
80002ed0:	00c12083          	lw	ra,12(sp)
80002ed4:	00000613          	li	a2,0
80002ed8:	00000693          	li	a3,0
80002edc:	00060593          	mv	a1,a2
80002ee0:	01010113          	addi	sp,sp,16
80002ee4:	cf1ff06f          	j	80002bd4 <atangentf>
80002ee8:	8000c7b7          	lui	a5,0x8000c
80002eec:	74c7a403          	lw	s0,1868(a5) # 8000c74c <_etext>
80002ef0:	00c12083          	lw	ra,12(sp)
80002ef4:	00040513          	mv	a0,s0
80002ef8:	00812403          	lw	s0,8(sp)
80002efc:	01010113          	addi	sp,sp,16
80002f00:	00008067          	ret
80002f04:	00000413          	li	s0,0
80002f08:	fe9ff06f          	j	80002ef0 <atanf+0x50>

80002f0c <frexpf>:
80002f0c:	ff010113          	addi	sp,sp,-16
80002f10:	00912223          	sw	s1,4(sp)
80002f14:	00058493          	mv	s1,a1
80002f18:	00000593          	li	a1,0
80002f1c:	00812423          	sw	s0,8(sp)
80002f20:	00112623          	sw	ra,12(sp)
80002f24:	00050413          	mv	s0,a0
80002f28:	6e0020ef          	jal	80005608 <__eqsf2>
80002f2c:	00000793          	li	a5,0
80002f30:	02050063          	beqz	a0,80002f50 <frexpf+0x44>
80002f34:	41745793          	srai	a5,s0,0x17
80002f38:	00941413          	slli	s0,s0,0x9
80002f3c:	0ff7f793          	zext.b	a5,a5
80002f40:	00945413          	srli	s0,s0,0x9
80002f44:	3f000737          	lui	a4,0x3f000
80002f48:	f8278793          	addi	a5,a5,-126
80002f4c:	00e46433          	or	s0,s0,a4
80002f50:	00c12083          	lw	ra,12(sp)
80002f54:	00040513          	mv	a0,s0
80002f58:	00812403          	lw	s0,8(sp)
80002f5c:	00f4a023          	sw	a5,0(s1)
80002f60:	00412483          	lw	s1,4(sp)
80002f64:	01010113          	addi	sp,sp,16
80002f68:	00008067          	ret

80002f6c <logarithm>:
80002f6c:	fd010113          	addi	sp,sp,-48
80002f70:	03212023          	sw	s2,32(sp)
80002f74:	00058913          	mv	s2,a1
80002f78:	00000593          	li	a1,0
80002f7c:	02812423          	sw	s0,40(sp)
80002f80:	02112623          	sw	ra,44(sp)
80002f84:	02912223          	sw	s1,36(sp)
80002f88:	01312e23          	sw	s3,28(sp)
80002f8c:	00050413          	mv	s0,a0
80002f90:	678020ef          	jal	80005608 <__eqsf2>
80002f94:	18050663          	beqz	a0,80003120 <logarithm+0x1b4>
80002f98:	00000593          	li	a1,0
80002f9c:	00040513          	mv	a0,s0
80002fa0:	070030ef          	jal	80006010 <__ltsf2>
80002fa4:	18054463          	bltz	a0,8000312c <logarithm+0x1c0>
80002fa8:	00141793          	slli	a5,s0,0x1
80002fac:	0017d793          	srli	a5,a5,0x1
80002fb0:	80100737          	lui	a4,0x80100
80002fb4:	00e787b3          	add	a5,a5,a4
80002fb8:	1607da63          	bgez	a5,8000312c <logarithm+0x1c0>
80002fbc:	00c10593          	addi	a1,sp,12
80002fc0:	00040513          	mv	a0,s0
80002fc4:	f49ff0ef          	jal	80002f0c <frexpf>
80002fc8:	8000c437          	lui	s0,0x8000c
80002fcc:	76042583          	lw	a1,1888(s0) # 8000c760 <_etext+0x14>
80002fd0:	00050993          	mv	s3,a0
80002fd4:	6fd010ef          	jal	80004ed0 <__subsf3>
80002fd8:	8000c7b7          	lui	a5,0x8000c
80002fdc:	7847a583          	lw	a1,1924(a5) # 8000c784 <_etext+0x38>
80002fe0:	00050493          	mv	s1,a0
80002fe4:	00098513          	mv	a0,s3
80002fe8:	6ad020ef          	jal	80005e94 <__gtsf2>
80002fec:	10a05e63          	blez	a0,80003108 <logarithm+0x19c>
80002ff0:	76042583          	lw	a1,1888(s0)
80002ff4:	00048513          	mv	a0,s1
80002ff8:	6d9010ef          	jal	80004ed0 <__subsf3>
80002ffc:	76042583          	lw	a1,1888(s0)
80003000:	00050493          	mv	s1,a0
80003004:	00098513          	mv	a0,s3
80003008:	2d0030ef          	jal	800062d8 <__mulsf3>
8000300c:	76042583          	lw	a1,1888(s0)
80003010:	6c9010ef          	jal	80004ed8 <__addsf3>
80003014:	00050593          	mv	a1,a0
80003018:	00048513          	mv	a0,s1
8000301c:	418020ef          	jal	80005434 <__divsf3>
80003020:	00050593          	mv	a1,a0
80003024:	00050413          	mv	s0,a0
80003028:	2b0030ef          	jal	800062d8 <__mulsf3>
8000302c:	00050493          	mv	s1,a0
80003030:	00050593          	mv	a1,a0
80003034:	00040513          	mv	a0,s0
80003038:	2a0030ef          	jal	800062d8 <__mulsf3>
8000303c:	8000c7b7          	lui	a5,0x8000c
80003040:	7887a583          	lw	a1,1928(a5) # 8000c788 <_etext+0x3c>
80003044:	294030ef          	jal	800062d8 <__mulsf3>
80003048:	8000c7b7          	lui	a5,0x8000c
8000304c:	7547a583          	lw	a1,1876(a5) # 8000c754 <_etext+0x8>
80003050:	00050993          	mv	s3,a0
80003054:	00048513          	mv	a0,s1
80003058:	681010ef          	jal	80004ed8 <__addsf3>
8000305c:	00048593          	mv	a1,s1
80003060:	278030ef          	jal	800062d8 <__mulsf3>
80003064:	8000c7b7          	lui	a5,0x8000c
80003068:	78c7a583          	lw	a1,1932(a5) # 8000c78c <_etext+0x40>
8000306c:	665010ef          	jal	80004ed0 <__subsf3>
80003070:	00050593          	mv	a1,a0
80003074:	00098513          	mv	a0,s3
80003078:	3bc020ef          	jal	80005434 <__divsf3>
8000307c:	00050593          	mv	a1,a0
80003080:	00040513          	mv	a0,s0
80003084:	655010ef          	jal	80004ed8 <__addsf3>
80003088:	00050413          	mv	s0,a0
8000308c:	00c12503          	lw	a0,12(sp)
80003090:	04050063          	beqz	a0,800030d0 <logarithm+0x164>
80003094:	2fd020ef          	jal	80005b90 <__floatsisf>
80003098:	8000c7b7          	lui	a5,0x8000c
8000309c:	7907a583          	lw	a1,1936(a5) # 8000c790 <_etext+0x44>
800030a0:	00050493          	mv	s1,a0
800030a4:	234030ef          	jal	800062d8 <__mulsf3>
800030a8:	00040593          	mv	a1,s0
800030ac:	62d010ef          	jal	80004ed8 <__addsf3>
800030b0:	8000c7b7          	lui	a5,0x8000c
800030b4:	7947a583          	lw	a1,1940(a5) # 8000c794 <_etext+0x48>
800030b8:	00050413          	mv	s0,a0
800030bc:	00048513          	mv	a0,s1
800030c0:	218030ef          	jal	800062d8 <__mulsf3>
800030c4:	00040593          	mv	a1,s0
800030c8:	611010ef          	jal	80004ed8 <__addsf3>
800030cc:	00050413          	mv	s0,a0
800030d0:	00090c63          	beqz	s2,800030e8 <logarithm+0x17c>
800030d4:	8000c7b7          	lui	a5,0x8000c
800030d8:	7987a583          	lw	a1,1944(a5) # 8000c798 <_etext+0x4c>
800030dc:	00040513          	mv	a0,s0
800030e0:	1f8030ef          	jal	800062d8 <__mulsf3>
800030e4:	00050413          	mv	s0,a0
800030e8:	02c12083          	lw	ra,44(sp)
800030ec:	00040513          	mv	a0,s0
800030f0:	02812403          	lw	s0,40(sp)
800030f4:	02412483          	lw	s1,36(sp)
800030f8:	02012903          	lw	s2,32(sp)
800030fc:	01c12983          	lw	s3,28(sp)
80003100:	03010113          	addi	sp,sp,48
80003104:	00008067          	ret
80003108:	00c12783          	lw	a5,12(sp)
8000310c:	76042583          	lw	a1,1888(s0)
80003110:	00048513          	mv	a0,s1
80003114:	fff78793          	addi	a5,a5,-1
80003118:	00f12623          	sw	a5,12(sp)
8000311c:	eedff06f          	j	80003008 <logarithm+0x9c>
80003120:	8000c7b7          	lui	a5,0x8000c
80003124:	7807a403          	lw	s0,1920(a5) # 8000c780 <_etext+0x34>
80003128:	fc1ff06f          	j	800030e8 <logarithm+0x17c>
8000312c:	8000c7b7          	lui	a5,0x8000c
80003130:	7507a403          	lw	s0,1872(a5) # 8000c750 <_etext+0x4>
80003134:	fb5ff06f          	j	800030e8 <logarithm+0x17c>

80003138 <numtestf>:
80003138:	ff010113          	addi	sp,sp,-16
8000313c:	00000593          	li	a1,0
80003140:	00112623          	sw	ra,12(sp)
80003144:	4c4020ef          	jal	80005608 <__eqsf2>
80003148:	00050463          	beqz	a0,80003150 <numtestf+0x18>
8000314c:	00300513          	li	a0,3
80003150:	00c12083          	lw	ra,12(sp)
80003154:	01010113          	addi	sp,sp,16
80003158:	00008067          	ret

8000315c <modff>:
8000315c:	41755693          	srai	a3,a0,0x17
80003160:	ff010113          	addi	sp,sp,-16
80003164:	0ff6f693          	zext.b	a3,a3
80003168:	00912223          	sw	s1,4(sp)
8000316c:	00112623          	sw	ra,12(sp)
80003170:	00812423          	sw	s0,8(sp)
80003174:	f8168693          	addi	a3,a3,-127
80003178:	01600713          	li	a4,22
8000317c:	00050793          	mv	a5,a0
80003180:	00058493          	mv	s1,a1
80003184:	06d74063          	blt	a4,a3,800031e4 <modff+0x88>
80003188:	0206d263          	bgez	a3,800031ac <modff+0x50>
8000318c:	800007b7          	lui	a5,0x80000
80003190:	00f577b3          	and	a5,a0,a5
80003194:	00c12083          	lw	ra,12(sp)
80003198:	00812403          	lw	s0,8(sp)
8000319c:	00f4a023          	sw	a5,0(s1)
800031a0:	00412483          	lw	s1,4(sp)
800031a4:	01010113          	addi	sp,sp,16
800031a8:	00008067          	ret
800031ac:	00800737          	lui	a4,0x800
800031b0:	fff70713          	addi	a4,a4,-1 # 7fffff <_start-0x7f800001>
800031b4:	40d75733          	sra	a4,a4,a3
800031b8:	00e576b3          	and	a3,a0,a4
800031bc:	00069863          	bnez	a3,800031cc <modff+0x70>
800031c0:	80000537          	lui	a0,0x80000
800031c4:	00a7f533          	and	a0,a5,a0
800031c8:	fcdff06f          	j	80003194 <modff+0x38>
800031cc:	fff74713          	not	a4,a4
800031d0:	00a77433          	and	s0,a4,a0
800031d4:	00040593          	mv	a1,s0
800031d8:	4f9010ef          	jal	80004ed0 <__subsf3>
800031dc:	00040793          	mv	a5,s0
800031e0:	fb5ff06f          	j	80003194 <modff+0x38>
800031e4:	80000537          	lui	a0,0x80000
800031e8:	00f57533          	and	a0,a0,a5
800031ec:	fa9ff06f          	j	80003194 <modff+0x38>

800031f0 <floorf>:
800031f0:	fe010113          	addi	sp,sp,-32
800031f4:	8000c7b7          	lui	a5,0x8000c
800031f8:	01212823          	sw	s2,16(sp)
800031fc:	79c7a903          	lw	s2,1948(a5) # 8000c79c <_etext+0x50>
80003200:	00912a23          	sw	s1,20(sp)
80003204:	00112e23          	sw	ra,28(sp)
80003208:	00090593          	mv	a1,s2
8000320c:	00812c23          	sw	s0,24(sp)
80003210:	00050493          	mv	s1,a0
80003214:	481020ef          	jal	80005e94 <__gtsf2>
80003218:	02a05a63          	blez	a0,8000324c <floorf+0x5c>
8000321c:	8000c7b7          	lui	a5,0x8000c
80003220:	7547a583          	lw	a1,1876(a5) # 8000c754 <_etext+0x8>
80003224:	00048513          	mv	a0,s1
80003228:	5e9020ef          	jal	80006010 <__ltsf2>
8000322c:	02055063          	bgez	a0,8000324c <floorf+0x5c>
80003230:	00000593          	li	a1,0
80003234:	00048513          	mv	a0,s1
80003238:	39d020ef          	jal	80005dd4 <__gesf2>
8000323c:	00000413          	li	s0,0
80003240:	04055863          	bgez	a0,80003290 <floorf+0xa0>
80003244:	00090413          	mv	s0,s2
80003248:	0480006f          	j	80003290 <floorf+0xa0>
8000324c:	00c10593          	addi	a1,sp,12
80003250:	00048513          	mv	a0,s1
80003254:	f09ff0ef          	jal	8000315c <modff>
80003258:	00000593          	li	a1,0
8000325c:	3ac020ef          	jal	80005608 <__eqsf2>
80003260:	00048413          	mv	s0,s1
80003264:	02050663          	beqz	a0,80003290 <floorf+0xa0>
80003268:	00000593          	li	a1,0
8000326c:	00048513          	mv	a0,s1
80003270:	00c12403          	lw	s0,12(sp)
80003274:	361020ef          	jal	80005dd4 <__gesf2>
80003278:	00055c63          	bgez	a0,80003290 <floorf+0xa0>
8000327c:	8000c7b7          	lui	a5,0x8000c
80003280:	7547a583          	lw	a1,1876(a5) # 8000c754 <_etext+0x8>
80003284:	00040513          	mv	a0,s0
80003288:	449010ef          	jal	80004ed0 <__subsf3>
8000328c:	00050413          	mv	s0,a0
80003290:	01c12083          	lw	ra,28(sp)
80003294:	00040513          	mv	a0,s0
80003298:	01812403          	lw	s0,24(sp)
8000329c:	01412483          	lw	s1,20(sp)
800032a0:	01012903          	lw	s2,16(sp)
800032a4:	02010113          	addi	sp,sp,32
800032a8:	00008067          	ret

800032ac <ldexpf>:
800032ac:	ff010113          	addi	sp,sp,-16
800032b0:	00812423          	sw	s0,8(sp)
800032b4:	00912223          	sw	s1,4(sp)
800032b8:	01212023          	sw	s2,0(sp)
800032bc:	00112623          	sw	ra,12(sp)
800032c0:	00058913          	mv	s2,a1
800032c4:	00050413          	mv	s0,a0
800032c8:	00050493          	mv	s1,a0
800032cc:	0c5020ef          	jal	80005b90 <__floatsisf>
800032d0:	00000593          	li	a1,0
800032d4:	334020ef          	jal	80005608 <__eqsf2>
800032d8:	02050a63          	beqz	a0,8000330c <ldexpf+0x60>
800032dc:	41745413          	srai	s0,s0,0x17
800032e0:	0ff47413          	zext.b	s0,s0
800032e4:	012405b3          	add	a1,s0,s2
800032e8:	0ff00793          	li	a5,255
800032ec:	02b7ce63          	blt	a5,a1,80003328 <ldexpf+0x7c>
800032f0:	00100793          	li	a5,1
800032f4:	04b7d063          	bge	a5,a1,80003334 <ldexpf+0x88>
800032f8:	808007b7          	lui	a5,0x80800
800032fc:	fff78793          	addi	a5,a5,-1 # 807fffff <nnames+0x7a0fab>
80003300:	00f4f4b3          	and	s1,s1,a5
80003304:	01759413          	slli	s0,a1,0x17
80003308:	0084e433          	or	s0,s1,s0
8000330c:	00c12083          	lw	ra,12(sp)
80003310:	00040513          	mv	a0,s0
80003314:	00812403          	lw	s0,8(sp)
80003318:	00412483          	lw	s1,4(sp)
8000331c:	00012903          	lw	s2,0(sp)
80003320:	01010113          	addi	sp,sp,16
80003324:	00008067          	ret
80003328:	8000c7b7          	lui	a5,0x8000c
8000332c:	7a07a403          	lw	s0,1952(a5) # 8000c7a0 <_etext+0x54>
80003330:	fddff06f          	j	8000330c <ldexpf+0x60>
80003334:	8000c7b7          	lui	a5,0x8000c
80003338:	7807a403          	lw	s0,1920(a5) # 8000c780 <_etext+0x34>
8000333c:	fd1ff06f          	j	8000330c <ldexpf+0x60>

80003340 <expf>:
80003340:	ff010113          	addi	sp,sp,-16
80003344:	00000593          	li	a1,0
80003348:	00812423          	sw	s0,8(sp)
8000334c:	00112623          	sw	ra,12(sp)
80003350:	00912223          	sw	s1,4(sp)
80003354:	01212023          	sw	s2,0(sp)
80003358:	00050413          	mv	s0,a0
8000335c:	2ac020ef          	jal	80005608 <__eqsf2>
80003360:	04050a63          	beqz	a0,800033b4 <expf+0x74>
80003364:	8000c7b7          	lui	a5,0x8000c
80003368:	7a47a583          	lw	a1,1956(a5) # 8000c7a4 <_etext+0x58>
8000336c:	00040513          	mv	a0,s0
80003370:	325020ef          	jal	80005e94 <__gtsf2>
80003374:	04a04463          	bgtz	a0,800033bc <expf+0x7c>
80003378:	8000c7b7          	lui	a5,0x8000c
8000337c:	7a87a583          	lw	a1,1960(a5) # 8000c7a8 <_etext+0x5c>
80003380:	00040513          	mv	a0,s0
80003384:	48d020ef          	jal	80006010 <__ltsf2>
80003388:	02054a63          	bltz	a0,800033bc <expf+0x7c>
8000338c:	8000c7b7          	lui	a5,0x8000c
80003390:	7687a583          	lw	a1,1896(a5) # 8000c768 <_etext+0x1c>
80003394:	00040513          	mv	a0,s0
80003398:	2fd020ef          	jal	80005e94 <__gtsf2>
8000339c:	02a05e63          	blez	a0,800033d8 <expf+0x98>
800033a0:	8000c7b7          	lui	a5,0x8000c
800033a4:	76c7a583          	lw	a1,1900(a5) # 8000c76c <_etext+0x20>
800033a8:	00040513          	mv	a0,s0
800033ac:	465020ef          	jal	80006010 <__ltsf2>
800033b0:	10055263          	bgez	a0,800034b4 <expf+0x174>
800033b4:	8000c7b7          	lui	a5,0x8000c
800033b8:	7547a403          	lw	s0,1876(a5) # 8000c754 <_etext+0x8>
800033bc:	00c12083          	lw	ra,12(sp)
800033c0:	00040513          	mv	a0,s0
800033c4:	00812403          	lw	s0,8(sp)
800033c8:	00412483          	lw	s1,4(sp)
800033cc:	00012903          	lw	s2,0(sp)
800033d0:	01010113          	addi	sp,sp,16
800033d4:	00008067          	ret
800033d8:	00000593          	li	a1,0
800033dc:	00040513          	mv	a0,s0
800033e0:	431020ef          	jal	80006010 <__ltsf2>
800033e4:	0c055863          	bgez	a0,800034b4 <expf+0x174>
800033e8:	8000c7b7          	lui	a5,0x8000c
800033ec:	7ac7a583          	lw	a1,1964(a5) # 8000c7ac <_etext+0x60>
800033f0:	00040513          	mv	a0,s0
800033f4:	6e5020ef          	jal	800062d8 <__mulsf3>
800033f8:	8000c7b7          	lui	a5,0x8000c
800033fc:	7607a583          	lw	a1,1888(a5) # 8000c760 <_etext+0x14>
80003400:	2d1010ef          	jal	80004ed0 <__subsf3>
80003404:	454020ef          	jal	80005858 <__fixsfsi>
80003408:	00050493          	mv	s1,a0
8000340c:	784020ef          	jal	80005b90 <__floatsisf>
80003410:	8000c7b7          	lui	a5,0x8000c
80003414:	7b07a583          	lw	a1,1968(a5) # 8000c7b0 <_etext+0x64>
80003418:	00148493          	addi	s1,s1,1
8000341c:	6bd020ef          	jal	800062d8 <__mulsf3>
80003420:	00050593          	mv	a1,a0
80003424:	00040513          	mv	a0,s0
80003428:	2a9010ef          	jal	80004ed0 <__subsf3>
8000342c:	00050593          	mv	a1,a0
80003430:	00050413          	mv	s0,a0
80003434:	6a5020ef          	jal	800062d8 <__mulsf3>
80003438:	8000c7b7          	lui	a5,0x8000c
8000343c:	7b47a583          	lw	a1,1972(a5) # 8000c7b4 <_etext+0x68>
80003440:	00050913          	mv	s2,a0
80003444:	695020ef          	jal	800062d8 <__mulsf3>
80003448:	8000c7b7          	lui	a5,0x8000c
8000344c:	7b87a583          	lw	a1,1976(a5) # 8000c7b8 <_etext+0x6c>
80003450:	289010ef          	jal	80004ed8 <__addsf3>
80003454:	00040593          	mv	a1,s0
80003458:	681020ef          	jal	800062d8 <__mulsf3>
8000345c:	8000c7b7          	lui	a5,0x8000c
80003460:	7bc7a583          	lw	a1,1980(a5) # 8000c7bc <_etext+0x70>
80003464:	00050413          	mv	s0,a0
80003468:	00090513          	mv	a0,s2
8000346c:	66d020ef          	jal	800062d8 <__mulsf3>
80003470:	8000c937          	lui	s2,0x8000c
80003474:	76092583          	lw	a1,1888(s2) # 8000c760 <_etext+0x14>
80003478:	261010ef          	jal	80004ed8 <__addsf3>
8000347c:	00040593          	mv	a1,s0
80003480:	251010ef          	jal	80004ed0 <__subsf3>
80003484:	00050593          	mv	a1,a0
80003488:	00040513          	mv	a0,s0
8000348c:	7a9010ef          	jal	80005434 <__divsf3>
80003490:	76092583          	lw	a1,1888(s2)
80003494:	245010ef          	jal	80004ed8 <__addsf3>
80003498:	00812403          	lw	s0,8(sp)
8000349c:	00c12083          	lw	ra,12(sp)
800034a0:	00012903          	lw	s2,0(sp)
800034a4:	00048593          	mv	a1,s1
800034a8:	00412483          	lw	s1,4(sp)
800034ac:	01010113          	addi	sp,sp,16
800034b0:	dfdff06f          	j	800032ac <ldexpf>
800034b4:	8000c7b7          	lui	a5,0x8000c
800034b8:	7ac7a583          	lw	a1,1964(a5) # 8000c7ac <_etext+0x60>
800034bc:	00040513          	mv	a0,s0
800034c0:	619020ef          	jal	800062d8 <__mulsf3>
800034c4:	8000c7b7          	lui	a5,0x8000c
800034c8:	7607a583          	lw	a1,1888(a5) # 8000c760 <_etext+0x14>
800034cc:	20d010ef          	jal	80004ed8 <__addsf3>
800034d0:	f35ff06f          	j	80003404 <expf+0xc4>

800034d4 <powf>:
800034d4:	fc010113          	addi	sp,sp,-64
800034d8:	03212823          	sw	s2,48(sp)
800034dc:	00058913          	mv	s2,a1
800034e0:	02812c23          	sw	s0,56(sp)
800034e4:	01810593          	addi	a1,sp,24
800034e8:	00050413          	mv	s0,a0
800034ec:	00090513          	mv	a0,s2
800034f0:	02112e23          	sw	ra,60(sp)
800034f4:	02912a23          	sw	s1,52(sp)
800034f8:	03312623          	sw	s3,44(sp)
800034fc:	03412423          	sw	s4,40(sp)
80003500:	c5dff0ef          	jal	8000315c <modff>
80003504:	00000593          	li	a1,0
80003508:	00050993          	mv	s3,a0
8000350c:	0fc020ef          	jal	80005608 <__eqsf2>
80003510:	00000493          	li	s1,0
80003514:	02051263          	bnez	a0,80003538 <powf+0x64>
80003518:	fff00593          	li	a1,-1
8000351c:	00090513          	mv	a0,s2
80003520:	d8dff0ef          	jal	800032ac <ldexpf>
80003524:	01c10593          	addi	a1,sp,28
80003528:	c35ff0ef          	jal	8000315c <modff>
8000352c:	00000593          	li	a1,0
80003530:	0d8020ef          	jal	80005608 <__eqsf2>
80003534:	00153493          	seqz	s1,a0
80003538:	00000593          	li	a1,0
8000353c:	00040513          	mv	a0,s0
80003540:	0c8020ef          	jal	80005608 <__eqsf2>
80003544:	04050e63          	beqz	a0,800035a0 <powf+0xcc>
80003548:	00040513          	mv	a0,s0
8000354c:	320000ef          	jal	8000386c <fabsf>
80003550:	00000593          	li	a1,0
80003554:	a19ff0ef          	jal	80002f6c <logarithm>
80003558:	00090593          	mv	a1,s2
8000355c:	57d020ef          	jal	800062d8 <__mulsf3>
80003560:	8000c7b7          	lui	a5,0x8000c
80003564:	7a47a583          	lw	a1,1956(a5) # 8000c7a4 <_etext+0x58>
80003568:	00040a13          	mv	s4,s0
8000356c:	00050913          	mv	s2,a0
80003570:	00a12e23          	sw	a0,28(sp)
80003574:	061020ef          	jal	80005dd4 <__gesf2>
80003578:	04054663          	bltz	a0,800035c4 <powf+0xf0>
8000357c:	0e045c63          	bgez	s0,80003674 <powf+0x1a0>
80003580:	00000593          	li	a1,0
80003584:	00098513          	mv	a0,s3
80003588:	080020ef          	jal	80005608 <__eqsf2>
8000358c:	00000413          	li	s0,0
80003590:	00051863          	bnez	a0,800035a0 <powf+0xcc>
80003594:	0e049063          	bnez	s1,80003674 <powf+0x1a0>
80003598:	8000c7b7          	lui	a5,0x8000c
8000359c:	7807a403          	lw	s0,1920(a5) # 8000c780 <_etext+0x34>
800035a0:	03c12083          	lw	ra,60(sp)
800035a4:	00040513          	mv	a0,s0
800035a8:	03812403          	lw	s0,56(sp)
800035ac:	03412483          	lw	s1,52(sp)
800035b0:	03012903          	lw	s2,48(sp)
800035b4:	02c12983          	lw	s3,44(sp)
800035b8:	02812a03          	lw	s4,40(sp)
800035bc:	04010113          	addi	sp,sp,64
800035c0:	00008067          	ret
800035c4:	8000c7b7          	lui	a5,0x8000c
800035c8:	7a87a583          	lw	a1,1960(a5) # 8000c7a8 <_etext+0x5c>
800035cc:	00090513          	mv	a0,s2
800035d0:	241020ef          	jal	80006010 <__ltsf2>
800035d4:	0a054663          	bltz	a0,80003680 <powf+0x1ac>
800035d8:	00000593          	li	a1,0
800035dc:	00098513          	mv	a0,s3
800035e0:	028020ef          	jal	80005608 <__eqsf2>
800035e4:	0a051263          	bnez	a0,80003688 <powf+0x1b4>
800035e8:	01812983          	lw	s3,24(sp)
800035ec:	00098513          	mv	a0,s3
800035f0:	27c000ef          	jal	8000386c <fabsf>
800035f4:	8000c7b7          	lui	a5,0x8000c
800035f8:	7c07a583          	lw	a1,1984(a5) # 8000c7c0 <_etext+0x74>
800035fc:	151020ef          	jal	80005f4c <__lesf2>
80003600:	08a04863          	bgtz	a0,80003690 <powf+0x1bc>
80003604:	00098513          	mv	a0,s3
80003608:	250020ef          	jal	80005858 <__fixsfsi>
8000360c:	8000c9b7          	lui	s3,0x8000c
80003610:	41f55793          	srai	a5,a0,0x1f
80003614:	00040593          	mv	a1,s0
80003618:	7549a403          	lw	s0,1876(s3) # 8000c754 <_etext+0x8>
8000361c:	00a7c4b3          	xor	s1,a5,a0
80003620:	00050913          	mv	s2,a0
80003624:	40f484b3          	sub	s1,s1,a5
80003628:	00049e63          	bnez	s1,80003644 <powf+0x170>
8000362c:	f6095ae3          	bgez	s2,800035a0 <powf+0xcc>
80003630:	7549a503          	lw	a0,1876(s3)
80003634:	00040593          	mv	a1,s0
80003638:	5fd010ef          	jal	80005434 <__divsf3>
8000363c:	00050413          	mv	s0,a0
80003640:	f61ff06f          	j	800035a0 <powf+0xcc>
80003644:	0014f793          	andi	a5,s1,1
80003648:	00078c63          	beqz	a5,80003660 <powf+0x18c>
8000364c:	00040513          	mv	a0,s0
80003650:	00b12623          	sw	a1,12(sp)
80003654:	485020ef          	jal	800062d8 <__mulsf3>
80003658:	00c12583          	lw	a1,12(sp)
8000365c:	00050413          	mv	s0,a0
80003660:	00058513          	mv	a0,a1
80003664:	475020ef          	jal	800062d8 <__mulsf3>
80003668:	00050593          	mv	a1,a0
8000366c:	0014d493          	srli	s1,s1,0x1
80003670:	fb9ff06f          	j	80003628 <powf+0x154>
80003674:	8000c7b7          	lui	a5,0x8000c
80003678:	7a07a403          	lw	s0,1952(a5) # 8000c7a0 <_etext+0x54>
8000367c:	f25ff06f          	j	800035a0 <powf+0xcc>
80003680:	00000413          	li	s0,0
80003684:	f1dff06f          	j	800035a0 <powf+0xcc>
80003688:	00000413          	li	s0,0
8000368c:	f00a4ae3          	bltz	s4,800035a0 <powf+0xcc>
80003690:	00090513          	mv	a0,s2
80003694:	cadff0ef          	jal	80003340 <expf>
80003698:	00050413          	mv	s0,a0
8000369c:	f00492e3          	bnez	s1,800035a0 <powf+0xcc>
800036a0:	f00a50e3          	bgez	s4,800035a0 <powf+0xcc>
800036a4:	800007b7          	lui	a5,0x80000
800036a8:	00a7e433          	or	s0,a5,a0
800036ac:	ef5ff06f          	j	800035a0 <powf+0xcc>

800036b0 <sqrtf>:
800036b0:	fd010113          	addi	sp,sp,-48
800036b4:	00000593          	li	a1,0
800036b8:	02812423          	sw	s0,40(sp)
800036bc:	02112623          	sw	ra,44(sp)
800036c0:	02912223          	sw	s1,36(sp)
800036c4:	03212023          	sw	s2,32(sp)
800036c8:	01312e23          	sw	s3,28(sp)
800036cc:	01412c23          	sw	s4,24(sp)
800036d0:	00050413          	mv	s0,a0
800036d4:	735010ef          	jal	80005608 <__eqsf2>
800036d8:	0e050c63          	beqz	a0,800037d0 <sqrtf+0x120>
800036dc:	00000593          	li	a1,0
800036e0:	00040513          	mv	a0,s0
800036e4:	12d020ef          	jal	80006010 <__ltsf2>
800036e8:	10054663          	bltz	a0,800037f4 <sqrtf+0x144>
800036ec:	00c10593          	addi	a1,sp,12
800036f0:	00040513          	mv	a0,s0
800036f4:	819ff0ef          	jal	80002f0c <frexpf>
800036f8:	8000c7b7          	lui	a5,0x8000c
800036fc:	7c47a583          	lw	a1,1988(a5) # 8000c7c4 <_etext+0x78>
80003700:	00050493          	mv	s1,a0
80003704:	8000ca37          	lui	s4,0x8000c
80003708:	3d1020ef          	jal	800062d8 <__mulsf3>
8000370c:	8000c7b7          	lui	a5,0x8000c
80003710:	7c87a583          	lw	a1,1992(a5) # 8000c7c8 <_etext+0x7c>
80003714:	00c12403          	lw	s0,12(sp)
80003718:	7c0010ef          	jal	80004ed8 <__addsf3>
8000371c:	760a2583          	lw	a1,1888(s4) # 8000c760 <_etext+0x14>
80003720:	00050913          	mv	s2,a0
80003724:	00048513          	mv	a0,s1
80003728:	3b1020ef          	jal	800062d8 <__mulsf3>
8000372c:	760a2583          	lw	a1,1888(s4)
80003730:	00050493          	mv	s1,a0
80003734:	00090513          	mv	a0,s2
80003738:	3a1020ef          	jal	800062d8 <__mulsf3>
8000373c:	00050993          	mv	s3,a0
80003740:	00090593          	mv	a1,s2
80003744:	00048513          	mv	a0,s1
80003748:	4ed010ef          	jal	80005434 <__divsf3>
8000374c:	00050593          	mv	a1,a0
80003750:	00098513          	mv	a0,s3
80003754:	784010ef          	jal	80004ed8 <__addsf3>
80003758:	760a2583          	lw	a1,1888(s4)
8000375c:	00050993          	mv	s3,a0
80003760:	379020ef          	jal	800062d8 <__mulsf3>
80003764:	00050913          	mv	s2,a0
80003768:	00098593          	mv	a1,s3
8000376c:	00048513          	mv	a0,s1
80003770:	4c5010ef          	jal	80005434 <__divsf3>
80003774:	00050593          	mv	a1,a0
80003778:	00090513          	mv	a0,s2
8000377c:	75c010ef          	jal	80004ed8 <__addsf3>
80003780:	00147713          	andi	a4,s0,1
80003784:	00050793          	mv	a5,a0
80003788:	00070e63          	beqz	a4,800037a4 <sqrtf+0xf4>
8000378c:	8000c7b7          	lui	a5,0x8000c
80003790:	7847a583          	lw	a1,1924(a5) # 8000c784 <_etext+0x38>
80003794:	00140413          	addi	s0,s0,1
80003798:	341020ef          	jal	800062d8 <__mulsf3>
8000379c:	00050793          	mv	a5,a0
800037a0:	00812623          	sw	s0,12(sp)
800037a4:	00c12583          	lw	a1,12(sp)
800037a8:	02812403          	lw	s0,40(sp)
800037ac:	02c12083          	lw	ra,44(sp)
800037b0:	02412483          	lw	s1,36(sp)
800037b4:	02012903          	lw	s2,32(sp)
800037b8:	01c12983          	lw	s3,28(sp)
800037bc:	01812a03          	lw	s4,24(sp)
800037c0:	4015d593          	srai	a1,a1,0x1
800037c4:	00078513          	mv	a0,a5
800037c8:	03010113          	addi	sp,sp,48
800037cc:	ae1ff06f          	j	800032ac <ldexpf>
800037d0:	00000513          	li	a0,0
800037d4:	02c12083          	lw	ra,44(sp)
800037d8:	02812403          	lw	s0,40(sp)
800037dc:	02412483          	lw	s1,36(sp)
800037e0:	02012903          	lw	s2,32(sp)
800037e4:	01c12983          	lw	s3,28(sp)
800037e8:	01812a03          	lw	s4,24(sp)
800037ec:	03010113          	addi	sp,sp,48
800037f0:	00008067          	ret
800037f4:	8000c7b7          	lui	a5,0x8000c
800037f8:	7507a503          	lw	a0,1872(a5) # 8000c750 <_etext+0x4>
800037fc:	fd9ff06f          	j	800037d4 <sqrtf+0x124>

80003800 <lowpass>:
80003800:	ff010113          	addi	sp,sp,-16
80003804:	8000c7b7          	lui	a5,0x8000c
80003808:	00912223          	sw	s1,4(sp)
8000380c:	00050493          	mv	s1,a0
80003810:	7547a503          	lw	a0,1876(a5) # 8000c754 <_etext+0x8>
80003814:	01212023          	sw	s2,0(sp)
80003818:	00058913          	mv	s2,a1
8000381c:	00060593          	mv	a1,a2
80003820:	00112623          	sw	ra,12(sp)
80003824:	00812423          	sw	s0,8(sp)
80003828:	00060413          	mv	s0,a2
8000382c:	6a4010ef          	jal	80004ed0 <__subsf3>
80003830:	00048593          	mv	a1,s1
80003834:	2a5020ef          	jal	800062d8 <__mulsf3>
80003838:	00050493          	mv	s1,a0
8000383c:	00090593          	mv	a1,s2
80003840:	00040513          	mv	a0,s0
80003844:	295020ef          	jal	800062d8 <__mulsf3>
80003848:	00050593          	mv	a1,a0
8000384c:	00048513          	mv	a0,s1
80003850:	688010ef          	jal	80004ed8 <__addsf3>
80003854:	00c12083          	lw	ra,12(sp)
80003858:	00812403          	lw	s0,8(sp)
8000385c:	00412483          	lw	s1,4(sp)
80003860:	00012903          	lw	s2,0(sp)
80003864:	01010113          	addi	sp,sp,16
80003868:	00008067          	ret

8000386c <fabsf>:
8000386c:	ff010113          	addi	sp,sp,-16
80003870:	00000593          	li	a1,0
80003874:	00812423          	sw	s0,8(sp)
80003878:	00112623          	sw	ra,12(sp)
8000387c:	00050413          	mv	s0,a0
80003880:	614020ef          	jal	80005e94 <__gtsf2>
80003884:	00a04663          	bgtz	a0,80003890 <fabsf+0x24>
80003888:	800007b7          	lui	a5,0x80000
8000388c:	0087c433          	xor	s0,a5,s0
80003890:	00c12083          	lw	ra,12(sp)
80003894:	00040513          	mv	a0,s0
80003898:	00812403          	lw	s0,8(sp)
8000389c:	01010113          	addi	sp,sp,16
800038a0:	00008067          	ret

800038a4 <pow>:
800038a4:	00050793          	mv	a5,a0
800038a8:	00050713          	mv	a4,a0
800038ac:	00059863          	bnez	a1,800038bc <pow+0x18>
800038b0:	00100513          	li	a0,1
800038b4:	00008067          	ret
800038b8:	02e78733          	mul	a4,a5,a4
800038bc:	fff58593          	addi	a1,a1,-1
800038c0:	00070513          	mv	a0,a4
800038c4:	fe059ae3          	bnez	a1,800038b8 <pow+0x14>
800038c8:	00008067          	ret

800038cc <sinef>:
800038cc:	fe010113          	addi	sp,sp,-32
800038d0:	00812c23          	sw	s0,24(sp)
800038d4:	01412423          	sw	s4,8(sp)
800038d8:	00112e23          	sw	ra,28(sp)
800038dc:	00912a23          	sw	s1,20(sp)
800038e0:	01212823          	sw	s2,16(sp)
800038e4:	01312623          	sw	s3,12(sp)
800038e8:	00050413          	mv	s0,a0
800038ec:	00058a13          	mv	s4,a1
800038f0:	849ff0ef          	jal	80003138 <numtestf>
800038f4:	00100793          	li	a5,1
800038f8:	1ef50e63          	beq	a0,a5,80003af4 <sinef+0x228>
800038fc:	00200793          	li	a5,2
80003900:	02f50863          	beq	a0,a5,80003930 <sinef+0x64>
80003904:	8000c937          	lui	s2,0x8000c
80003908:	040a0663          	beqz	s4,80003954 <sinef+0x88>
8000390c:	00040513          	mv	a0,s0
80003910:	f5dff0ef          	jal	8000386c <fabsf>
80003914:	8000c7b7          	lui	a5,0x8000c
80003918:	74c7a583          	lw	a1,1868(a5) # 8000c74c <_etext>
8000391c:	5bc010ef          	jal	80004ed8 <__addsf3>
80003920:	7cc92583          	lw	a1,1996(s2) # 8000c7cc <_etext+0x80>
80003924:	00050493          	mv	s1,a0
80003928:	56c020ef          	jal	80005e94 <__gtsf2>
8000392c:	04a05c63          	blez	a0,80003984 <sinef+0xb8>
80003930:	00040513          	mv	a0,s0
80003934:	01c12083          	lw	ra,28(sp)
80003938:	01812403          	lw	s0,24(sp)
8000393c:	01412483          	lw	s1,20(sp)
80003940:	01012903          	lw	s2,16(sp)
80003944:	00c12983          	lw	s3,12(sp)
80003948:	00812a03          	lw	s4,8(sp)
8000394c:	02010113          	addi	sp,sp,32
80003950:	00008067          	ret
80003954:	00000593          	li	a1,0
80003958:	00040513          	mv	a0,s0
8000395c:	6b4020ef          	jal	80006010 <__ltsf2>
80003960:	1a055063          	bgez	a0,80003b00 <sinef+0x234>
80003964:	800004b7          	lui	s1,0x80000
80003968:	0084c4b3          	xor	s1,s1,s0
8000396c:	fff00993          	li	s3,-1
80003970:	7cc92583          	lw	a1,1996(s2)
80003974:	00048513          	mv	a0,s1
80003978:	51c020ef          	jal	80005e94 <__gtsf2>
8000397c:	14a05863          	blez	a0,80003acc <sinef+0x200>
80003980:	fb1ff06f          	j	80003930 <sinef+0x64>
80003984:	8000c7b7          	lui	a5,0x8000c
80003988:	7d07a583          	lw	a1,2000(a5) # 8000c7d0 <_etext+0x84>
8000398c:	00048513          	mv	a0,s1
80003990:	149020ef          	jal	800062d8 <__mulsf3>
80003994:	00050913          	mv	s2,a0
80003998:	00000593          	li	a1,0
8000399c:	00048513          	mv	a0,s1
800039a0:	670020ef          	jal	80006010 <__ltsf2>
800039a4:	12055263          	bgez	a0,80003ac8 <sinef+0x1fc>
800039a8:	8000c7b7          	lui	a5,0x8000c
800039ac:	7607a583          	lw	a1,1888(a5) # 8000c760 <_etext+0x14>
800039b0:	00090513          	mv	a0,s2
800039b4:	00100993          	li	s3,1
800039b8:	518010ef          	jal	80004ed0 <__subsf3>
800039bc:	69d010ef          	jal	80005858 <__fixsfsi>
800039c0:	00050493          	mv	s1,a0
800039c4:	00048513          	mv	a0,s1
800039c8:	1c8020ef          	jal	80005b90 <__floatsisf>
800039cc:	0014f493          	andi	s1,s1,1
800039d0:	00050913          	mv	s2,a0
800039d4:	00048463          	beqz	s1,800039dc <sinef+0x110>
800039d8:	413009b3          	neg	s3,s3
800039dc:	000a0c63          	beqz	s4,800039f4 <sinef+0x128>
800039e0:	8000c7b7          	lui	a5,0x8000c
800039e4:	7607a583          	lw	a1,1888(a5) # 8000c760 <_etext+0x14>
800039e8:	00090513          	mv	a0,s2
800039ec:	4e4010ef          	jal	80004ed0 <__subsf3>
800039f0:	00050913          	mv	s2,a0
800039f4:	00040513          	mv	a0,s0
800039f8:	e75ff0ef          	jal	8000386c <fabsf>
800039fc:	8000c7b7          	lui	a5,0x8000c
80003a00:	77c7a583          	lw	a1,1916(a5) # 8000c77c <_etext+0x30>
80003a04:	00050413          	mv	s0,a0
80003a08:	00090513          	mv	a0,s2
80003a0c:	0cd020ef          	jal	800062d8 <__mulsf3>
80003a10:	00050593          	mv	a1,a0
80003a14:	00040513          	mv	a0,s0
80003a18:	4b8010ef          	jal	80004ed0 <__subsf3>
80003a1c:	8000c7b7          	lui	a5,0x8000c
80003a20:	7687a583          	lw	a1,1896(a5) # 8000c768 <_etext+0x1c>
80003a24:	00050413          	mv	s0,a0
80003a28:	46c020ef          	jal	80005e94 <__gtsf2>
80003a2c:	00a05c63          	blez	a0,80003a44 <sinef+0x178>
80003a30:	8000c7b7          	lui	a5,0x8000c
80003a34:	76c7a583          	lw	a1,1900(a5) # 8000c76c <_etext+0x20>
80003a38:	00040513          	mv	a0,s0
80003a3c:	5d4020ef          	jal	80006010 <__ltsf2>
80003a40:	06054a63          	bltz	a0,80003ab4 <sinef+0x1e8>
80003a44:	00040593          	mv	a1,s0
80003a48:	00040513          	mv	a0,s0
80003a4c:	08d020ef          	jal	800062d8 <__mulsf3>
80003a50:	8000c7b7          	lui	a5,0x8000c
80003a54:	7d47a583          	lw	a1,2004(a5) # 8000c7d4 <_etext+0x88>
80003a58:	00050493          	mv	s1,a0
80003a5c:	07d020ef          	jal	800062d8 <__mulsf3>
80003a60:	8000c7b7          	lui	a5,0x8000c
80003a64:	7d87a583          	lw	a1,2008(a5) # 8000c7d8 <_etext+0x8c>
80003a68:	468010ef          	jal	80004ed0 <__subsf3>
80003a6c:	00048593          	mv	a1,s1
80003a70:	069020ef          	jal	800062d8 <__mulsf3>
80003a74:	8000c7b7          	lui	a5,0x8000c
80003a78:	7dc7a583          	lw	a1,2012(a5) # 8000c7dc <_etext+0x90>
80003a7c:	45c010ef          	jal	80004ed8 <__addsf3>
80003a80:	00048593          	mv	a1,s1
80003a84:	055020ef          	jal	800062d8 <__mulsf3>
80003a88:	8000c7b7          	lui	a5,0x8000c
80003a8c:	7e07a583          	lw	a1,2016(a5) # 8000c7e0 <_etext+0x94>
80003a90:	440010ef          	jal	80004ed0 <__subsf3>
80003a94:	00048593          	mv	a1,s1
80003a98:	041020ef          	jal	800062d8 <__mulsf3>
80003a9c:	00040593          	mv	a1,s0
80003aa0:	039020ef          	jal	800062d8 <__mulsf3>
80003aa4:	00050593          	mv	a1,a0
80003aa8:	00040513          	mv	a0,s0
80003aac:	42c010ef          	jal	80004ed8 <__addsf3>
80003ab0:	00050413          	mv	s0,a0
80003ab4:	00098513          	mv	a0,s3
80003ab8:	0d8020ef          	jal	80005b90 <__floatsisf>
80003abc:	00040593          	mv	a1,s0
80003ac0:	019020ef          	jal	800062d8 <__mulsf3>
80003ac4:	e71ff06f          	j	80003934 <sinef+0x68>
80003ac8:	00100993          	li	s3,1
80003acc:	8000c7b7          	lui	a5,0x8000c
80003ad0:	7d07a583          	lw	a1,2000(a5) # 8000c7d0 <_etext+0x84>
80003ad4:	00048513          	mv	a0,s1
80003ad8:	001020ef          	jal	800062d8 <__mulsf3>
80003adc:	8000c7b7          	lui	a5,0x8000c
80003ae0:	7607a583          	lw	a1,1888(a5) # 8000c760 <_etext+0x14>
80003ae4:	3f4010ef          	jal	80004ed8 <__addsf3>
80003ae8:	571010ef          	jal	80005858 <__fixsfsi>
80003aec:	00050493          	mv	s1,a0
80003af0:	ed5ff06f          	j	800039c4 <sinef+0xf8>
80003af4:	8000c7b7          	lui	a5,0x8000c
80003af8:	7507a503          	lw	a0,1872(a5) # 8000c750 <_etext+0x4>
80003afc:	e39ff06f          	j	80003934 <sinef+0x68>
80003b00:	00040493          	mv	s1,s0
80003b04:	00100993          	li	s3,1
80003b08:	e69ff06f          	j	80003970 <sinef+0xa4>

80003b0c <asinef>:
80003b0c:	fe010113          	addi	sp,sp,-32
80003b10:	01212823          	sw	s2,16(sp)
80003b14:	01312623          	sw	s3,12(sp)
80003b18:	01412423          	sw	s4,8(sp)
80003b1c:	00112e23          	sw	ra,28(sp)
80003b20:	00812c23          	sw	s0,24(sp)
80003b24:	00912a23          	sw	s1,20(sp)
80003b28:	01512223          	sw	s5,4(sp)
80003b2c:	01612023          	sw	s6,0(sp)
80003b30:	00050993          	mv	s3,a0
80003b34:	00058a13          	mv	s4,a1
80003b38:	e00ff0ef          	jal	80003138 <numtestf>
80003b3c:	fff50793          	addi	a5,a0,-1 # 7fffffff <_start-0x1>
80003b40:	00100913          	li	s2,1
80003b44:	00f96e63          	bltu	s2,a5,80003b60 <asinef+0x54>
80003b48:	00200793          	li	a5,2
80003b4c:	00098413          	mv	s0,s3
80003b50:	12f50a63          	beq	a0,a5,80003c84 <asinef+0x178>
80003b54:	8000c7b7          	lui	a5,0x8000c
80003b58:	7a07a403          	lw	s0,1952(a5) # 8000c7a0 <_etext+0x54>
80003b5c:	1280006f          	j	80003c84 <asinef+0x178>
80003b60:	00098513          	mv	a0,s3
80003b64:	d09ff0ef          	jal	8000386c <fabsf>
80003b68:	8000c7b7          	lui	a5,0x8000c
80003b6c:	7607aa83          	lw	s5,1888(a5) # 8000c760 <_etext+0x14>
80003b70:	00050413          	mv	s0,a0
80003b74:	000a8593          	mv	a1,s5
80003b78:	31c020ef          	jal	80005e94 <__gtsf2>
80003b7c:	12a05a63          	blez	a0,80003cb0 <asinef+0x1a4>
80003b80:	8000c7b7          	lui	a5,0x8000c
80003b84:	7547ab03          	lw	s6,1876(a5) # 8000c754 <_etext+0x8>
80003b88:	00040513          	mv	a0,s0
80003b8c:	000b0593          	mv	a1,s6
80003b90:	304020ef          	jal	80005e94 <__gtsf2>
80003b94:	1ca04063          	bgtz	a0,80003d54 <asinef+0x248>
80003b98:	00040593          	mv	a1,s0
80003b9c:	000b0513          	mv	a0,s6
80003ba0:	330010ef          	jal	80004ed0 <__subsf3>
80003ba4:	000a8593          	mv	a1,s5
80003ba8:	730020ef          	jal	800062d8 <__mulsf3>
80003bac:	00050493          	mv	s1,a0
80003bb0:	b01ff0ef          	jal	800036b0 <sqrtf>
80003bb4:	8000c7b7          	lui	a5,0x8000c
80003bb8:	7e47a583          	lw	a1,2020(a5) # 8000c7e4 <_etext+0x98>
80003bbc:	41490933          	sub	s2,s2,s4
80003bc0:	718020ef          	jal	800062d8 <__mulsf3>
80003bc4:	00050413          	mv	s0,a0
80003bc8:	8000c7b7          	lui	a5,0x8000c
80003bcc:	7e87a583          	lw	a1,2024(a5) # 8000c7e8 <_etext+0x9c>
80003bd0:	00048513          	mv	a0,s1
80003bd4:	704020ef          	jal	800062d8 <__mulsf3>
80003bd8:	8000c7b7          	lui	a5,0x8000c
80003bdc:	7ec7a583          	lw	a1,2028(a5) # 8000c7ec <_etext+0xa0>
80003be0:	2f8010ef          	jal	80004ed8 <__addsf3>
80003be4:	00048593          	mv	a1,s1
80003be8:	6f0020ef          	jal	800062d8 <__mulsf3>
80003bec:	8000c7b7          	lui	a5,0x8000c
80003bf0:	7f07a583          	lw	a1,2032(a5) # 8000c7f0 <_etext+0xa4>
80003bf4:	00050a93          	mv	s5,a0
80003bf8:	00048513          	mv	a0,s1
80003bfc:	2d4010ef          	jal	80004ed0 <__subsf3>
80003c00:	00048593          	mv	a1,s1
80003c04:	6d4020ef          	jal	800062d8 <__mulsf3>
80003c08:	8000c7b7          	lui	a5,0x8000c
80003c0c:	7f47a583          	lw	a1,2036(a5) # 8000c7f4 <_etext+0xa8>
80003c10:	2c8010ef          	jal	80004ed8 <__addsf3>
80003c14:	00050593          	mv	a1,a0
80003c18:	000a8513          	mv	a0,s5
80003c1c:	019010ef          	jal	80005434 <__divsf3>
80003c20:	00040593          	mv	a1,s0
80003c24:	6b4020ef          	jal	800062d8 <__mulsf3>
80003c28:	00050593          	mv	a1,a0
80003c2c:	00040513          	mv	a0,s0
80003c30:	2a8010ef          	jal	80004ed8 <__addsf3>
80003c34:	00050413          	mv	s0,a0
80003c38:	00291913          	slli	s2,s2,0x2
80003c3c:	0a0a1c63          	bnez	s4,80003cf4 <asinef+0x1e8>
80003c40:	8000d7b7          	lui	a5,0x8000d
80003c44:	81478793          	addi	a5,a5,-2028 # 8000c814 <a>
80003c48:	012787b3          	add	a5,a5,s2
80003c4c:	0007a483          	lw	s1,0(a5)
80003c50:	00040593          	mv	a1,s0
80003c54:	00048513          	mv	a0,s1
80003c58:	280010ef          	jal	80004ed8 <__addsf3>
80003c5c:	00050593          	mv	a1,a0
80003c60:	00048513          	mv	a0,s1
80003c64:	274010ef          	jal	80004ed8 <__addsf3>
80003c68:	00050413          	mv	s0,a0
80003c6c:	00000593          	li	a1,0
80003c70:	00098513          	mv	a0,s3
80003c74:	39c020ef          	jal	80006010 <__ltsf2>
80003c78:	00055663          	bgez	a0,80003c84 <asinef+0x178>
80003c7c:	800007b7          	lui	a5,0x80000
80003c80:	0087c433          	xor	s0,a5,s0
80003c84:	01c12083          	lw	ra,28(sp)
80003c88:	00040513          	mv	a0,s0
80003c8c:	01812403          	lw	s0,24(sp)
80003c90:	01412483          	lw	s1,20(sp)
80003c94:	01012903          	lw	s2,16(sp)
80003c98:	00c12983          	lw	s3,12(sp)
80003c9c:	00812a03          	lw	s4,8(sp)
80003ca0:	00412a83          	lw	s5,4(sp)
80003ca4:	00012b03          	lw	s6,0(sp)
80003ca8:	02010113          	addi	sp,sp,32
80003cac:	00008067          	ret
80003cb0:	8000c7b7          	lui	a5,0x8000c
80003cb4:	76c7aa83          	lw	s5,1900(a5) # 8000c76c <_etext+0x20>
80003cb8:	00040513          	mv	a0,s0
80003cbc:	000a0913          	mv	s2,s4
80003cc0:	000a8593          	mv	a1,s5
80003cc4:	34c020ef          	jal	80006010 <__ltsf2>
80003cc8:	f60548e3          	bltz	a0,80003c38 <asinef+0x12c>
80003ccc:	00040593          	mv	a1,s0
80003cd0:	00040513          	mv	a0,s0
80003cd4:	604020ef          	jal	800062d8 <__mulsf3>
80003cd8:	00050493          	mv	s1,a0
80003cdc:	000a8593          	mv	a1,s5
80003ce0:	00040513          	mv	a0,s0
80003ce4:	0f0020ef          	jal	80005dd4 <__gesf2>
80003ce8:	ee0550e3          	bgez	a0,80003bc8 <asinef+0xbc>
80003cec:	00000413          	li	s0,0
80003cf0:	f49ff06f          	j	80003c38 <asinef+0x12c>
80003cf4:	00000593          	li	a1,0
80003cf8:	00098513          	mv	a0,s3
80003cfc:	314020ef          	jal	80006010 <__ltsf2>
80003d00:	02055a63          	bgez	a0,80003d34 <asinef+0x228>
80003d04:	8000d7b7          	lui	a5,0x8000d
80003d08:	80c78793          	addi	a5,a5,-2036 # 8000c80c <b>
80003d0c:	012787b3          	add	a5,a5,s2
80003d10:	0007a483          	lw	s1,0(a5)
80003d14:	00040593          	mv	a1,s0
80003d18:	00048513          	mv	a0,s1
80003d1c:	1bc010ef          	jal	80004ed8 <__addsf3>
80003d20:	00050593          	mv	a1,a0
80003d24:	00048513          	mv	a0,s1
80003d28:	1b0010ef          	jal	80004ed8 <__addsf3>
80003d2c:	00050413          	mv	s0,a0
80003d30:	f55ff06f          	j	80003c84 <asinef+0x178>
80003d34:	8000d7b7          	lui	a5,0x8000d
80003d38:	81478793          	addi	a5,a5,-2028 # 8000c814 <a>
80003d3c:	012787b3          	add	a5,a5,s2
80003d40:	0007a483          	lw	s1,0(a5)
80003d44:	00040593          	mv	a1,s0
80003d48:	00048513          	mv	a0,s1
80003d4c:	184010ef          	jal	80004ed0 <__subsf3>
80003d50:	fd1ff06f          	j	80003d20 <asinef+0x214>
80003d54:	8000c7b7          	lui	a5,0x8000c
80003d58:	7507a403          	lw	s0,1872(a5) # 8000c750 <_etext+0x4>
80003d5c:	f29ff06f          	j	80003c84 <asinef+0x178>

80003d60 <tanf>:
80003d60:	fe010113          	addi	sp,sp,-32
80003d64:	00912a23          	sw	s1,20(sp)
80003d68:	00112e23          	sw	ra,28(sp)
80003d6c:	00812c23          	sw	s0,24(sp)
80003d70:	01212823          	sw	s2,16(sp)
80003d74:	01312623          	sw	s3,12(sp)
80003d78:	00050493          	mv	s1,a0
80003d7c:	bbcff0ef          	jal	80003138 <numtestf>
80003d80:	00100793          	li	a5,1
80003d84:	16f50863          	beq	a0,a5,80003ef4 <tanf+0x194>
80003d88:	00200793          	li	a5,2
80003d8c:	00048413          	mv	s0,s1
80003d90:	12f50263          	beq	a0,a5,80003eb4 <tanf+0x154>
80003d94:	00048513          	mv	a0,s1
80003d98:	ad5ff0ef          	jal	8000386c <fabsf>
80003d9c:	8000c7b7          	lui	a5,0x8000c
80003da0:	7f87a583          	lw	a1,2040(a5) # 8000c7f8 <_etext+0xac>
80003da4:	00050413          	mv	s0,a0
80003da8:	0ec020ef          	jal	80005e94 <__gtsf2>
80003dac:	10a04463          	bgtz	a0,80003eb4 <tanf+0x154>
80003db0:	8000c7b7          	lui	a5,0x8000c
80003db4:	7fc7a583          	lw	a1,2044(a5) # 8000c7fc <_etext+0xb0>
80003db8:	00048513          	mv	a0,s1
80003dbc:	51c020ef          	jal	800062d8 <__mulsf3>
80003dc0:	00000593          	li	a1,0
80003dc4:	00050413          	mv	s0,a0
80003dc8:	00048513          	mv	a0,s1
80003dcc:	244020ef          	jal	80006010 <__ltsf2>
80003dd0:	8000c7b7          	lui	a5,0x8000c
80003dd4:	7607a583          	lw	a1,1888(a5) # 8000c760 <_etext+0x14>
80003dd8:	0e055e63          	bgez	a0,80003ed4 <tanf+0x174>
80003ddc:	00040513          	mv	a0,s0
80003de0:	0f0010ef          	jal	80004ed0 <__subsf3>
80003de4:	275010ef          	jal	80005858 <__fixsfsi>
80003de8:	00050993          	mv	s3,a0
80003dec:	5a5010ef          	jal	80005b90 <__floatsisf>
80003df0:	8000c7b7          	lui	a5,0x8000c
80003df4:	74c7a583          	lw	a1,1868(a5) # 8000c74c <_etext>
80003df8:	8000c937          	lui	s2,0x8000c
80003dfc:	4dc020ef          	jal	800062d8 <__mulsf3>
80003e00:	00050593          	mv	a1,a0
80003e04:	00048513          	mv	a0,s1
80003e08:	0c8010ef          	jal	80004ed0 <__subsf3>
80003e0c:	8000c7b7          	lui	a5,0x8000c
80003e10:	7687a583          	lw	a1,1896(a5) # 8000c768 <_etext+0x1c>
80003e14:	00050413          	mv	s0,a0
80003e18:	07c020ef          	jal	80005e94 <__gtsf2>
80003e1c:	00a05c63          	blez	a0,80003e34 <tanf+0xd4>
80003e20:	8000c7b7          	lui	a5,0x8000c
80003e24:	76c7a583          	lw	a1,1900(a5) # 8000c76c <_etext+0x20>
80003e28:	00040513          	mv	a0,s0
80003e2c:	1e4020ef          	jal	80006010 <__ltsf2>
80003e30:	0a054863          	bltz	a0,80003ee0 <tanf+0x180>
80003e34:	00040593          	mv	a1,s0
80003e38:	00040513          	mv	a0,s0
80003e3c:	49c020ef          	jal	800062d8 <__mulsf3>
80003e40:	8000d7b7          	lui	a5,0x8000d
80003e44:	8007a583          	lw	a1,-2048(a5) # 8000c800 <_etext+0xb4>
80003e48:	00050493          	mv	s1,a0
80003e4c:	48c020ef          	jal	800062d8 <__mulsf3>
80003e50:	00040593          	mv	a1,s0
80003e54:	484020ef          	jal	800062d8 <__mulsf3>
80003e58:	00050593          	mv	a1,a0
80003e5c:	00040513          	mv	a0,s0
80003e60:	078010ef          	jal	80004ed8 <__addsf3>
80003e64:	8000d7b7          	lui	a5,0x8000d
80003e68:	8047a583          	lw	a1,-2044(a5) # 8000c804 <_etext+0xb8>
80003e6c:	00050413          	mv	s0,a0
80003e70:	00048513          	mv	a0,s1
80003e74:	464020ef          	jal	800062d8 <__mulsf3>
80003e78:	8000d7b7          	lui	a5,0x8000d
80003e7c:	8087a583          	lw	a1,-2040(a5) # 8000c808 <_etext+0xbc>
80003e80:	050010ef          	jal	80004ed0 <__subsf3>
80003e84:	00048593          	mv	a1,s1
80003e88:	450020ef          	jal	800062d8 <__mulsf3>
80003e8c:	75492583          	lw	a1,1876(s2) # 8000c754 <_etext+0x8>
80003e90:	048010ef          	jal	80004ed8 <__addsf3>
80003e94:	00050793          	mv	a5,a0
80003e98:	0019f513          	andi	a0,s3,1
80003e9c:	04050663          	beqz	a0,80003ee8 <tanf+0x188>
80003ea0:	80000537          	lui	a0,0x80000
80003ea4:	00040593          	mv	a1,s0
80003ea8:	00f54533          	xor	a0,a0,a5
80003eac:	588010ef          	jal	80005434 <__divsf3>
80003eb0:	00050413          	mv	s0,a0
80003eb4:	01c12083          	lw	ra,28(sp)
80003eb8:	00040513          	mv	a0,s0
80003ebc:	01812403          	lw	s0,24(sp)
80003ec0:	01412483          	lw	s1,20(sp)
80003ec4:	01012903          	lw	s2,16(sp)
80003ec8:	00c12983          	lw	s3,12(sp)
80003ecc:	02010113          	addi	sp,sp,32
80003ed0:	00008067          	ret
80003ed4:	00040513          	mv	a0,s0
80003ed8:	000010ef          	jal	80004ed8 <__addsf3>
80003edc:	f09ff06f          	j	80003de4 <tanf+0x84>
80003ee0:	75492783          	lw	a5,1876(s2)
80003ee4:	fb5ff06f          	j	80003e98 <tanf+0x138>
80003ee8:	00078593          	mv	a1,a5
80003eec:	00040513          	mv	a0,s0
80003ef0:	fbdff06f          	j	80003eac <tanf+0x14c>
80003ef4:	8000c7b7          	lui	a5,0x8000c
80003ef8:	7507a403          	lw	s0,1872(a5) # 8000c750 <_etext+0x4>
80003efc:	fb9ff06f          	j	80003eb4 <tanf+0x154>

80003f00 <printf>:
80003f00:	fc010113          	addi	sp,sp,-64
80003f04:	02c12423          	sw	a2,40(sp)
80003f08:	80007637          	lui	a2,0x80007
80003f0c:	02b12223          	sw	a1,36(sp)
80003f10:	02d12623          	sw	a3,44(sp)
80003f14:	02410593          	addi	a1,sp,36
80003f18:	00000693          	li	a3,0
80003f1c:	4a060613          	addi	a2,a2,1184 # 800074a0 <putc>
80003f20:	00112e23          	sw	ra,28(sp)
80003f24:	02e12823          	sw	a4,48(sp)
80003f28:	02f12a23          	sw	a5,52(sp)
80003f2c:	03012c23          	sw	a6,56(sp)
80003f30:	03112e23          	sw	a7,60(sp)
80003f34:	00b12623          	sw	a1,12(sp)
80003f38:	c04fe0ef          	jal	8000233c <_fdoprnt>
80003f3c:	01c12083          	lw	ra,28(sp)
80003f40:	00000513          	li	a0,0
80003f44:	04010113          	addi	sp,sp,64
80003f48:	00008067          	ret

80003f4c <hexDump2>:
80003f4c:	fb010113          	addi	sp,sp,-80
80003f50:	04812423          	sw	s0,72(sp)
80003f54:	04912223          	sw	s1,68(sp)
80003f58:	03312e23          	sw	s3,60(sp)
80003f5c:	03412c23          	sw	s4,56(sp)
80003f60:	03512a23          	sw	s5,52(sp)
80003f64:	03612823          	sw	s6,48(sp)
80003f68:	03712623          	sw	s7,44(sp)
80003f6c:	03812423          	sw	s8,40(sp)
80003f70:	04112623          	sw	ra,76(sp)
80003f74:	05212023          	sw	s2,64(sp)
80003f78:	03912223          	sw	s9,36(sp)
80003f7c:	00050993          	mv	s3,a0
80003f80:	00058a13          	mv	s4,a1
80003f84:	00060413          	mv	s0,a2
80003f88:	00000493          	li	s1,0
80003f8c:	8000bab7          	lui	s5,0x8000b
80003f90:	8000bb37          	lui	s6,0x8000b
80003f94:	8000bbb7          	lui	s7,0x8000b
80003f98:	05e00c13          	li	s8,94
80003f9c:	00f4f913          	andi	s2,s1,15
80003fa0:	0484ce63          	blt	s1,s0,80003ffc <hexDump2+0xb0>
80003fa4:	00045463          	bgez	s0,80003fac <hexDump2+0x60>
80003fa8:	00000413          	li	s0,0
80003fac:	8000b4b7          	lui	s1,0x8000b
80003fb0:	00f47793          	andi	a5,s0,15
80003fb4:	0a079263          	bnez	a5,80004058 <hexDump2+0x10c>
80003fb8:	8000b537          	lui	a0,0x8000b
80003fbc:	00c10593          	addi	a1,sp,12
80003fc0:	f9050513          	addi	a0,a0,-112 # 8000af90 <start+0x310>
80003fc4:	f3dff0ef          	jal	80003f00 <printf>
80003fc8:	04c12083          	lw	ra,76(sp)
80003fcc:	04812403          	lw	s0,72(sp)
80003fd0:	04412483          	lw	s1,68(sp)
80003fd4:	04012903          	lw	s2,64(sp)
80003fd8:	03c12983          	lw	s3,60(sp)
80003fdc:	03812a03          	lw	s4,56(sp)
80003fe0:	03412a83          	lw	s5,52(sp)
80003fe4:	03012b03          	lw	s6,48(sp)
80003fe8:	02c12b83          	lw	s7,44(sp)
80003fec:	02812c03          	lw	s8,40(sp)
80003ff0:	02412c83          	lw	s9,36(sp)
80003ff4:	05010113          	addi	sp,sp,80
80003ff8:	00008067          	ret
80003ffc:	02091063          	bnez	s2,8000401c <hexDump2+0xd0>
80004000:	00048863          	beqz	s1,80004010 <hexDump2+0xc4>
80004004:	00c10593          	addi	a1,sp,12
80004008:	f90b0513          	addi	a0,s6,-112 # 8000af90 <start+0x310>
8000400c:	ef5ff0ef          	jal	80003f00 <printf>
80004010:	013485b3          	add	a1,s1,s3
80004014:	f98a8513          	addi	a0,s5,-104 # 8000af98 <start+0x318>
80004018:	ee9ff0ef          	jal	80003f00 <printf>
8000401c:	009a0cb3          	add	s9,s4,s1
80004020:	000cc583          	lbu	a1,0(s9)
80004024:	fa0b8513          	addi	a0,s7,-96 # 8000afa0 <start+0x320>
80004028:	ed9ff0ef          	jal	80003f00 <printf>
8000402c:	000cc783          	lbu	a5,0(s9)
80004030:	fe078713          	addi	a4,a5,-32
80004034:	0ff77713          	zext.b	a4,a4
80004038:	00ec7463          	bgeu	s8,a4,80004040 <hexDump2+0xf4>
8000403c:	02e00793          	li	a5,46
80004040:	02090713          	addi	a4,s2,32
80004044:	00270933          	add	s2,a4,sp
80004048:	fef90623          	sb	a5,-20(s2)
8000404c:	fe0906a3          	sb	zero,-19(s2)
80004050:	00148493          	addi	s1,s1,1 # 8000b001 <start+0x381>
80004054:	f49ff06f          	j	80003f9c <hexDump2+0x50>
80004058:	fa848513          	addi	a0,s1,-88
8000405c:	ea5ff0ef          	jal	80003f00 <printf>
80004060:	00140413          	addi	s0,s0,1
80004064:	f4dff06f          	j	80003fb0 <hexDump2+0x64>

80004068 <qsexc>:
80004068:	8005f7b7          	lui	a5,0x8005f
8000406c:	00c7a783          	lw	a5,12(a5) # 8005f00c <qses>
80004070:	00f507b3          	add	a5,a0,a5
80004074:	0005c683          	lbu	a3,0(a1)
80004078:	00054703          	lbu	a4,0(a0)
8000407c:	00158593          	addi	a1,a1,1
80004080:	00150513          	addi	a0,a0,1
80004084:	fed50fa3          	sb	a3,-1(a0)
80004088:	fee58fa3          	sb	a4,-1(a1)
8000408c:	fef514e3          	bne	a0,a5,80004074 <qsexc+0xc>
80004090:	00008067          	ret

80004094 <qstexc>:
80004094:	8005f7b7          	lui	a5,0x8005f
80004098:	00c7a783          	lw	a5,12(a5) # 8005f00c <qses>
8000409c:	00f507b3          	add	a5,a0,a5
800040a0:	00064683          	lbu	a3,0(a2)
800040a4:	00054703          	lbu	a4,0(a0)
800040a8:	00160613          	addi	a2,a2,1
800040ac:	00158593          	addi	a1,a1,1
800040b0:	00d50023          	sb	a3,0(a0)
800040b4:	fff5c683          	lbu	a3,-1(a1)
800040b8:	00150513          	addi	a0,a0,1
800040bc:	fed60fa3          	sb	a3,-1(a2)
800040c0:	fee58fa3          	sb	a4,-1(a1)
800040c4:	fcf51ee3          	bne	a0,a5,800040a0 <qstexc+0xc>
800040c8:	00008067          	ret

800040cc <qs1>:
800040cc:	fd010113          	addi	sp,sp,-48
800040d0:	8005f7b7          	lui	a5,0x8005f
800040d4:	01312e23          	sw	s3,28(sp)
800040d8:	00c7a983          	lw	s3,12(a5) # 8005f00c <qses>
800040dc:	01412c23          	sw	s4,24(sp)
800040e0:	01512a23          	sw	s5,20(sp)
800040e4:	01612823          	sw	s6,16(sp)
800040e8:	01712623          	sw	s7,12(sp)
800040ec:	01812423          	sw	s8,8(sp)
800040f0:	02112623          	sw	ra,44(sp)
800040f4:	02812423          	sw	s0,40(sp)
800040f8:	02912223          	sw	s1,36(sp)
800040fc:	03212023          	sw	s2,32(sp)
80004100:	01912223          	sw	s9,4(sp)
80004104:	01a12023          	sw	s10,0(sp)
80004108:	00050a13          	mv	s4,a0
8000410c:	00058a93          	mv	s5,a1
80004110:	00199c13          	slli	s8,s3,0x1
80004114:	41300b33          	neg	s6,s3
80004118:	8005fbb7          	lui	s7,0x8005f
8000411c:	414a8433          	sub	s0,s5,s4
80004120:	1289f663          	bgeu	s3,s0,8000424c <qs1+0x180>
80004124:	03845433          	divu	s0,s0,s8
80004128:	016a8cb3          	add	s9,s5,s6
8000412c:	000a0493          	mv	s1,s4
80004130:	03340433          	mul	s0,s0,s3
80004134:	008a0433          	add	s0,s4,s0
80004138:	00040913          	mv	s2,s0
8000413c:	0684f063          	bgeu	s1,s0,8000419c <qs1+0xd0>
80004140:	010ba783          	lw	a5,16(s7) # 8005f010 <qscmp>
80004144:	00040593          	mv	a1,s0
80004148:	00048513          	mv	a0,s1
8000414c:	000780e7          	jalr	a5
80004150:	00051c63          	bnez	a0,80004168 <qs1+0x9c>
80004154:	01640433          	add	s0,s0,s6
80004158:	00040593          	mv	a1,s0
8000415c:	00048513          	mv	a0,s1
80004160:	f09ff0ef          	jal	80004068 <qsexc>
80004164:	fd9ff06f          	j	8000413c <qs1+0x70>
80004168:	02055a63          	bgez	a0,8000419c <qs1+0xd0>
8000416c:	013484b3          	add	s1,s1,s3
80004170:	fcdff06f          	j	8000413c <qs1+0x70>
80004174:	06a05663          	blez	a0,800041e0 <qs1+0x114>
80004178:	01348d33          	add	s10,s1,s3
8000417c:	04849663          	bne	s1,s0,800041c8 <qs1+0xfc>
80004180:	01390933          	add	s2,s2,s3
80004184:	00048513          	mv	a0,s1
80004188:	000c8613          	mv	a2,s9
8000418c:	00090593          	mv	a1,s2
80004190:	f05ff0ef          	jal	80004094 <qstexc>
80004194:	000d0493          	mv	s1,s10
80004198:	000d0413          	mv	s0,s10
8000419c:	05997663          	bgeu	s2,s9,800041e8 <qs1+0x11c>
800041a0:	010ba783          	lw	a5,16(s7)
800041a4:	000c8593          	mv	a1,s9
800041a8:	00090513          	mv	a0,s2
800041ac:	000780e7          	jalr	a5
800041b0:	fc0512e3          	bnez	a0,80004174 <qs1+0xa8>
800041b4:	01390933          	add	s2,s2,s3
800041b8:	000c8593          	mv	a1,s9
800041bc:	00090513          	mv	a0,s2
800041c0:	ea9ff0ef          	jal	80004068 <qsexc>
800041c4:	fd9ff06f          	j	8000419c <qs1+0xd0>
800041c8:	000c8593          	mv	a1,s9
800041cc:	00048513          	mv	a0,s1
800041d0:	e99ff0ef          	jal	80004068 <qsexc>
800041d4:	016c8cb3          	add	s9,s9,s6
800041d8:	000d0493          	mv	s1,s10
800041dc:	f61ff06f          	j	8000413c <qs1+0x70>
800041e0:	016c8cb3          	add	s9,s9,s6
800041e4:	fb9ff06f          	j	8000419c <qs1+0xd0>
800041e8:	04849263          	bne	s1,s0,8000422c <qs1+0x160>
800041ec:	013904b3          	add	s1,s2,s3
800041f0:	414407b3          	sub	a5,s0,s4
800041f4:	412a8933          	sub	s2,s5,s2
800041f8:	0327c063          	blt	a5,s2,80004218 <qs1+0x14c>
800041fc:	00048513          	mv	a0,s1
80004200:	000a8593          	mv	a1,s5
80004204:	ec9ff0ef          	jal	800040cc <qs1>
80004208:	000a0493          	mv	s1,s4
8000420c:	00040a93          	mv	s5,s0
80004210:	00048a13          	mv	s4,s1
80004214:	f09ff06f          	j	8000411c <qs1+0x50>
80004218:	00040593          	mv	a1,s0
8000421c:	000a0513          	mv	a0,s4
80004220:	eadff0ef          	jal	800040cc <qs1>
80004224:	000a8413          	mv	s0,s5
80004228:	fe5ff06f          	j	8000420c <qs1+0x140>
8000422c:	01640433          	add	s0,s0,s6
80004230:	000c8513          	mv	a0,s9
80004234:	00048613          	mv	a2,s1
80004238:	00040593          	mv	a1,s0
8000423c:	01690cb3          	add	s9,s2,s6
80004240:	e55ff0ef          	jal	80004094 <qstexc>
80004244:	000c8913          	mv	s2,s9
80004248:	ef5ff06f          	j	8000413c <qs1+0x70>
8000424c:	02c12083          	lw	ra,44(sp)
80004250:	02812403          	lw	s0,40(sp)
80004254:	02412483          	lw	s1,36(sp)
80004258:	02012903          	lw	s2,32(sp)
8000425c:	01c12983          	lw	s3,28(sp)
80004260:	01812a03          	lw	s4,24(sp)
80004264:	01412a83          	lw	s5,20(sp)
80004268:	01012b03          	lw	s6,16(sp)
8000426c:	00c12b83          	lw	s7,12(sp)
80004270:	00812c03          	lw	s8,8(sp)
80004274:	00412c83          	lw	s9,4(sp)
80004278:	00012d03          	lw	s10,0(sp)
8000427c:	03010113          	addi	sp,sp,48
80004280:	00008067          	ret

80004284 <qsort>:
80004284:	02b605b3          	mul	a1,a2,a1
80004288:	8005f7b7          	lui	a5,0x8005f
8000428c:	00d7a823          	sw	a3,16(a5) # 8005f010 <qscmp>
80004290:	8005f7b7          	lui	a5,0x8005f
80004294:	00c7a623          	sw	a2,12(a5) # 8005f00c <qses>
80004298:	00b505b3          	add	a1,a0,a1
8000429c:	e31ff06f          	j	800040cc <qs1>

800042a0 <rand>:
800042a0:	8000e737          	lui	a4,0x8000e
800042a4:	9b072503          	lw	a0,-1616(a4) # 8000d9b0 <rand_seed>
800042a8:	000047b7          	lui	a5,0x4
800042ac:	1a778793          	addi	a5,a5,423 # 41a7 <_start-0x7fffbe59>
800042b0:	02f50533          	mul	a0,a0,a5
800042b4:	800007b7          	lui	a5,0x80000
800042b8:	ffe78793          	addi	a5,a5,-2 # 7ffffffe <_start-0x2>
800042bc:	02f57533          	remu	a0,a0,a5
800042c0:	9aa72823          	sw	a0,-1616(a4)
800042c4:	00008067          	ret

800042c8 <rand_r>:
800042c8:	00052783          	lw	a5,0(a0)
800042cc:	000046b7          	lui	a3,0x4
800042d0:	1a768693          	addi	a3,a3,423 # 41a7 <_start-0x7fffbe59>
800042d4:	02d787b3          	mul	a5,a5,a3
800042d8:	800006b7          	lui	a3,0x80000
800042dc:	ffe68693          	addi	a3,a3,-2 # 7ffffffe <_start-0x2>
800042e0:	00050713          	mv	a4,a0
800042e4:	02d7f533          	remu	a0,a5,a3
800042e8:	00a72023          	sw	a0,0(a4)
800042ec:	00008067          	ret

800042f0 <srand>:
800042f0:	8000e7b7          	lui	a5,0x8000e
800042f4:	9aa7a823          	sw	a0,-1616(a5) # 8000d9b0 <rand_seed>
800042f8:	00008067          	ret

800042fc <sprntf>:
800042fc:	00052783          	lw	a5,0(a0)
80004300:	00178713          	addi	a4,a5,1
80004304:	00e52023          	sw	a4,0(a0)
80004308:	00b78023          	sb	a1,0(a5)
8000430c:	0ff5f513          	zext.b	a0,a1
80004310:	00008067          	ret

80004314 <sprintf>:
80004314:	fc010113          	addi	sp,sp,-64
80004318:	02c12423          	sw	a2,40(sp)
8000431c:	80004637          	lui	a2,0x80004
80004320:	00812c23          	sw	s0,24(sp)
80004324:	02d12623          	sw	a3,44(sp)
80004328:	00050413          	mv	s0,a0
8000432c:	00c10693          	addi	a3,sp,12
80004330:	00058513          	mv	a0,a1
80004334:	2fc60613          	addi	a2,a2,764 # 800042fc <sprntf>
80004338:	02810593          	addi	a1,sp,40
8000433c:	00112e23          	sw	ra,28(sp)
80004340:	02f12a23          	sw	a5,52(sp)
80004344:	00812623          	sw	s0,12(sp)
80004348:	02e12823          	sw	a4,48(sp)
8000434c:	03012c23          	sw	a6,56(sp)
80004350:	03112e23          	sw	a7,60(sp)
80004354:	00b12423          	sw	a1,8(sp)
80004358:	fe5fd0ef          	jal	8000233c <_fdoprnt>
8000435c:	00c12783          	lw	a5,12(sp)
80004360:	00040513          	mv	a0,s0
80004364:	00078023          	sb	zero,0(a5)
80004368:	01c12083          	lw	ra,28(sp)
8000436c:	01812403          	lw	s0,24(sp)
80004370:	04010113          	addi	sp,sp,64
80004374:	00008067          	ret

80004378 <labs>:
80004378:	41f55793          	srai	a5,a0,0x1f
8000437c:	00a7c533          	xor	a0,a5,a0
80004380:	40f50533          	sub	a0,a0,a5
80004384:	00008067          	ret

80004388 <abs>:
80004388:	41f55793          	srai	a5,a0,0x1f
8000438c:	00a7c533          	xor	a0,a5,a0
80004390:	40f50533          	sub	a0,a0,a5
80004394:	00008067          	ret

80004398 <strndup>:
80004398:	ff010113          	addi	sp,sp,-16
8000439c:	00112623          	sw	ra,12(sp)
800043a0:	00812423          	sw	s0,8(sp)
800043a4:	00912223          	sw	s1,4(sp)
800043a8:	01212023          	sw	s2,0(sp)
800043ac:	00050913          	mv	s2,a0
800043b0:	670000ef          	jal	80004a20 <strnlen>
800043b4:	00050413          	mv	s0,a0
800043b8:	00150513          	addi	a0,a0,1
800043bc:	ef0fe0ef          	jal	80002aac <malloc>
800043c0:	00050493          	mv	s1,a0
800043c4:	00050c63          	beqz	a0,800043dc <strndup+0x44>
800043c8:	00040613          	mv	a2,s0
800043cc:	00090593          	mv	a1,s2
800043d0:	00848433          	add	s0,s1,s0
800043d4:	494000ef          	jal	80004868 <strncpy>
800043d8:	00040023          	sb	zero,0(s0)
800043dc:	00c12083          	lw	ra,12(sp)
800043e0:	00812403          	lw	s0,8(sp)
800043e4:	00012903          	lw	s2,0(sp)
800043e8:	00048513          	mv	a0,s1
800043ec:	00412483          	lw	s1,4(sp)
800043f0:	01010113          	addi	sp,sp,16
800043f4:	00008067          	ret

800043f8 <strdup>:
800043f8:	ff010113          	addi	sp,sp,-16
800043fc:	00812423          	sw	s0,8(sp)
80004400:	00112623          	sw	ra,12(sp)
80004404:	00050413          	mv	s0,a0
80004408:	37c000ef          	jal	80004784 <strlen>
8000440c:	00050593          	mv	a1,a0
80004410:	00040513          	mv	a0,s0
80004414:	00812403          	lw	s0,8(sp)
80004418:	00c12083          	lw	ra,12(sp)
8000441c:	01010113          	addi	sp,sp,16
80004420:	f79ff06f          	j	80004398 <strndup>

80004424 <atol>:
80004424:	00050793          	mv	a5,a0
80004428:	02b00693          	li	a3,43
8000442c:	0007c703          	lbu	a4,0(a5)
80004430:	04d70463          	beq	a4,a3,80004478 <atol+0x54>
80004434:	02e6e463          	bltu	a3,a4,8000445c <atol+0x38>
80004438:	00900613          	li	a2,9
8000443c:	02c70a63          	beq	a4,a2,80004470 <atol+0x4c>
80004440:	02000613          	li	a2,32
80004444:	02c70663          	beq	a4,a2,80004470 <atol+0x4c>
80004448:	00000693          	li	a3,0
8000444c:	00000513          	li	a0,0
80004450:	00900593          	li	a1,9
80004454:	00a00813          	li	a6,10
80004458:	0380006f          	j	80004490 <atol+0x6c>
8000445c:	02d00613          	li	a2,45
80004460:	00100693          	li	a3,1
80004464:	fec712e3          	bne	a4,a2,80004448 <atol+0x24>
80004468:	00178793          	addi	a5,a5,1
8000446c:	fe1ff06f          	j	8000444c <atol+0x28>
80004470:	00178793          	addi	a5,a5,1
80004474:	fb9ff06f          	j	8000442c <atol+0x8>
80004478:	00000693          	li	a3,0
8000447c:	fedff06f          	j	80004468 <atol+0x44>
80004480:	03050533          	mul	a0,a0,a6
80004484:	00178793          	addi	a5,a5,1
80004488:	00c50533          	add	a0,a0,a2
8000448c:	fd050513          	addi	a0,a0,-48
80004490:	0007c603          	lbu	a2,0(a5)
80004494:	fd060713          	addi	a4,a2,-48
80004498:	0ff77713          	zext.b	a4,a4
8000449c:	fee5f2e3          	bgeu	a1,a4,80004480 <atol+0x5c>
800044a0:	00068463          	beqz	a3,800044a8 <atol+0x84>
800044a4:	40a00533          	neg	a0,a0
800044a8:	00008067          	ret

800044ac <atoi>:
800044ac:	fe010113          	addi	sp,sp,-32
800044b0:	00812c23          	sw	s0,24(sp)
800044b4:	00912a23          	sw	s1,20(sp)
800044b8:	01312623          	sw	s3,12(sp)
800044bc:	00112e23          	sw	ra,28(sp)
800044c0:	01212823          	sw	s2,16(sp)
800044c4:	00050413          	mv	s0,a0
800044c8:	00000493          	li	s1,0
800044cc:	8000b9b7          	lui	s3,0x8000b
800044d0:	00940933          	add	s2,s0,s1
800044d4:	00094503          	lbu	a0,0(s2)
800044d8:	fac98593          	addi	a1,s3,-84 # 8000afac <start+0x32c>
800044dc:	3d8000ef          	jal	800048b4 <chrnlst>
800044e0:	02051463          	bnez	a0,80004508 <atoi+0x5c>
800044e4:	00094783          	lbu	a5,0(s2)
800044e8:	02d00713          	li	a4,45
800044ec:	02e79263          	bne	a5,a4,80004510 <atoi+0x64>
800044f0:	00148493          	addi	s1,s1,1
800044f4:	00100693          	li	a3,1
800044f8:	009407b3          	add	a5,s0,s1
800044fc:	00900613          	li	a2,9
80004500:	00a00813          	li	a6,10
80004504:	0280006f          	j	8000452c <atoi+0x80>
80004508:	00148493          	addi	s1,s1,1
8000450c:	fc5ff06f          	j	800044d0 <atoi+0x24>
80004510:	02b00713          	li	a4,43
80004514:	00000693          	li	a3,0
80004518:	fee790e3          	bne	a5,a4,800044f8 <atoi+0x4c>
8000451c:	00148493          	addi	s1,s1,1
80004520:	fd9ff06f          	j	800044f8 <atoi+0x4c>
80004524:	03050533          	mul	a0,a0,a6
80004528:	00a70533          	add	a0,a4,a0
8000452c:	0007c703          	lbu	a4,0(a5)
80004530:	00178793          	addi	a5,a5,1
80004534:	fd070713          	addi	a4,a4,-48
80004538:	0ff77593          	zext.b	a1,a4
8000453c:	feb674e3          	bgeu	a2,a1,80004524 <atoi+0x78>
80004540:	00100793          	li	a5,1
80004544:	00068463          	beqz	a3,8000454c <atoi+0xa0>
80004548:	fff00793          	li	a5,-1
8000454c:	01c12083          	lw	ra,28(sp)
80004550:	01812403          	lw	s0,24(sp)
80004554:	01412483          	lw	s1,20(sp)
80004558:	01012903          	lw	s2,16(sp)
8000455c:	00c12983          	lw	s3,12(sp)
80004560:	02f50533          	mul	a0,a0,a5
80004564:	02010113          	addi	sp,sp,32
80004568:	00008067          	ret

8000456c <uitoa>:
8000456c:	fb010113          	addi	sp,sp,-80
80004570:	04812423          	sw	s0,72(sp)
80004574:	00058413          	mv	s0,a1
80004578:	8000b5b7          	lui	a1,0x8000b
8000457c:	05212023          	sw	s2,64(sp)
80004580:	03312e23          	sw	s3,60(sp)
80004584:	00050913          	mv	s2,a0
80004588:	00060993          	mv	s3,a2
8000458c:	fb458593          	addi	a1,a1,-76 # 8000afb4 <start+0x334>
80004590:	02400613          	li	a2,36
80004594:	00c10513          	addi	a0,sp,12
80004598:	04912223          	sw	s1,68(sp)
8000459c:	04112623          	sw	ra,76(sp)
800045a0:	00068493          	mv	s1,a3
800045a4:	154000ef          	jal	800046f8 <memcpy>
800045a8:	02099463          	bnez	s3,800045d0 <uitoa+0x64>
800045ac:	00000413          	li	s0,0
800045b0:	04c12083          	lw	ra,76(sp)
800045b4:	00040513          	mv	a0,s0
800045b8:	04812403          	lw	s0,72(sp)
800045bc:	04412483          	lw	s1,68(sp)
800045c0:	04012903          	lw	s2,64(sp)
800045c4:	03c12983          	lw	s3,60(sp)
800045c8:	05010113          	addi	sp,sp,80
800045cc:	00008067          	ret
800045d0:	ffe48793          	addi	a5,s1,-2
800045d4:	02200713          	li	a4,34
800045d8:	fcf76ae3          	bltu	a4,a5,800045ac <uitoa+0x40>
800045dc:	00000793          	li	a5,0
800045e0:	02997733          	remu	a4,s2,s1
800045e4:	00178793          	addi	a5,a5,1
800045e8:	00f406b3          	add	a3,s0,a5
800045ec:	03070713          	addi	a4,a4,48
800045f0:	00270733          	add	a4,a4,sp
800045f4:	fdc74703          	lbu	a4,-36(a4)
800045f8:	fee68fa3          	sb	a4,-1(a3)
800045fc:	01378663          	beq	a5,s3,80004608 <uitoa+0x9c>
80004600:	02995733          	divu	a4,s2,s1
80004604:	00997c63          	bgeu	s2,s1,8000461c <uitoa+0xb0>
80004608:	faf982e3          	beq	s3,a5,800045ac <uitoa+0x40>
8000460c:	00068023          	sb	zero,0(a3)
80004610:	00040513          	mv	a0,s0
80004614:	190000ef          	jal	800047a4 <strreverse>
80004618:	f99ff06f          	j	800045b0 <uitoa+0x44>
8000461c:	00070913          	mv	s2,a4
80004620:	fc1ff06f          	j	800045e0 <uitoa+0x74>

80004624 <itoa>:
80004624:	00050793          	mv	a5,a0
80004628:	04060063          	beqz	a2,80004668 <itoa+0x44>
8000462c:	ffe68713          	addi	a4,a3,-2
80004630:	02200513          	li	a0,34
80004634:	02e56a63          	bltu	a0,a4,80004668 <itoa+0x44>
80004638:	00078513          	mv	a0,a5
8000463c:	0207d063          	bgez	a5,8000465c <itoa+0x38>
80004640:	02d00793          	li	a5,45
80004644:	00f58023          	sb	a5,0(a1)
80004648:	fff60613          	addi	a2,a2,-1
8000464c:	00100793          	li	a5,1
80004650:	40a00533          	neg	a0,a0
80004654:	00f585b3          	add	a1,a1,a5
80004658:	f15ff06f          	j	8000456c <uitoa>
8000465c:	fe078ae3          	beqz	a5,80004650 <itoa+0x2c>
80004660:	00000793          	li	a5,0
80004664:	ff1ff06f          	j	80004654 <itoa+0x30>
80004668:	00000513          	li	a0,0
8000466c:	00008067          	ret

80004670 <bzero>:
80004670:	00b05a63          	blez	a1,80004684 <bzero+0x14>
80004674:	00b505b3          	add	a1,a0,a1
80004678:	00150513          	addi	a0,a0,1
8000467c:	fe050fa3          	sb	zero,-1(a0)
80004680:	feb51ce3          	bne	a0,a1,80004678 <bzero+0x8>
80004684:	00008067          	ret

80004688 <memchr>:
80004688:	00c50633          	add	a2,a0,a2
8000468c:	00c51663          	bne	a0,a2,80004698 <memchr+0x10>
80004690:	00000513          	li	a0,0
80004694:	00008067          	ret
80004698:	00054783          	lbu	a5,0(a0)
8000469c:	feb78ce3          	beq	a5,a1,80004694 <memchr+0xc>
800046a0:	00150513          	addi	a0,a0,1
800046a4:	fe9ff06f          	j	8000468c <memchr+0x4>

800046a8 <memcmp>:
800046a8:	00000793          	li	a5,0
800046ac:	00c79663          	bne	a5,a2,800046b8 <memcmp+0x10>
800046b0:	00000513          	li	a0,0
800046b4:	00008067          	ret
800046b8:	00f50733          	add	a4,a0,a5
800046bc:	00178793          	addi	a5,a5,1
800046c0:	00074683          	lbu	a3,0(a4)
800046c4:	00f58733          	add	a4,a1,a5
800046c8:	fff74703          	lbu	a4,-1(a4)
800046cc:	fee680e3          	beq	a3,a4,800046ac <memcmp+0x4>
800046d0:	fff00513          	li	a0,-1
800046d4:	fed770e3          	bgeu	a4,a3,800046b4 <memcmp+0xc>
800046d8:	00100513          	li	a0,1
800046dc:	00008067          	ret

800046e0 <memset>:
800046e0:	00c50633          	add	a2,a0,a2
800046e4:	00c56463          	bltu	a0,a2,800046ec <memset+0xc>
800046e8:	00008067          	ret
800046ec:	00b50023          	sb	a1,0(a0)
800046f0:	00150513          	addi	a0,a0,1
800046f4:	ff1ff06f          	j	800046e4 <memset+0x4>

800046f8 <memcpy>:
800046f8:	00000793          	li	a5,0
800046fc:	00c7c463          	blt	a5,a2,80004704 <memcpy+0xc>
80004700:	00008067          	ret
80004704:	00f58733          	add	a4,a1,a5
80004708:	00074683          	lbu	a3,0(a4)
8000470c:	00f50733          	add	a4,a0,a5
80004710:	00178793          	addi	a5,a5,1
80004714:	00d70023          	sb	a3,0(a4)
80004718:	fe5ff06f          	j	800046fc <memcpy+0x4>

8000471c <memmove>:
8000471c:	fff00793          	li	a5,-1
80004720:	02a5e063          	bltu	a1,a0,80004740 <memmove+0x24>
80004724:	00000793          	li	a5,0
80004728:	02f61263          	bne	a2,a5,8000474c <memmove+0x30>
8000472c:	00008067          	ret
80004730:	00c58733          	add	a4,a1,a2
80004734:	00074683          	lbu	a3,0(a4)
80004738:	00c50733          	add	a4,a0,a2
8000473c:	00d70023          	sb	a3,0(a4)
80004740:	fff60613          	addi	a2,a2,-1
80004744:	fef616e3          	bne	a2,a5,80004730 <memmove+0x14>
80004748:	00008067          	ret
8000474c:	00f58733          	add	a4,a1,a5
80004750:	00074683          	lbu	a3,0(a4)
80004754:	00f50733          	add	a4,a0,a5
80004758:	00178793          	addi	a5,a5,1
8000475c:	00d70023          	sb	a3,0(a4)
80004760:	fc9ff06f          	j	80004728 <memmove+0xc>

80004764 <strchr>:
80004764:	00054783          	lbu	a5,0(a0)
80004768:	00b78863          	beq	a5,a1,80004778 <strchr+0x14>
8000476c:	00079863          	bnez	a5,8000477c <strchr+0x18>
80004770:	00058463          	beqz	a1,80004778 <strchr+0x14>
80004774:	00000513          	li	a0,0
80004778:	00008067          	ret
8000477c:	00150513          	addi	a0,a0,1
80004780:	fe5ff06f          	j	80004764 <strchr>

80004784 <strlen>:
80004784:	00050793          	mv	a5,a0
80004788:	00000513          	li	a0,0
8000478c:	00a78733          	add	a4,a5,a0
80004790:	00074703          	lbu	a4,0(a4)
80004794:	00071463          	bnez	a4,8000479c <strlen+0x18>
80004798:	00008067          	ret
8000479c:	00150513          	addi	a0,a0,1
800047a0:	fedff06f          	j	8000478c <strlen+0x8>

800047a4 <strreverse>:
800047a4:	02050263          	beqz	a0,800047c8 <strreverse+0x24>
800047a8:	00054783          	lbu	a5,0(a0)
800047ac:	00078e63          	beqz	a5,800047c8 <strreverse+0x24>
800047b0:	00050713          	mv	a4,a0
800047b4:	00070793          	mv	a5,a4
800047b8:	00174683          	lbu	a3,1(a4)
800047bc:	00170713          	addi	a4,a4,1
800047c0:	fe069ae3          	bnez	a3,800047b4 <strreverse+0x10>
800047c4:	00f56463          	bltu	a0,a5,800047cc <strreverse+0x28>
800047c8:	00008067          	ret
800047cc:	0007c683          	lbu	a3,0(a5)
800047d0:	00054703          	lbu	a4,0(a0)
800047d4:	fff78793          	addi	a5,a5,-1
800047d8:	00150513          	addi	a0,a0,1
800047dc:	fed50fa3          	sb	a3,-1(a0)
800047e0:	00e780a3          	sb	a4,1(a5)
800047e4:	fe1ff06f          	j	800047c4 <strreverse+0x20>

800047e8 <strcmp>:
800047e8:	00054783          	lbu	a5,0(a0)
800047ec:	0005c703          	lbu	a4,0(a1)
800047f0:	00e79e63          	bne	a5,a4,8000480c <strcmp+0x24>
800047f4:	00079663          	bnez	a5,80004800 <strcmp+0x18>
800047f8:	00000513          	li	a0,0
800047fc:	00008067          	ret
80004800:	00150513          	addi	a0,a0,1
80004804:	00158593          	addi	a1,a1,1
80004808:	fe1ff06f          	j	800047e8 <strcmp>
8000480c:	fff00513          	li	a0,-1
80004810:	00f77463          	bgeu	a4,a5,80004818 <strcmp+0x30>
80004814:	00100513          	li	a0,1
80004818:	00008067          	ret

8000481c <strncmp>:
8000481c:	00000793          	li	a5,0
80004820:	00f50733          	add	a4,a0,a5
80004824:	00f586b3          	add	a3,a1,a5
80004828:	00074703          	lbu	a4,0(a4)
8000482c:	0006c683          	lbu	a3,0(a3)
80004830:	02d71663          	bne	a4,a3,8000485c <strncmp+0x40>
80004834:	00070463          	beqz	a4,8000483c <strncmp+0x20>
80004838:	00c79663          	bne	a5,a2,80004844 <strncmp+0x28>
8000483c:	00000513          	li	a0,0
80004840:	00008067          	ret
80004844:	00178793          	addi	a5,a5,1
80004848:	fd9ff06f          	j	80004820 <strncmp+0x4>
8000484c:	fff00513          	li	a0,-1
80004850:	00e6fa63          	bgeu	a3,a4,80004864 <strncmp+0x48>
80004854:	00100513          	li	a0,1
80004858:	00008067          	ret
8000485c:	40f60533          	sub	a0,a2,a5
80004860:	fef616e3          	bne	a2,a5,8000484c <strncmp+0x30>
80004864:	00008067          	ret

80004868 <strncpy>:
80004868:	00050793          	mv	a5,a0
8000486c:	0005c683          	lbu	a3,0(a1)
80004870:	fff60713          	addi	a4,a2,-1
80004874:	02069463          	bnez	a3,8000489c <strncpy+0x34>
80004878:	00c78633          	add	a2,a5,a2
8000487c:	40f60733          	sub	a4,a2,a5
80004880:	02e04463          	bgtz	a4,800048a8 <strncpy+0x40>
80004884:	00008067          	ret
80004888:	00178793          	addi	a5,a5,1
8000488c:	00158593          	addi	a1,a1,1
80004890:	00070613          	mv	a2,a4
80004894:	fed78fa3          	sb	a3,-1(a5)
80004898:	fd5ff06f          	j	8000486c <strncpy+0x4>
8000489c:	fec046e3          	bgtz	a2,80004888 <strncpy+0x20>
800048a0:	00070613          	mv	a2,a4
800048a4:	fd5ff06f          	j	80004878 <strncpy+0x10>
800048a8:	00178793          	addi	a5,a5,1
800048ac:	fe078fa3          	sb	zero,-1(a5)
800048b0:	fcdff06f          	j	8000487c <strncpy+0x14>

800048b4 <chrnlst>:
800048b4:	0005c783          	lbu	a5,0(a1)
800048b8:	00079663          	bnez	a5,800048c4 <chrnlst+0x10>
800048bc:	00000513          	li	a0,0
800048c0:	00008067          	ret
800048c4:	00158593          	addi	a1,a1,1
800048c8:	fea796e3          	bne	a5,a0,800048b4 <chrnlst>
800048cc:	00100513          	li	a0,1
800048d0:	00008067          	ret

800048d4 <strncat>:
800048d4:	00050713          	mv	a4,a0
800048d8:	00070793          	mv	a5,a4
800048dc:	00074683          	lbu	a3,0(a4)
800048e0:	00170713          	addi	a4,a4,1
800048e4:	fe069ae3          	bnez	a3,800048d8 <strncat+0x4>
800048e8:	00c78633          	add	a2,a5,a2
800048ec:	0005c703          	lbu	a4,0(a1)
800048f0:	00078693          	mv	a3,a5
800048f4:	00158593          	addi	a1,a1,1
800048f8:	00e78023          	sb	a4,0(a5)
800048fc:	00178793          	addi	a5,a5,1
80004900:	00071463          	bnez	a4,80004908 <strncat+0x34>
80004904:	00008067          	ret
80004908:	40f60733          	sub	a4,a2,a5
8000490c:	fe0750e3          	bgez	a4,800048ec <strncat+0x18>
80004910:	00068023          	sb	zero,0(a3)
80004914:	00008067          	ret

80004918 <strstr>:
80004918:	00054783          	lbu	a5,0(a0)
8000491c:	00079663          	bnez	a5,80004928 <strstr+0x10>
80004920:	00000513          	li	a0,0
80004924:	00008067          	ret
80004928:	0005c703          	lbu	a4,0(a1)
8000492c:	02f71a63          	bne	a4,a5,80004960 <strstr+0x48>
80004930:	00058693          	mv	a3,a1
80004934:	00050713          	mv	a4,a0
80004938:	0100006f          	j	80004948 <strstr+0x30>
8000493c:	02c79263          	bne	a5,a2,80004960 <strstr+0x48>
80004940:	00170713          	addi	a4,a4,1
80004944:	00168693          	addi	a3,a3,1
80004948:	00074603          	lbu	a2,0(a4)
8000494c:	0006c783          	lbu	a5,0(a3)
80004950:	00060663          	beqz	a2,8000495c <strstr+0x44>
80004954:	fe0794e3          	bnez	a5,8000493c <strstr+0x24>
80004958:	00008067          	ret
8000495c:	fc0784e3          	beqz	a5,80004924 <strstr+0xc>
80004960:	00150513          	addi	a0,a0,1
80004964:	fb5ff06f          	j	80004918 <strstr>

80004968 <strcpy>:
80004968:	0005c783          	lbu	a5,0(a1)
8000496c:	00158593          	addi	a1,a1,1
80004970:	00150513          	addi	a0,a0,1
80004974:	fef50fa3          	sb	a5,-1(a0)
80004978:	fe0798e3          	bnez	a5,80004968 <strcpy>
8000497c:	00000513          	li	a0,0
80004980:	00008067          	ret

80004984 <strspn>:
80004984:	00050793          	mv	a5,a0
80004988:	0007c683          	lbu	a3,0(a5)
8000498c:	00068e63          	beqz	a3,800049a8 <strspn+0x24>
80004990:	00058713          	mv	a4,a1
80004994:	00c0006f          	j	800049a0 <strspn+0x1c>
80004998:	00d60c63          	beq	a2,a3,800049b0 <strspn+0x2c>
8000499c:	00170713          	addi	a4,a4,1
800049a0:	00074603          	lbu	a2,0(a4)
800049a4:	fe061ae3          	bnez	a2,80004998 <strspn+0x14>
800049a8:	40a78533          	sub	a0,a5,a0
800049ac:	00008067          	ret
800049b0:	00178793          	addi	a5,a5,1
800049b4:	fd5ff06f          	j	80004988 <strspn+0x4>

800049b8 <strcat>:
800049b8:	fe010113          	addi	sp,sp,-32
800049bc:	00112e23          	sw	ra,28(sp)
800049c0:	00812c23          	sw	s0,24(sp)
800049c4:	00b12623          	sw	a1,12(sp)
800049c8:	00050413          	mv	s0,a0
800049cc:	db9ff0ef          	jal	80004784 <strlen>
800049d0:	00c12583          	lw	a1,12(sp)
800049d4:	00a40533          	add	a0,s0,a0
800049d8:	f91ff0ef          	jal	80004968 <strcpy>
800049dc:	01c12083          	lw	ra,28(sp)
800049e0:	00040513          	mv	a0,s0
800049e4:	01812403          	lw	s0,24(sp)
800049e8:	02010113          	addi	sp,sp,32
800049ec:	00008067          	ret

800049f0 <strcspn>:
800049f0:	00050793          	mv	a5,a0
800049f4:	00078713          	mv	a4,a5
800049f8:	0007c803          	lbu	a6,0(a5)
800049fc:	00178793          	addi	a5,a5,1
80004a00:	00058693          	mv	a3,a1
80004a04:	0006c603          	lbu	a2,0(a3)
80004a08:	00168693          	addi	a3,a3,1
80004a0c:	00c80663          	beq	a6,a2,80004a18 <strcspn+0x28>
80004a10:	fe061ae3          	bnez	a2,80004a04 <strcspn+0x14>
80004a14:	fe1ff06f          	j	800049f4 <strcspn+0x4>
80004a18:	40a70533          	sub	a0,a4,a0
80004a1c:	00008067          	ret

80004a20 <strnlen>:
80004a20:	00050793          	mv	a5,a0
80004a24:	00000513          	li	a0,0
80004a28:	00a78733          	add	a4,a5,a0
80004a2c:	00074703          	lbu	a4,0(a4)
80004a30:	00070463          	beqz	a4,80004a38 <strnlen+0x18>
80004a34:	00b54463          	blt	a0,a1,80004a3c <strnlen+0x1c>
80004a38:	00008067          	ret
80004a3c:	00150513          	addi	a0,a0,1
80004a40:	fe9ff06f          	j	80004a28 <strnlen+0x8>

80004a44 <strtok>:
80004a44:	00050793          	mv	a5,a0
80004a48:	00051863          	bnez	a0,80004a58 <strtok+0x14>
80004a4c:	8005f7b7          	lui	a5,0x8005f
80004a50:	0147a783          	lw	a5,20(a5) # 8005f014 <last.0>
80004a54:	02078663          	beqz	a5,80004a80 <strtok+0x3c>
80004a58:	00078513          	mv	a0,a5
80004a5c:	0007c683          	lbu	a3,0(a5)
80004a60:	00178793          	addi	a5,a5,1
80004a64:	00058713          	mv	a4,a1
80004a68:	00074603          	lbu	a2,0(a4)
80004a6c:	00170713          	addi	a4,a4,1
80004a70:	00061c63          	bnez	a2,80004a88 <strtok+0x44>
80004a74:	02069463          	bnez	a3,80004a9c <strtok+0x58>
80004a78:	8005f7b7          	lui	a5,0x8005f
80004a7c:	0007aa23          	sw	zero,20(a5) # 8005f014 <last.0>
80004a80:	00000513          	li	a0,0
80004a84:	00008067          	ret
80004a88:	fec690e3          	bne	a3,a2,80004a68 <strtok+0x24>
80004a8c:	fcdff06f          	j	80004a58 <strtok+0x14>
80004a90:	00000793          	li	a5,0
80004a94:	02c0006f          	j	80004ac0 <strtok+0x7c>
80004a98:	00069a63          	bnez	a3,80004aac <strtok+0x68>
80004a9c:	00078813          	mv	a6,a5
80004aa0:	0007c603          	lbu	a2,0(a5)
80004aa4:	00178793          	addi	a5,a5,1
80004aa8:	00058713          	mv	a4,a1
80004aac:	00074683          	lbu	a3,0(a4)
80004ab0:	00170713          	addi	a4,a4,1
80004ab4:	fed612e3          	bne	a2,a3,80004a98 <strtok+0x54>
80004ab8:	fc060ce3          	beqz	a2,80004a90 <strtok+0x4c>
80004abc:	00080023          	sb	zero,0(a6)
80004ac0:	8005f737          	lui	a4,0x8005f
80004ac4:	00f72a23          	sw	a5,20(a4) # 8005f014 <last.0>
80004ac8:	00008067          	ret

80004acc <strrchr>:
80004acc:	00000793          	li	a5,0
80004ad0:	0ff5f593          	zext.b	a1,a1
80004ad4:	00054703          	lbu	a4,0(a0)
80004ad8:	00071863          	bnez	a4,80004ae8 <strrchr+0x1c>
80004adc:	00058463          	beqz	a1,80004ae4 <strrchr+0x18>
80004ae0:	00078513          	mv	a0,a5
80004ae4:	00008067          	ret
80004ae8:	00e59463          	bne	a1,a4,80004af0 <strrchr+0x24>
80004aec:	00050793          	mv	a5,a0
80004af0:	00150513          	addi	a0,a0,1
80004af4:	fe1ff06f          	j	80004ad4 <strrchr+0x8>

80004af8 <__subdf3>:
80004af8:	800007b7          	lui	a5,0x80000
80004afc:	00f6c6b3          	xor	a3,a3,a5

80004b00 <__adddf3>:
80004b00:	ffe007b7          	lui	a5,0xffe00
80004b04:	00159813          	slli	a6,a1,0x1
80004b08:	00169893          	slli	a7,a3,0x1
80004b0c:	38f87a63          	bgeu	a6,a5,80004ea0 <infnan>
80004b10:	38f8f063          	bgeu	a7,a5,80004e90 <infnan_B_only>
80004b14:	01184733          	xor	a4,a6,a7
80004b18:	00c54333          	xor	t1,a0,a2
80004b1c:	00676733          	or	a4,a4,t1
80004b20:	30070263          	beqz	a4,80004e24 <equal>
80004b24:	00a86733          	or	a4,a6,a0
80004b28:	2e070463          	beqz	a4,80004e10 <zero_operand>
80004b2c:	00c8e333          	or	t1,a7,a2
80004b30:	2e030063          	beqz	t1,80004e10 <zero_operand>
80004b34:	01585813          	srli	a6,a6,0x15
80004b38:	0158d893          	srli	a7,a7,0x15
80004b3c:	411802b3          	sub	t0,a6,a7
80004b40:	03187263          	bgeu	a6,a7,80004b64 <__adddf3+0x64>
80004b44:	405002b3          	neg	t0,t0
80004b48:	00088813          	mv	a6,a7
80004b4c:	00c54633          	xor	a2,a0,a2
80004b50:	00d5c6b3          	xor	a3,a1,a3
80004b54:	00a64533          	xor	a0,a2,a0
80004b58:	00b6c5b3          	xor	a1,a3,a1
80004b5c:	00c54633          	xor	a2,a0,a2
80004b60:	00d5c6b3          	xor	a3,a1,a3
80004b64:	0372b893          	sltiu	a7,t0,55
80004b68:	14088463          	beqz	a7,80004cb0 <exit>
80004b6c:	fff7c793          	not	a5,a5
80004b70:	01489893          	slli	a7,a7,0x14
80004b74:	0115e5b3          	or	a1,a1,a7
80004b78:	0116e6b3          	or	a3,a3,a7
80004b7c:	00b89893          	slli	a7,a7,0xb
80004b80:	0115b333          	sltu	t1,a1,a7
80004b84:	00f5f5b3          	and	a1,a1,a5
80004b88:	00031a63          	bnez	t1,80004b9c <__adddf3+0x9c>
80004b8c:	00153313          	seqz	t1,a0
80004b90:	fff5c593          	not	a1,a1
80004b94:	40a00533          	neg	a0,a0
80004b98:	006585b3          	add	a1,a1,t1
80004b9c:	0116b333          	sltu	t1,a3,a7
80004ba0:	00f6f6b3          	and	a3,a3,a5
80004ba4:	00031a63          	bnez	t1,80004bb8 <__adddf3+0xb8>
80004ba8:	00163313          	seqz	t1,a2
80004bac:	fff6c693          	not	a3,a3
80004bb0:	40c00633          	neg	a2,a2
80004bb4:	006686b3          	add	a3,a3,t1
80004bb8:	22580c63          	beq	a6,t0,80004df0 <denormal>

80004bbc <sum>:
80004bbc:	fff80813          	addi	a6,a6,-1
80004bc0:	00000713          	li	a4,0
80004bc4:	02000313          	li	t1,32
80004bc8:	0062ea63          	bltu	t0,t1,80004bdc <sum+0x20>
80004bcc:	00060713          	mv	a4,a2
80004bd0:	00068613          	mv	a2,a3
80004bd4:	41f6d693          	srai	a3,a3,0x1f
80004bd8:	fe028293          	addi	t0,t0,-32
80004bdc:	02028863          	beqz	t0,80004c0c <sum+0x50>
80004be0:	405308b3          	sub	a7,t1,t0
80004be4:	01171333          	sll	t1,a4,a7
80004be8:	00575733          	srl	a4,a4,t0
80004bec:	011617b3          	sll	a5,a2,a7
80004bf0:	00f76733          	or	a4,a4,a5
80004bf4:	00565633          	srl	a2,a2,t0
80004bf8:	011697b3          	sll	a5,a3,a7
80004bfc:	00f66633          	or	a2,a2,a5
80004c00:	4056d6b3          	sra	a3,a3,t0
80004c04:	00603333          	snez	t1,t1
80004c08:	00676733          	or	a4,a4,t1
80004c0c:	00c50533          	add	a0,a0,a2
80004c10:	00c53633          	sltu	a2,a0,a2
80004c14:	00c686b3          	add	a3,a3,a2
80004c18:	00d585b3          	add	a1,a1,a3
80004c1c:	01f5d893          	srli	a7,a1,0x1f
80004c20:	01f89893          	slli	a7,a7,0x1f
80004c24:	0205d263          	bgez	a1,80004c48 <pos_or_zero>
80004c28:	40e00733          	neg	a4,a4
80004c2c:	00173793          	seqz	a5,a4
80004c30:	fff54513          	not	a0,a0
80004c34:	00f50533          	add	a0,a0,a5
80004c38:	00153313          	seqz	t1,a0
80004c3c:	00f37333          	and	t1,t1,a5
80004c40:	fff5c593          	not	a1,a1
80004c44:	006585b3          	add	a1,a1,t1

80004c48 <pos_or_zero>:
80004c48:	001007b7          	lui	a5,0x100
80004c4c:	06f5e463          	bltu	a1,a5,80004cb4 <num_canc>
80004c50:	00179793          	slli	a5,a5,0x1
80004c54:	02f5ea63          	bltu	a1,a5,80004c88 <rounding>
80004c58:	00177793          	andi	a5,a4,1
80004c5c:	00175713          	srli	a4,a4,0x1
80004c60:	00f76733          	or	a4,a4,a5
80004c64:	01f51793          	slli	a5,a0,0x1f
80004c68:	00f76733          	or	a4,a4,a5
80004c6c:	00155513          	srli	a0,a0,0x1
80004c70:	01f59793          	slli	a5,a1,0x1f
80004c74:	00f56533          	or	a0,a0,a5
80004c78:	0015d593          	srli	a1,a1,0x1
80004c7c:	00180813          	addi	a6,a6,1
80004c80:	7fe00793          	li	a5,2046
80004c84:	1ef85e63          	bge	a6,a5,80004e80 <inf>

80004c88 <rounding>:
80004c88:	800007b7          	lui	a5,0x80000
80004c8c:	01481813          	slli	a6,a6,0x14
80004c90:	010585b3          	add	a1,a1,a6
80004c94:	00f76c63          	bltu	a4,a5,80004cac <complete_sum>
80004c98:	00150513          	addi	a0,a0,1
80004c9c:	00153613          	seqz	a2,a0
80004ca0:	00c585b3          	add	a1,a1,a2
80004ca4:	00f71463          	bne	a4,a5,80004cac <complete_sum>
80004ca8:	ffe57513          	andi	a0,a0,-2

80004cac <complete_sum>:
80004cac:	0115e5b3          	or	a1,a1,a7

80004cb0 <exit>:
80004cb0:	00008067          	ret

80004cb4 <num_canc>:
80004cb4:	00159593          	slli	a1,a1,0x1
80004cb8:	01f55793          	srli	a5,a0,0x1f
80004cbc:	00f5e5b3          	or	a1,a1,a5
80004cc0:	00151513          	slli	a0,a0,0x1
80004cc4:	01f75793          	srli	a5,a4,0x1f
80004cc8:	00f56533          	or	a0,a0,a5
80004ccc:	00171713          	slli	a4,a4,0x1
80004cd0:	00080793          	mv	a5,a6
80004cd4:	fff80813          	addi	a6,a6,-1
80004cd8:	00078663          	beqz	a5,80004ce4 <denormal_or_str_canc>
80004cdc:	001007b7          	lui	a5,0x100
80004ce0:	faf5f4e3          	bgeu	a1,a5,80004c88 <rounding>

80004ce4 <denormal_or_str_canc>:
80004ce4:	00059863          	bnez	a1,80004cf4 <denormal_or_str_canc+0x10>
80004ce8:	00050593          	mv	a1,a0
80004cec:	00000513          	li	a0,0
80004cf0:	02000713          	li	a4,32
80004cf4:	00058693          	mv	a3,a1
80004cf8:	000107b7          	lui	a5,0x10
80004cfc:	00f6f663          	bgeu	a3,a5,80004d08 <denormal_or_str_canc+0x24>
80004d00:	01069693          	slli	a3,a3,0x10
80004d04:	01070713          	addi	a4,a4,16
80004d08:	00479793          	slli	a5,a5,0x4
80004d0c:	00f6f663          	bgeu	a3,a5,80004d18 <denormal_or_str_canc+0x34>
80004d10:	00c69693          	slli	a3,a3,0xc
80004d14:	00c70713          	addi	a4,a4,12
80004d18:	00479793          	slli	a5,a5,0x4
80004d1c:	00f6f663          	bgeu	a3,a5,80004d28 <denormal_or_str_canc+0x44>
80004d20:	00869693          	slli	a3,a3,0x8
80004d24:	00870713          	addi	a4,a4,8
80004d28:	00479793          	slli	a5,a5,0x4
80004d2c:	00f6f663          	bgeu	a3,a5,80004d38 <denormal_or_str_canc+0x54>
80004d30:	00469693          	slli	a3,a3,0x4
80004d34:	00470713          	addi	a4,a4,4
80004d38:	00279793          	slli	a5,a5,0x2
80004d3c:	00f6f663          	bgeu	a3,a5,80004d48 <denormal_or_str_canc+0x64>
80004d40:	00269693          	slli	a3,a3,0x2
80004d44:	00270713          	addi	a4,a4,2
80004d48:	00179793          	slli	a5,a5,0x1
80004d4c:	00f6f663          	bgeu	a3,a5,80004d58 <denormal_or_str_canc+0x74>
80004d50:	00169693          	slli	a3,a3,0x1
80004d54:	00170713          	addi	a4,a4,1
80004d58:	ff570713          	addi	a4,a4,-11
80004d5c:	04070e63          	beqz	a4,80004db8 <denormal_canc>
80004d60:	fe070613          	addi	a2,a4,-32
80004d64:	02065263          	bgez	a2,80004d88 <denormal_or_str_canc+0xa4>
80004d68:	00c60613          	addi	a2,a2,12
80004d6c:	00c05c63          	blez	a2,80004d84 <denormal_or_str_canc+0xa0>
80004d70:	00c00693          	li	a3,12
80004d74:	40c68633          	sub	a2,a3,a2
80004d78:	00e59533          	sll	a0,a1,a4
80004d7c:	00c5d5b3          	srl	a1,a1,a2
80004d80:	0200006f          	j	80004da0 <denormal_or_str_canc+0xbc>
80004d84:	01460613          	addi	a2,a2,20
80004d88:	00c595b3          	sll	a1,a1,a2
80004d8c:	02000693          	li	a3,32
80004d90:	40c686b3          	sub	a3,a3,a2
80004d94:	00d556b3          	srl	a3,a0,a3
80004d98:	00d5e5b3          	or	a1,a1,a3
80004d9c:	00c51533          	sll	a0,a0,a2
80004da0:	40e80833          	sub	a6,a6,a4
80004da4:	00084a63          	bltz	a6,80004db8 <denormal_canc>
80004da8:	01481813          	slli	a6,a6,0x14
80004dac:	010585b3          	add	a1,a1,a6
80004db0:	0115e5b3          	or	a1,a1,a7
80004db4:	efdff06f          	j	80004cb0 <exit>

80004db8 <denormal_canc>:
80004db8:	41000833          	neg	a6,a6
80004dbc:	fe080813          	addi	a6,a6,-32
80004dc0:	02085263          	bgez	a6,80004de4 <denormal_canc+0x2c>
80004dc4:	02080713          	addi	a4,a6,32
80004dc8:	41000833          	neg	a6,a6
80004dcc:	00e55533          	srl	a0,a0,a4
80004dd0:	01059833          	sll	a6,a1,a6
80004dd4:	01056533          	or	a0,a0,a6
80004dd8:	00e5d5b3          	srl	a1,a1,a4
80004ddc:	0115e5b3          	or	a1,a1,a7
80004de0:	ed1ff06f          	j	80004cb0 <exit>
80004de4:	0105d533          	srl	a0,a1,a6
80004de8:	00088593          	mv	a1,a7
80004dec:	ec5ff06f          	j	80004cb0 <exit>

80004df0 <denormal>:
80004df0:	001007b7          	lui	a5,0x100
80004df4:	00f6c6b3          	xor	a3,a3,a5
80004df8:	00080663          	beqz	a6,80004e04 <denormal+0x14>
80004dfc:	fff28293          	addi	t0,t0,-1
80004e00:	00081663          	bnez	a6,80004e0c <denormal+0x1c>
80004e04:	00f5c5b3          	xor	a1,a1,a5
80004e08:	00180813          	addi	a6,a6,1
80004e0c:	db1ff06f          	j	80004bbc <sum>

80004e10 <zero_operand>:
80004e10:	00a867b3          	or	a5,a6,a0
80004e14:	00079663          	bnez	a5,80004e20 <zero_operand_return>
80004e18:	00068593          	mv	a1,a3
80004e1c:	00060513          	mv	a0,a2

80004e20 <zero_operand_return>:
80004e20:	e91ff06f          	j	80004cb0 <exit>

80004e24 <equal>:
80004e24:	00d58863          	beq	a1,a3,80004e34 <equal_samesign>
80004e28:	00000593          	li	a1,0
80004e2c:	00000513          	li	a0,0
80004e30:	e81ff06f          	j	80004cb0 <exit>

80004e34 <equal_samesign>:
80004e34:	0107f7b3          	and	a5,a5,a6
80004e38:	02079263          	bnez	a5,80004e5c <equal_nodenormal>
80004e3c:	00080593          	mv	a1,a6
80004e40:	01f55713          	srli	a4,a0,0x1f
80004e44:	00e5e5b3          	or	a1,a1,a4
80004e48:	00151513          	slli	a0,a0,0x1
80004e4c:	00d5f663          	bgeu	a1,a3,80004e58 <equal_samesign+0x24>
80004e50:	800007b7          	lui	a5,0x80000
80004e54:	00f5e5b3          	or	a1,a1,a5
80004e58:	e59ff06f          	j	80004cb0 <exit>

80004e5c <equal_nodenormal>:
80004e5c:	01585813          	srli	a6,a6,0x15
80004e60:	7fe00713          	li	a4,2046
80004e64:	00e837b3          	sltu	a5,a6,a4
80004e68:	00078863          	beqz	a5,80004e78 <equal_nodenormal+0x1c>
80004e6c:	01479793          	slli	a5,a5,0x14
80004e70:	00f585b3          	add	a1,a1,a5
80004e74:	e3dff06f          	j	80004cb0 <exit>
80004e78:	800007b7          	lui	a5,0x80000
80004e7c:	00b7f8b3          	and	a7,a5,a1

80004e80 <inf>:
80004e80:	7ff005b7          	lui	a1,0x7ff00
80004e84:	00000513          	li	a0,0
80004e88:	0115e5b3          	or	a1,a1,a7
80004e8c:	e25ff06f          	j	80004cb0 <exit>

80004e90 <infnan_B_only>:
80004e90:	00068593          	mv	a1,a3
80004e94:	00060513          	mv	a0,a2
80004e98:	00088813          	mv	a6,a7
80004e9c:	0100006f          	j	80004eac <infnan_end>

80004ea0 <infnan>:
80004ea0:	00f8f663          	bgeu	a7,a5,80004eac <infnan_end>
80004ea4:	00058693          	mv	a3,a1
80004ea8:	00050613          	mv	a2,a0

80004eac <infnan_end>:
80004eac:	00b81813          	slli	a6,a6,0xb
80004eb0:	00a86833          	or	a6,a6,a0
80004eb4:	00081863          	bnez	a6,80004ec4 <produce_nan>
80004eb8:	00c51663          	bne	a0,a2,80004ec4 <produce_nan>
80004ebc:	00d59463          	bne	a1,a3,80004ec4 <produce_nan>
80004ec0:	df1ff06f          	j	80004cb0 <exit>

80004ec4 <produce_nan>:
80004ec4:	7ff805b7          	lui	a1,0x7ff80
80004ec8:	00000513          	li	a0,0
80004ecc:	de5ff06f          	j	80004cb0 <exit>

80004ed0 <__subsf3>:
80004ed0:	800007b7          	lui	a5,0x80000
80004ed4:	00f5c5b3          	xor	a1,a1,a5

80004ed8 <__addsf3>:
80004ed8:	80000337          	lui	t1,0x80000
80004edc:	00b543b3          	xor	t2,a0,a1
80004ee0:	00657733          	and	a4,a0,t1
80004ee4:	00151613          	slli	a2,a0,0x1
80004ee8:	00159693          	slli	a3,a1,0x1
80004eec:	00d67863          	bgeu	a2,a3,80004efc <__addsf3+0x24>
80004ef0:	0065f733          	and	a4,a1,t1
80004ef4:	00159613          	slli	a2,a1,0x1
80004ef8:	00151693          	slli	a3,a0,0x1
80004efc:	ff0007b7          	lui	a5,0xff000
80004f00:	16f67463          	bgeu	a2,a5,80005068 <infnan>
80004f04:	16f6f263          	bgeu	a3,a5,80005068 <infnan>
80004f08:	10d60863          	beq	a2,a3,80005018 <equal>
80004f0c:	00761513          	slli	a0,a2,0x7
80004f10:	00769593          	slli	a1,a3,0x7
80004f14:	01865613          	srli	a2,a2,0x18
80004f18:	0186d693          	srli	a3,a3,0x18
80004f1c:	40d602b3          	sub	t0,a2,a3
80004f20:	01a2b893          	sltiu	a7,t0,26
80004f24:	0e088463          	beqz	a7,8000500c <return_greater>
80004f28:	0c060c63          	beqz	a2,80005000 <both_denormal_zero>
80004f2c:	fff60613          	addi	a2,a2,-1
80004f30:	00656533          	or	a0,a0,t1
80004f34:	0a068663          	beqz	a3,80004fe0 <lower_denormal>
80004f38:	0065e5b3          	or	a1,a1,t1

80004f3c <sum>:
80004f3c:	0055d7b3          	srl	a5,a1,t0
80004f40:	00128293          	addi	t0,t0,1
80004f44:	405002b3          	neg	t0,t0
80004f48:	005595b3          	sll	a1,a1,t0
80004f4c:	0403c863          	bltz	t2,80004f9c <diff_sign>
80004f50:	00f50533          	add	a0,a0,a5

80004f54 <pos_or_zero>:
80004f54:	00f57c63          	bgeu	a0,a5,80004f6c <adjust>
80004f58:	00155513          	srli	a0,a0,0x1
80004f5c:	00656533          	or	a0,a0,t1
80004f60:	00160613          	addi	a2,a2,1
80004f64:	0fe00793          	li	a5,254
80004f68:	0ef65c63          	bge	a2,a5,80005060 <inf>

80004f6c <adjust>:
80004f6c:	0015d593          	srli	a1,a1,0x1
80004f70:	01851693          	slli	a3,a0,0x18
80004f74:	00b6e6b3          	or	a3,a3,a1

80004f78 <return_a0>:
80004f78:	00855513          	srli	a0,a0,0x8

80004f7c <rounding>:
80004f7c:	0066e863          	bltu	a3,t1,80004f8c <exp_sign_and_exit>
80004f80:	00150513          	addi	a0,a0,1
80004f84:	00669463          	bne	a3,t1,80004f8c <exp_sign_and_exit>
80004f88:	ffe57513          	andi	a0,a0,-2

80004f8c <exp_sign_and_exit>:
80004f8c:	01761613          	slli	a2,a2,0x17
80004f90:	00c50533          	add	a0,a0,a2

80004f94 <sign_and_exit>:
80004f94:	00e56533          	or	a0,a0,a4

80004f98 <exit>:
80004f98:	00008067          	ret

80004f9c <diff_sign>:
80004f9c:	00b036b3          	snez	a3,a1
80004fa0:	00d7e7b3          	or	a5,a5,a3
80004fa4:	40f50533          	sub	a0,a0,a5
80004fa8:	fc0542e3          	bltz	a0,80004f6c <adjust>

80004fac <num_canc>:
80004fac:	00151513          	slli	a0,a0,0x1
80004fb0:	00060793          	mv	a5,a2
80004fb4:	fff60613          	addi	a2,a2,-1
80004fb8:	00078863          	beqz	a5,80004fc8 <denormal_or_strong_cancellation>
80004fbc:	fa6578e3          	bgeu	a0,t1,80004f6c <adjust>

80004fc0 <clz_loop>:
80004fc0:	00151513          	slli	a0,a0,0x1
80004fc4:	fff60613          	addi	a2,a2,-1

80004fc8 <denormal_or_strong_cancellation>:
80004fc8:	fe656ce3          	bltu	a0,t1,80004fc0 <clz_loop>
80004fcc:	00855513          	srli	a0,a0,0x8
80004fd0:	fa065ee3          	bgez	a2,80004f8c <exp_sign_and_exit>

80004fd4 <denormal_cancellation>:
80004fd4:	40c00633          	neg	a2,a2
80004fd8:	00c55533          	srl	a0,a0,a2
80004fdc:	fb9ff06f          	j	80004f94 <sign_and_exit>

80004fe0 <lower_denormal>:
80004fe0:	fff34893          	not	a7,t1
80004fe4:	0115f5b3          	and	a1,a1,a7
80004fe8:	fff28293          	addi	t0,t0,-1
80004fec:	f51ff06f          	j	80004f3c <sum>

80004ff0 <both_denormal>:
80004ff0:	fff34893          	not	a7,t1
80004ff4:	0115f5b3          	and	a1,a1,a7
80004ff8:	01157533          	and	a0,a0,a7
80004ffc:	f41ff06f          	j	80004f3c <sum>

80005000 <both_denormal_zero>:
80005000:	fe0598e3          	bnez	a1,80004ff0 <both_denormal>
80005004:	00855513          	srli	a0,a0,0x8
80005008:	f85ff06f          	j	80004f8c <exp_sign_and_exit>

8000500c <return_greater>:
8000500c:	00151513          	slli	a0,a0,0x1
80005010:	00955513          	srli	a0,a0,0x9
80005014:	f79ff06f          	j	80004f8c <exp_sign_and_exit>

80005018 <equal>:
80005018:	0003d663          	bgez	t2,80005024 <equal_samesign>

8000501c <zero>:
8000501c:	00000513          	li	a0,0
80005020:	00008067          	ret

80005024 <equal_samesign>:
80005024:	00c7f7b3          	and	a5,a5,a2
80005028:	00079c63          	bnez	a5,80005040 <equal_nodenormal>
8000502c:	00060513          	mv	a0,a2
80005030:	f6b674e3          	bgeu	a2,a1,80004f98 <exit>
80005034:	800007b7          	lui	a5,0x80000
80005038:	00f56533          	or	a0,a0,a5
8000503c:	00008067          	ret

80005040 <equal_nodenormal>:
80005040:	01865613          	srli	a2,a2,0x18
80005044:	0fe63793          	sltiu	a5,a2,254
80005048:	00078863          	beqz	a5,80005058 <equal_nodenormal+0x18>
8000504c:	008007b7          	lui	a5,0x800
80005050:	00f50533          	add	a0,a0,a5
80005054:	00008067          	ret
80005058:	01f79793          	slli	a5,a5,0x1f
8000505c:	00a7f6b3          	and	a3,a5,a0

80005060 <inf>:
80005060:	7f800537          	lui	a0,0x7f800
80005064:	f31ff06f          	j	80004f94 <sign_and_exit>

80005068 <infnan>:
80005068:	00c7e663          	bltu	a5,a2,80005074 <produce_nan>
8000506c:	fed61ae3          	bne	a2,a3,80005060 <inf>

80005070 <inf_inf>:
80005070:	f2b504e3          	beq	a0,a1,80004f98 <exit>

80005074 <produce_nan>:
80005074:	7fc00537          	lui	a0,0x7fc00
80005078:	00008067          	ret

8000507c <__bswapsi2>:
8000507c:	01851293          	slli	t0,a0,0x18
80005080:	01855313          	srli	t1,a0,0x18
80005084:	00851393          	slli	t2,a0,0x8
80005088:	00ff0e37          	lui	t3,0xff0
8000508c:	01c3f3b3          	and	t2,t2,t3
80005090:	00855e13          	srli	t3,a0,0x8
80005094:	00010eb7          	lui	t4,0x10
80005098:	f00e8e93          	addi	t4,t4,-256 # ff00 <_start-0x7fff0100>
8000509c:	01de7e33          	and	t3,t3,t4
800050a0:	0062e2b3          	or	t0,t0,t1
800050a4:	0072e2b3          	or	t0,t0,t2
800050a8:	01c2e2b3          	or	t0,t0,t3
800050ac:	00028513          	mv	a0,t0
800050b0:	00008067          	ret

800050b4 <__divdf3>:
800050b4:	ffe007b7          	lui	a5,0xffe00
800050b8:	00159713          	slli	a4,a1,0x1
800050bc:	00169813          	slli	a6,a3,0x1
800050c0:	32f77463          	bgeu	a4,a5,800053e8 <inf_nan>
800050c4:	32f87263          	bgeu	a6,a5,800053e8 <inf_nan>
800050c8:	01575713          	srli	a4,a4,0x15
800050cc:	01585813          	srli	a6,a6,0x15
800050d0:	2e070663          	beqz	a4,800053bc <zero_denormal>
800050d4:	2e080463          	beqz	a6,800053bc <zero_denormal>

800050d8 <normal_case>:
800050d8:	41070733          	sub	a4,a4,a6
800050dc:	00d5c2b3          	xor	t0,a1,a3
800050e0:	00c69693          	slli	a3,a3,0xc
800050e4:	00c59593          	slli	a1,a1,0xc
800050e8:	100007b7          	lui	a5,0x10000
800050ec:	0046d693          	srli	a3,a3,0x4
800050f0:	00f6e6b3          	or	a3,a3,a5
800050f4:	01865313          	srli	t1,a2,0x18
800050f8:	0066e6b3          	or	a3,a3,t1
800050fc:	00861613          	slli	a2,a2,0x8
80005100:	0045d313          	srli	t1,a1,0x4
80005104:	0067e7b3          	or	a5,a5,t1
80005108:	01855313          	srli	t1,a0,0x18
8000510c:	0067e7b3          	or	a5,a5,t1
80005110:	00851813          	slli	a6,a0,0x8
80005114:	80000337          	lui	t1,0x80000
80005118:	0062f5b3          	and	a1,t0,t1
8000511c:	40d78333          	sub	t1,a5,a3
80005120:	00133313          	seqz	t1,t1
80005124:	00c833b3          	sltu	t2,a6,a2
80005128:	00737333          	and	t1,t1,t2
8000512c:	00d7b2b3          	sltu	t0,a5,a3
80005130:	00536333          	or	t1,t1,t0
80005134:	3fe70713          	addi	a4,a4,1022
80005138:	40670733          	sub	a4,a4,t1
8000513c:	00030a63          	beqz	t1,80005150 <normal_case+0x78>
80005140:	00165613          	srli	a2,a2,0x1
80005144:	01f69313          	slli	t1,a3,0x1f
80005148:	00666633          	or	a2,a2,t1
8000514c:	0016d693          	srli	a3,a3,0x1
80005150:	00c833b3          	sltu	t2,a6,a2
80005154:	40c80833          	sub	a6,a6,a2
80005158:	40d787b3          	sub	a5,a5,a3
8000515c:	407787b3          	sub	a5,a5,t2
80005160:	00165613          	srli	a2,a2,0x1
80005164:	01f69313          	slli	t1,a3,0x1f
80005168:	00666633          	or	a2,a2,t1
8000516c:	0016d693          	srli	a3,a3,0x1
80005170:	00100537          	lui	a0,0x100
80005174:	000803b7          	lui	t2,0x80

80005178 <div_loop_start>:
80005178:	00c83333          	sltu	t1,a6,a2
8000517c:	40d782b3          	sub	t0,a5,a3
80005180:	406282b3          	sub	t0,t0,t1
80005184:	0002c863          	bltz	t0,80005194 <div_loop_start+0x1c>
80005188:	40c80833          	sub	a6,a6,a2
8000518c:	00028793          	mv	a5,t0
80005190:	00756533          	or	a0,a0,t2
80005194:	00165613          	srli	a2,a2,0x1
80005198:	01f69293          	slli	t0,a3,0x1f
8000519c:	00566633          	or	a2,a2,t0
800051a0:	0016d693          	srli	a3,a3,0x1
800051a4:	00c83333          	sltu	t1,a6,a2
800051a8:	40d782b3          	sub	t0,a5,a3
800051ac:	406282b3          	sub	t0,t0,t1
800051b0:	0002ca63          	bltz	t0,800051c4 <div_loop_start+0x4c>
800051b4:	40c80833          	sub	a6,a6,a2
800051b8:	00028793          	mv	a5,t0
800051bc:	0013d293          	srli	t0,t2,0x1
800051c0:	00556533          	or	a0,a0,t0
800051c4:	00165613          	srli	a2,a2,0x1
800051c8:	01f69293          	slli	t0,a3,0x1f
800051cc:	00566633          	or	a2,a2,t0
800051d0:	0016d693          	srli	a3,a3,0x1
800051d4:	00c83333          	sltu	t1,a6,a2
800051d8:	40d782b3          	sub	t0,a5,a3
800051dc:	406282b3          	sub	t0,t0,t1
800051e0:	0002ca63          	bltz	t0,800051f4 <div_loop_start+0x7c>
800051e4:	40c80833          	sub	a6,a6,a2
800051e8:	00028793          	mv	a5,t0
800051ec:	0023d293          	srli	t0,t2,0x2
800051f0:	00556533          	or	a0,a0,t0
800051f4:	00165613          	srli	a2,a2,0x1
800051f8:	01f69293          	slli	t0,a3,0x1f
800051fc:	00566633          	or	a2,a2,t0
80005200:	0016d693          	srli	a3,a3,0x1
80005204:	00c83333          	sltu	t1,a6,a2
80005208:	40d782b3          	sub	t0,a5,a3
8000520c:	406282b3          	sub	t0,t0,t1
80005210:	0002ca63          	bltz	t0,80005224 <div_loop_start+0xac>
80005214:	40c80833          	sub	a6,a6,a2
80005218:	00028793          	mv	a5,t0
8000521c:	0033d293          	srli	t0,t2,0x3
80005220:	00556533          	or	a0,a0,t0
80005224:	0107e2b3          	or	t0,a5,a6
80005228:	04028463          	beqz	t0,80005270 <div_loop_exit>
8000522c:	00479793          	slli	a5,a5,0x4
80005230:	01c85293          	srli	t0,a6,0x1c
80005234:	0057e7b3          	or	a5,a5,t0
80005238:	00481813          	slli	a6,a6,0x4
8000523c:	00369693          	slli	a3,a3,0x3
80005240:	01d65293          	srli	t0,a2,0x1d
80005244:	0056e6b3          	or	a3,a3,t0
80005248:	00361613          	slli	a2,a2,0x3
8000524c:	0043d393          	srli	t2,t2,0x4
80005250:	f20394e3          	bnez	t2,80005178 <div_loop_start>
80005254:	001002b7          	lui	t0,0x100
80005258:	00b2f2b3          	and	t0,t0,a1
8000525c:	02029463          	bnez	t0,80005284 <checks>
80005260:	00a5e5b3          	or	a1,a1,a0
80005264:	00000513          	li	a0,0
80005268:	800003b7          	lui	t2,0x80000
8000526c:	f0dff06f          	j	80005178 <div_loop_start>

80005270 <div_loop_exit>:
80005270:	001002b7          	lui	t0,0x100
80005274:	00b2f2b3          	and	t0,t0,a1
80005278:	00029663          	bnez	t0,80005284 <checks>
8000527c:	00a5e5b3          	or	a1,a1,a0
80005280:	00000513          	li	a0,0

80005284 <checks>:
80005284:	f0370393          	addi	t2,a4,-253
80005288:	00e3f663          	bgeu	t2,a4,80005294 <exp_round>
8000528c:	70000293          	li	t0,1792
80005290:	0272ea63          	bltu	t0,t2,800052c4 <und_ov_flow>

80005294 <exp_round>:
80005294:	01471713          	slli	a4,a4,0x14
80005298:	00e585b3          	add	a1,a1,a4
8000529c:	02d7e263          	bltu	a5,a3,800052c0 <exit>
800052a0:	00f6ea63          	bltu	a3,a5,800052b4 <round_up>
800052a4:	00c86e63          	bltu	a6,a2,800052c0 <exit>
800052a8:	01066663          	bltu	a2,a6,800052b4 <round_up>
800052ac:	01f51293          	slli	t0,a0,0x1f
800052b0:	00028863          	beqz	t0,800052c0 <exit>

800052b4 <round_up>:
800052b4:	00150513          	addi	a0,a0,1 # 100001 <_start-0x7fefffff>
800052b8:	00153293          	seqz	t0,a0
800052bc:	005585b3          	add	a1,a1,t0

800052c0 <exit>:
800052c0:	00008067          	ret

800052c4 <und_ov_flow>:
800052c4:	1472c463          	blt	t0,t2,8000540c <ovf>
800052c8:	fcb00313          	li	t1,-53
800052cc:	10674663          	blt	a4,t1,800053d8 <signed_zero>

800052d0 <denormal_end>:
800052d0:	00f86833          	or	a6,a6,a5
800052d4:	01003833          	snez	a6,a6
800052d8:	80000f37          	lui	t5,0x80000
800052dc:	00000e93          	li	t4,0
800052e0:	00bf7f33          	and	t5,t5,a1
800052e4:	01e5c5b3          	xor	a1,a1,t5
800052e8:	40e00733          	neg	a4,a4
800052ec:	02000793          	li	a5,32
800052f0:	04f75663          	bge	a4,a5,8000533c <den_rounding+0x28>
800052f4:	40e787b3          	sub	a5,a5,a4
800052f8:	01d03633          	snez	a2,t4
800052fc:	00f51eb3          	sll	t4,a0,a5
80005300:	00ceeeb3          	or	t4,t4,a2
80005304:	00e55533          	srl	a0,a0,a4
80005308:	00f59633          	sll	a2,a1,a5
8000530c:	00c56533          	or	a0,a0,a2
80005310:	00e5d5b3          	srl	a1,a1,a4

80005314 <den_rounding>:
80005314:	01e5e5b3          	or	a1,a1,t5
80005318:	fa0ed4e3          	bgez	t4,800052c0 <exit>
8000531c:	00150513          	addi	a0,a0,1
80005320:	00153293          	seqz	t0,a0
80005324:	005585b3          	add	a1,a1,t0
80005328:	001e9e93          	slli	t4,t4,0x1
8000532c:	010eeeb3          	or	t4,t4,a6
80005330:	f80e98e3          	bnez	t4,800052c0 <exit>
80005334:	ffe57513          	andi	a0,a0,-2
80005338:	00008067          	ret
8000533c:	fe070713          	addi	a4,a4,-32
80005340:	00050e93          	mv	t4,a0
80005344:	00058513          	mv	a0,a1
80005348:	00000593          	li	a1,0
8000534c:	fc0704e3          	beqz	a4,80005314 <den_rounding>
80005350:	40e787b3          	sub	a5,a5,a4
80005354:	fa5ff06f          	j	800052f8 <denormal_end+0x28>

80005358 <denormal>:
80005358:	800007b7          	lui	a5,0x80000
8000535c:	00b7de13          	srli	t3,a5,0xb
80005360:	00f5f333          	and	t1,a1,a5
80005364:	02071263          	bnez	a4,80005388 <denormal+0x30>
80005368:	00159593          	slli	a1,a1,0x1
8000536c:	01f55f13          	srli	t5,a0,0x1f
80005370:	01e5e5b3          	or	a1,a1,t5
80005374:	00151513          	slli	a0,a0,0x1
80005378:	01c5f3b3          	and	t2,a1,t3
8000537c:	00039663          	bnez	t2,80005388 <denormal+0x30>
80005380:	fff70713          	addi	a4,a4,-1
80005384:	fe5ff06f          	j	80005368 <denormal+0x10>
80005388:	0065e5b3          	or	a1,a1,t1
8000538c:	00d7f7b3          	and	a5,a5,a3
80005390:	02081263          	bnez	a6,800053b4 <denormal+0x5c>
80005394:	00169693          	slli	a3,a3,0x1
80005398:	01f65f13          	srli	t5,a2,0x1f
8000539c:	01e6e6b3          	or	a3,a3,t5
800053a0:	00161613          	slli	a2,a2,0x1
800053a4:	01c6f3b3          	and	t2,a3,t3
800053a8:	00039663          	bnez	t2,800053b4 <denormal+0x5c>
800053ac:	fff80813          	addi	a6,a6,-1
800053b0:	fe5ff06f          	j	80005394 <denormal+0x3c>
800053b4:	00f6e6b3          	or	a3,a3,a5
800053b8:	d21ff06f          	j	800050d8 <normal_case>

800053bc <zero_denormal>:
800053bc:	00169793          	slli	a5,a3,0x1
800053c0:	00c7e7b3          	or	a5,a5,a2
800053c4:	00159393          	slli	t2,a1,0x1
800053c8:	00a3e3b3          	or	t2,t2,a0
800053cc:	04078c63          	beqz	a5,80005424 <div_by_zero>
800053d0:	f80394e3          	bnez	t2,80005358 <denormal>

800053d4 <zero>:
800053d4:	00d5c5b3          	xor	a1,a1,a3

800053d8 <signed_zero>:
800053d8:	01f5d593          	srli	a1,a1,0x1f
800053dc:	01f59593          	slli	a1,a1,0x1f
800053e0:	00000513          	li	a0,0
800053e4:	00008067          	ret

800053e8 <inf_nan>:
800053e8:	00a032b3          	snez	t0,a0
800053ec:	00e2e2b3          	or	t0,t0,a4
800053f0:	0257ec63          	bltu	a5,t0,80005428 <nan>
800053f4:	00c032b3          	snez	t0,a2
800053f8:	0102e2b3          	or	t0,t0,a6
800053fc:	0257e663          	bltu	a5,t0,80005428 <nan>
80005400:	03070463          	beq	a4,a6,80005428 <nan>
80005404:	fcf808e3          	beq	a6,a5,800053d4 <zero>

80005408 <inf>:
80005408:	00d5c5b3          	xor	a1,a1,a3

8000540c <ovf>:
8000540c:	7ff006b7          	lui	a3,0x7ff00
80005410:	01f5d593          	srli	a1,a1,0x1f
80005414:	01f59593          	slli	a1,a1,0x1f
80005418:	00d5e5b3          	or	a1,a1,a3
8000541c:	00000513          	li	a0,0
80005420:	00008067          	ret

80005424 <div_by_zero>:
80005424:	fe0392e3          	bnez	t2,80005408 <inf>

80005428 <nan>:
80005428:	7ff805b7          	lui	a1,0x7ff80
8000542c:	00000513          	li	a0,0
80005430:	00008067          	ret

80005434 <__divsf3>:
80005434:	800002b7          	lui	t0,0x80000
80005438:	ff0007b7          	lui	a5,0xff000
8000543c:	00151613          	slli	a2,a0,0x1
80005440:	00159693          	slli	a3,a1,0x1
80005444:	14f67463          	bgeu	a2,a5,8000558c <inf_nan>
80005448:	14f6f263          	bgeu	a3,a5,8000558c <inf_nan>
8000544c:	01865613          	srli	a2,a2,0x18
80005450:	0186d693          	srli	a3,a3,0x18
80005454:	10060e63          	beqz	a2,80005570 <zero_denormal>
80005458:	10068c63          	beqz	a3,80005570 <zero_denormal>

8000545c <normal_case>:
8000545c:	40d60633          	sub	a2,a2,a3
80005460:	00b543b3          	xor	t2,a0,a1
80005464:	00951513          	slli	a0,a0,0x9
80005468:	00959593          	slli	a1,a1,0x9
8000546c:	100006b7          	lui	a3,0x10000
80005470:	00455513          	srli	a0,a0,0x4
80005474:	0045d593          	srli	a1,a1,0x4
80005478:	00d5e5b3          	or	a1,a1,a3
8000547c:	00a6e6b3          	or	a3,a3,a0
80005480:	0053f533          	and	a0,t2,t0
80005484:	00b6a7b3          	slt	a5,a3,a1
80005488:	00f696b3          	sll	a3,a3,a5
8000548c:	07e60613          	addi	a2,a2,126
80005490:	40f60633          	sub	a2,a2,a5
80005494:	008007b7          	lui	a5,0x800

80005498 <div_loop_start>:
80005498:	00b6c663          	blt	a3,a1,800054a4 <div_loop_start+0xc>
8000549c:	40b686b3          	sub	a3,a3,a1
800054a0:	00f56533          	or	a0,a0,a5
800054a4:	00169693          	slli	a3,a3,0x1
800054a8:	00068663          	beqz	a3,800054b4 <div_loop_exit>
800054ac:	0017d793          	srli	a5,a5,0x1
800054b0:	fe0794e3          	bnez	a5,80005498 <div_loop_start>

800054b4 <div_loop_exit>:
800054b4:	0fe00393          	li	t2,254
800054b8:	02767063          	bgeu	a2,t2,800054d8 <und_ov_flow>
800054bc:	01761613          	slli	a2,a2,0x17
800054c0:	00c50533          	add	a0,a0,a2
800054c4:	00b6e863          	bltu	a3,a1,800054d4 <exit>
800054c8:	00150513          	addi	a0,a0,1
800054cc:	00b69463          	bne	a3,a1,800054d4 <exit>
800054d0:	ffe57513          	andi	a0,a0,-2

800054d4 <exit>:
800054d4:	00008067          	ret

800054d8 <und_ov_flow>:
800054d8:	0cc04463          	bgtz	a2,800055a0 <ovf>
800054dc:	01a60393          	addi	t2,a2,26
800054e0:	0003d663          	bgez	t2,800054ec <denormal_end>
800054e4:	00557533          	and	a0,a0,t0
800054e8:	00008067          	ret

800054ec <denormal_end>:
800054ec:	40c007b3          	neg	a5,a2
800054f0:	00a2f3b3          	and	t2,t0,a0
800054f4:	00754533          	xor	a0,a0,t2
800054f8:	02060613          	addi	a2,a2,32
800054fc:	00c51633          	sll	a2,a0,a2
80005500:	00f55533          	srl	a0,a0,a5
80005504:	00756533          	or	a0,a0,t2
80005508:	0016d693          	srli	a3,a3,0x1
8000550c:	00d66633          	or	a2,a2,a3
80005510:	fc5662e3          	bltu	a2,t0,800054d4 <exit>
80005514:	00150513          	addi	a0,a0,1
80005518:	fa561ee3          	bne	a2,t0,800054d4 <exit>
8000551c:	ffe57513          	andi	a0,a0,-2
80005520:	00008067          	ret

80005524 <denormal>:
80005524:	008003b7          	lui	t2,0x800
80005528:	00a2f733          	and	a4,t0,a0
8000552c:	00061c63          	bnez	a2,80005544 <denormal+0x20>
80005530:	00151513          	slli	a0,a0,0x1
80005534:	007577b3          	and	a5,a0,t2
80005538:	00079663          	bnez	a5,80005544 <denormal+0x20>
8000553c:	fff60613          	addi	a2,a2,-1
80005540:	ff1ff06f          	j	80005530 <denormal+0xc>
80005544:	00e56533          	or	a0,a0,a4
80005548:	80000737          	lui	a4,0x80000
8000554c:	00b77733          	and	a4,a4,a1
80005550:	00069c63          	bnez	a3,80005568 <denormal+0x44>
80005554:	00159593          	slli	a1,a1,0x1
80005558:	0075f7b3          	and	a5,a1,t2
8000555c:	00079663          	bnez	a5,80005568 <denormal+0x44>
80005560:	fff68693          	addi	a3,a3,-1 # fffffff <_start-0x70000001>
80005564:	ff1ff06f          	j	80005554 <denormal+0x30>
80005568:	00e5e5b3          	or	a1,a1,a4
8000556c:	ef1ff06f          	j	8000545c <normal_case>

80005570 <zero_denormal>:
80005570:	00159793          	slli	a5,a1,0x1
80005574:	00151393          	slli	t2,a0,0x1
80005578:	02078c63          	beqz	a5,800055b0 <div_by_zero>
8000557c:	fa0394e3          	bnez	t2,80005524 <denormal>

80005580 <zero>:
80005580:	00b54533          	xor	a0,a0,a1
80005584:	00557533          	and	a0,a0,t0
80005588:	00008067          	ret

8000558c <inf_nan>:
8000558c:	02c7e463          	bltu	a5,a2,800055b4 <nan>
80005590:	02d7e263          	bltu	a5,a3,800055b4 <nan>
80005594:	02d60063          	beq	a2,a3,800055b4 <nan>
80005598:	fef684e3          	beq	a3,a5,80005580 <zero>

8000559c <inf>:
8000559c:	00b54533          	xor	a0,a0,a1

800055a0 <ovf>:
800055a0:	00557533          	and	a0,a0,t0
800055a4:	7f8002b7          	lui	t0,0x7f800
800055a8:	00556533          	or	a0,a0,t0
800055ac:	00008067          	ret

800055b0 <div_by_zero>:
800055b0:	fe0396e3          	bnez	t2,8000559c <inf>

800055b4 <nan>:
800055b4:	7fc00537          	lui	a0,0x7fc00
800055b8:	00008067          	ret

800055bc <__eqdf2>:
800055bc:	00a03733          	snez	a4,a0
800055c0:	00159793          	slli	a5,a1,0x1
800055c4:	00e7e7b3          	or	a5,a5,a4
800055c8:	ffe00737          	lui	a4,0xffe00
800055cc:	02f76a63          	bltu	a4,a5,80005600 <nan>
800055d0:	00c037b3          	snez	a5,a2
800055d4:	00169293          	slli	t0,a3,0x1
800055d8:	00f2e2b3          	or	t0,t0,a5
800055dc:	02576263          	bltu	a4,t0,80005600 <nan>
800055e0:	00d5e733          	or	a4,a1,a3
800055e4:	00171713          	slli	a4,a4,0x1
800055e8:	00a76733          	or	a4,a4,a0
800055ec:	00c76733          	or	a4,a4,a2
800055f0:	00070863          	beqz	a4,80005600 <nan>
800055f4:	00c54533          	xor	a0,a0,a2
800055f8:	00d5c5b3          	xor	a1,a1,a3
800055fc:	00a5e733          	or	a4,a1,a0

80005600 <nan>:
80005600:	00e03533          	snez	a0,a4
80005604:	00008067          	ret

80005608 <__eqsf2>:
80005608:	ff0007b7          	lui	a5,0xff000
8000560c:	00151613          	slli	a2,a0,0x1
80005610:	00c7ec63          	bltu	a5,a2,80005628 <end>
80005614:	00159693          	slli	a3,a1,0x1
80005618:	00d7e863          	bltu	a5,a3,80005628 <end>
8000561c:	00d667b3          	or	a5,a2,a3
80005620:	00078463          	beqz	a5,80005628 <end>
80005624:	00b547b3          	xor	a5,a0,a1

80005628 <end>:
80005628:	00f03533          	snez	a0,a5
8000562c:	00008067          	ret

80005630 <__extendsfdf2>:
80005630:	800005b7          	lui	a1,0x80000
80005634:	00a5f5b3          	and	a1,a1,a0
80005638:	00151693          	slli	a3,a0,0x1
8000563c:	4186d713          	srai	a4,a3,0x18
80005640:	02070e63          	beqz	a4,8000567c <zero_den>
80005644:	4036d793          	srai	a5,a3,0x3
80005648:	0017d793          	srli	a5,a5,0x1
8000564c:	01c69513          	slli	a0,a3,0x1c
80005650:	00f5e5b3          	or	a1,a1,a5
80005654:	00170713          	addi	a4,a4,1 # ffe00001 <nnames+0x7fda0fad>
80005658:	00070863          	beqz	a4,80005668 <inf_nan>
8000565c:	380007b7          	lui	a5,0x38000
80005660:	00f5c5b3          	xor	a1,a1,a5

80005664 <exit>:
80005664:	00008067          	ret

80005668 <inf_nan>:
80005668:	00869693          	slli	a3,a3,0x8
8000566c:	fe068ce3          	beqz	a3,80005664 <exit>
80005670:	00080737          	lui	a4,0x80
80005674:	00e5e5b3          	or	a1,a1,a4
80005678:	00008067          	ret

8000567c <zero_den>:
8000567c:	00069663          	bnez	a3,80005688 <denormal>
80005680:	00000513          	li	a0,0
80005684:	00008067          	ret

80005688 <denormal>:
80005688:	010007b7          	lui	a5,0x1000
8000568c:	38000713          	li	a4,896

80005690 <clz_loop>:
80005690:	00169693          	slli	a3,a3,0x1
80005694:	fff70713          	addi	a4,a4,-1 # 7ffff <_start-0x7ff80001>
80005698:	fef6ece3          	bltu	a3,a5,80005690 <clz_loop>
8000569c:	01c69513          	slli	a0,a3,0x1c
800056a0:	0046d693          	srli	a3,a3,0x4
800056a4:	01471713          	slli	a4,a4,0x14
800056a8:	00e686b3          	add	a3,a3,a4
800056ac:	00d5e5b3          	or	a1,a1,a3
800056b0:	00008067          	ret

800056b4 <__fixdfdi>:
800056b4:	80000737          	lui	a4,0x80000
800056b8:	41f5d793          	srai	a5,a1,0x1f
800056bc:	00159593          	slli	a1,a1,0x1
800056c0:	0155d613          	srli	a2,a1,0x15
800056c4:	c0160613          	addi	a2,a2,-1023
800056c8:	08064663          	bltz	a2,80005754 <undflow>
800056cc:	00a59593          	slli	a1,a1,0xa
800056d0:	01555693          	srli	a3,a0,0x15
800056d4:	00d5e5b3          	or	a1,a1,a3
800056d8:	00b51513          	slli	a0,a0,0xb
800056dc:	00e5e5b3          	or	a1,a1,a4
800056e0:	40c00633          	neg	a2,a2
800056e4:	01f60613          	addi	a2,a2,31
800056e8:	02064263          	bltz	a2,8000570c <ge_32>
800056ec:	00c5d533          	srl	a0,a1,a2
800056f0:	00000593          	li	a1,0
800056f4:	00078a63          	beqz	a5,80005708 <__fixdfdi+0x54>
800056f8:	40a00533          	neg	a0,a0
800056fc:	fff5c593          	not	a1,a1
80005700:	00153713          	seqz	a4,a0
80005704:	00e585b3          	add	a1,a1,a4
80005708:	00008067          	ret

8000570c <ge_32>:
8000570c:	02060613          	addi	a2,a2,32
80005710:	02c05863          	blez	a2,80005740 <ovflow>
80005714:	40c00733          	neg	a4,a2
80005718:	00e596b3          	sll	a3,a1,a4
8000571c:	00c55533          	srl	a0,a0,a2
80005720:	00d56533          	or	a0,a0,a3
80005724:	00c5d5b3          	srl	a1,a1,a2
80005728:	00078a63          	beqz	a5,8000573c <ge_32+0x30>
8000572c:	40a00533          	neg	a0,a0
80005730:	fff5c593          	not	a1,a1
80005734:	00153713          	seqz	a4,a0
80005738:	00e585b3          	add	a1,a1,a4
8000573c:	00008067          	ret

80005740 <ovflow>:
80005740:	fff00513          	li	a0,-1
80005744:	fff74593          	not	a1,a4
80005748:	00f54533          	xor	a0,a0,a5
8000574c:	00f5c5b3          	xor	a1,a1,a5
80005750:	00008067          	ret

80005754 <undflow>:
80005754:	00000513          	li	a0,0
80005758:	00000593          	li	a1,0
8000575c:	00008067          	ret

80005760 <__fixdfsi>:
80005760:	80000737          	lui	a4,0x80000
80005764:	41f5d793          	srai	a5,a1,0x1f
80005768:	00159593          	slli	a1,a1,0x1
8000576c:	0155d613          	srli	a2,a1,0x15
80005770:	c0160613          	addi	a2,a2,-1023
80005774:	02064e63          	bltz	a2,800057b0 <undflow>
80005778:	40c00633          	neg	a2,a2
8000577c:	01f60613          	addi	a2,a2,31
80005780:	02c05263          	blez	a2,800057a4 <ovflow>
80005784:	00a59593          	slli	a1,a1,0xa
80005788:	01555513          	srli	a0,a0,0x15
8000578c:	00a5e5b3          	or	a1,a1,a0
80005790:	00e5e5b3          	or	a1,a1,a4
80005794:	00c5d533          	srl	a0,a1,a2
80005798:	00f54533          	xor	a0,a0,a5
8000579c:	40f50533          	sub	a0,a0,a5
800057a0:	00008067          	ret

800057a4 <ovflow>:
800057a4:	fff70513          	addi	a0,a4,-1 # 7fffffff <_start-0x1>
800057a8:	00f54533          	xor	a0,a0,a5
800057ac:	00008067          	ret

800057b0 <undflow>:
800057b0:	00000513          	li	a0,0
800057b4:	00008067          	ret

800057b8 <__fixsfdi>:
800057b8:	80000737          	lui	a4,0x80000
800057bc:	41f55793          	srai	a5,a0,0x1f
800057c0:	00151513          	slli	a0,a0,0x1
800057c4:	01855613          	srli	a2,a0,0x18
800057c8:	f8160613          	addi	a2,a2,-127
800057cc:	08064063          	bltz	a2,8000584c <undflow>
800057d0:	00751513          	slli	a0,a0,0x7
800057d4:	00e56533          	or	a0,a0,a4
800057d8:	40c00633          	neg	a2,a2
800057dc:	01f60613          	addi	a2,a2,31
800057e0:	02064263          	bltz	a2,80005804 <ge_32>
800057e4:	00000593          	li	a1,0
800057e8:	00c55533          	srl	a0,a0,a2
800057ec:	00078a63          	beqz	a5,80005800 <__fixsfdi+0x48>
800057f0:	40a00533          	neg	a0,a0
800057f4:	fff5c593          	not	a1,a1
800057f8:	00153713          	seqz	a4,a0
800057fc:	00e585b3          	add	a1,a1,a4
80005800:	00008067          	ret

80005804 <ge_32>:
80005804:	02060613          	addi	a2,a2,32
80005808:	02c05863          	blez	a2,80005838 <ovflow>
8000580c:	00050593          	mv	a1,a0
80005810:	00000513          	li	a0,0
80005814:	40c00733          	neg	a4,a2
80005818:	00e59533          	sll	a0,a1,a4
8000581c:	00c5d5b3          	srl	a1,a1,a2
80005820:	00078a63          	beqz	a5,80005834 <ge_32+0x30>
80005824:	40a00533          	neg	a0,a0
80005828:	fff5c593          	not	a1,a1
8000582c:	00153713          	seqz	a4,a0
80005830:	00e585b3          	add	a1,a1,a4
80005834:	00008067          	ret

80005838 <ovflow>:
80005838:	fff00513          	li	a0,-1
8000583c:	fff74593          	not	a1,a4
80005840:	00f54533          	xor	a0,a0,a5
80005844:	00f5c5b3          	xor	a1,a1,a5
80005848:	00008067          	ret

8000584c <undflow>:
8000584c:	00000513          	li	a0,0
80005850:	00000593          	li	a1,0
80005854:	00008067          	ret

80005858 <__fixsfsi>:
80005858:	80000737          	lui	a4,0x80000
8000585c:	41f55793          	srai	a5,a0,0x1f
80005860:	00151513          	slli	a0,a0,0x1
80005864:	01855593          	srli	a1,a0,0x18
80005868:	f8158593          	addi	a1,a1,-127 # 7fffff81 <_start-0x7f>
8000586c:	0205ca63          	bltz	a1,800058a0 <undflow>
80005870:	40b005b3          	neg	a1,a1
80005874:	01f58593          	addi	a1,a1,31
80005878:	00b05e63          	blez	a1,80005894 <ovflow>
8000587c:	00751513          	slli	a0,a0,0x7
80005880:	00e56533          	or	a0,a0,a4
80005884:	00b55533          	srl	a0,a0,a1
80005888:	00f54533          	xor	a0,a0,a5
8000588c:	40f50533          	sub	a0,a0,a5
80005890:	00008067          	ret

80005894 <ovflow>:
80005894:	fff70513          	addi	a0,a4,-1 # 7fffffff <_start-0x1>
80005898:	00f54533          	xor	a0,a0,a5
8000589c:	00008067          	ret

800058a0 <undflow>:
800058a0:	00000513          	li	a0,0
800058a4:	00008067          	ret

800058a8 <__fixunsdfdi>:
800058a8:	0605ca63          	bltz	a1,8000591c <undflow>
800058ac:	80000737          	lui	a4,0x80000
800058b0:	00159593          	slli	a1,a1,0x1
800058b4:	0155d613          	srli	a2,a1,0x15
800058b8:	c0160613          	addi	a2,a2,-1023
800058bc:	06064063          	bltz	a2,8000591c <undflow>
800058c0:	00a59593          	slli	a1,a1,0xa
800058c4:	01555693          	srli	a3,a0,0x15
800058c8:	00d5e5b3          	or	a1,a1,a3
800058cc:	00b51513          	slli	a0,a0,0xb
800058d0:	00e5e5b3          	or	a1,a1,a4
800058d4:	40c00633          	neg	a2,a2
800058d8:	01f60613          	addi	a2,a2,31
800058dc:	00064863          	bltz	a2,800058ec <ge_32>
800058e0:	00c5d533          	srl	a0,a1,a2
800058e4:	00000593          	li	a1,0
800058e8:	00008067          	ret

800058ec <ge_32>:
800058ec:	02060613          	addi	a2,a2,32
800058f0:	02064063          	bltz	a2,80005910 <ovflow>
800058f4:	00060c63          	beqz	a2,8000590c <eq_63_end>
800058f8:	40c00733          	neg	a4,a2
800058fc:	00e596b3          	sll	a3,a1,a4
80005900:	00c55533          	srl	a0,a0,a2
80005904:	00d56533          	or	a0,a0,a3
80005908:	00c5d5b3          	srl	a1,a1,a2

8000590c <eq_63_end>:
8000590c:	00008067          	ret

80005910 <ovflow>:
80005910:	fff00513          	li	a0,-1
80005914:	00050593          	mv	a1,a0
80005918:	00008067          	ret

8000591c <undflow>:
8000591c:	00000513          	li	a0,0
80005920:	00000593          	li	a1,0
80005924:	00008067          	ret

80005928 <__fixunsdfsi>:
80005928:	04b05263          	blez	a1,8000596c <undflow>
8000592c:	00159593          	slli	a1,a1,0x1
80005930:	0155d613          	srli	a2,a1,0x15
80005934:	c0160613          	addi	a2,a2,-1023
80005938:	02064a63          	bltz	a2,8000596c <undflow>
8000593c:	40c00633          	neg	a2,a2
80005940:	01f60613          	addi	a2,a2,31
80005944:	02064063          	bltz	a2,80005964 <ovflow>
80005948:	00a59593          	slli	a1,a1,0xa
8000594c:	01555513          	srli	a0,a0,0x15
80005950:	00a5e5b3          	or	a1,a1,a0
80005954:	80000737          	lui	a4,0x80000
80005958:	00e5e5b3          	or	a1,a1,a4
8000595c:	00c5d533          	srl	a0,a1,a2
80005960:	00008067          	ret

80005964 <ovflow>:
80005964:	fff00513          	li	a0,-1
80005968:	00008067          	ret

8000596c <undflow>:
8000596c:	00000513          	li	a0,0
80005970:	00008067          	ret

80005974 <__fixunssfdi>:
80005974:	06a05063          	blez	a0,800059d4 <undflow>
80005978:	80000737          	lui	a4,0x80000
8000597c:	00151513          	slli	a0,a0,0x1
80005980:	01855613          	srli	a2,a0,0x18
80005984:	f8160613          	addi	a2,a2,-127
80005988:	04064663          	bltz	a2,800059d4 <undflow>
8000598c:	00751513          	slli	a0,a0,0x7
80005990:	00e56533          	or	a0,a0,a4
80005994:	40c00633          	neg	a2,a2
80005998:	01f60613          	addi	a2,a2,31
8000599c:	00064863          	bltz	a2,800059ac <ge_32>
800059a0:	00000593          	li	a1,0
800059a4:	00c55533          	srl	a0,a0,a2
800059a8:	00008067          	ret

800059ac <ge_32>:
800059ac:	02060613          	addi	a2,a2,32
800059b0:	00064c63          	bltz	a2,800059c8 <ovflow>
800059b4:	00c555b3          	srl	a1,a0,a2
800059b8:	02060063          	beqz	a2,800059d8 <eq_63_end>
800059bc:	40c00733          	neg	a4,a2
800059c0:	00e51533          	sll	a0,a0,a4
800059c4:	00008067          	ret

800059c8 <ovflow>:
800059c8:	fff00513          	li	a0,-1
800059cc:	fff00593          	li	a1,-1
800059d0:	00008067          	ret

800059d4 <undflow>:
800059d4:	00000593          	li	a1,0

800059d8 <eq_63_end>:
800059d8:	00000513          	li	a0,0
800059dc:	00008067          	ret

800059e0 <__fixunssfsi>:
800059e0:	02a05e63          	blez	a0,80005a1c <undflow>
800059e4:	00151513          	slli	a0,a0,0x1
800059e8:	01855593          	srli	a1,a0,0x18
800059ec:	f8158593          	addi	a1,a1,-127
800059f0:	0205c663          	bltz	a1,80005a1c <undflow>
800059f4:	40b005b3          	neg	a1,a1
800059f8:	01f58593          	addi	a1,a1,31
800059fc:	0005cc63          	bltz	a1,80005a14 <ovflow>
80005a00:	00751513          	slli	a0,a0,0x7
80005a04:	80000737          	lui	a4,0x80000
80005a08:	00e56533          	or	a0,a0,a4
80005a0c:	00b55533          	srl	a0,a0,a1
80005a10:	00008067          	ret

80005a14 <ovflow>:
80005a14:	fff00513          	li	a0,-1
80005a18:	00008067          	ret

80005a1c <undflow>:
80005a1c:	00000513          	li	a0,0
80005a20:	00008067          	ret

80005a24 <__floatdidf>:
80005a24:	01f5d793          	srli	a5,a1,0x1f
80005a28:	0005da63          	bgez	a1,80005a3c <__floatdidf+0x18>
80005a2c:	40a00533          	neg	a0,a0
80005a30:	fff5c593          	not	a1,a1
80005a34:	00153613          	seqz	a2,a0
80005a38:	00c585b3          	add	a1,a1,a2
80005a3c:	01f79793          	slli	a5,a5,0x1f
80005a40:	43d00613          	li	a2,1085
80005a44:	00059a63          	bnez	a1,80005a58 <__floatdidf+0x34>
80005a48:	06050a63          	beqz	a0,80005abc <exit>
80005a4c:	00050593          	mv	a1,a0
80005a50:	00000513          	li	a0,0
80005a54:	fe060613          	addi	a2,a2,-32
80005a58:	0005c863          	bltz	a1,80005a68 <__floatdidf+0x44>
80005a5c:	fff60613          	addi	a2,a2,-1
80005a60:	00159593          	slli	a1,a1,0x1
80005a64:	feb04ce3          	bgtz	a1,80005a5c <__floatdidf+0x38>
80005a68:	be360713          	addi	a4,a2,-1053
80005a6c:	00e556b3          	srl	a3,a0,a4
80005a70:	00d5e5b3          	or	a1,a1,a3
80005a74:	40e00733          	neg	a4,a4
80005a78:	00e51533          	sll	a0,a0,a4
80005a7c:	01551713          	slli	a4,a0,0x15
80005a80:	00b55513          	srli	a0,a0,0xb
80005a84:	01559693          	slli	a3,a1,0x15
80005a88:	00b5d593          	srli	a1,a1,0xb
80005a8c:	00d56533          	or	a0,a0,a3
80005a90:	02075063          	bgez	a4,80005ab0 <__floatdidf+0x8c>
80005a94:	00150513          	addi	a0,a0,1 # 7fc00001 <_start-0x3fffff>
80005a98:	00153693          	seqz	a3,a0
80005a9c:	00d585b3          	add	a1,a1,a3
80005aa0:	00171713          	slli	a4,a4,0x1
80005aa4:	00173713          	seqz	a4,a4
80005aa8:	fff74713          	not	a4,a4
80005aac:	00e57533          	and	a0,a0,a4
80005ab0:	01461613          	slli	a2,a2,0x14
80005ab4:	00c585b3          	add	a1,a1,a2
80005ab8:	00f5e5b3          	or	a1,a1,a5

80005abc <exit>:
80005abc:	00008067          	ret

80005ac0 <__floatdisf>:
80005ac0:	01f5d793          	srli	a5,a1,0x1f
80005ac4:	0005da63          	bgez	a1,80005ad8 <__floatdisf+0x18>
80005ac8:	40a00533          	neg	a0,a0
80005acc:	fff5c593          	not	a1,a1
80005ad0:	00153613          	seqz	a2,a0
80005ad4:	00c585b3          	add	a1,a1,a2
80005ad8:	01f79793          	slli	a5,a5,0x1f
80005adc:	0bd00613          	li	a2,189
80005ae0:	00059a63          	bnez	a1,80005af4 <__floatdisf+0x34>
80005ae4:	06050463          	beqz	a0,80005b4c <exit>
80005ae8:	00050593          	mv	a1,a0
80005aec:	00000513          	li	a0,0
80005af0:	fe060613          	addi	a2,a2,-32
80005af4:	0005c863          	bltz	a1,80005b04 <__floatdisf+0x44>
80005af8:	fff60613          	addi	a2,a2,-1
80005afc:	00159593          	slli	a1,a1,0x1
80005b00:	feb04ce3          	bgtz	a1,80005af8 <__floatdisf+0x38>
80005b04:	f6360713          	addi	a4,a2,-157
80005b08:	00e556b3          	srl	a3,a0,a4
80005b0c:	00d5e5b3          	or	a1,a1,a3
80005b10:	40e00733          	neg	a4,a4
80005b14:	00e51533          	sll	a0,a0,a4
80005b18:	00a03733          	snez	a4,a0
80005b1c:	0085d513          	srli	a0,a1,0x8
80005b20:	01859593          	slli	a1,a1,0x18
80005b24:	00e5e5b3          	or	a1,a1,a4
80005b28:	0005dc63          	bgez	a1,80005b40 <__floatdisf+0x80>
80005b2c:	00150513          	addi	a0,a0,1
80005b30:	00159593          	slli	a1,a1,0x1
80005b34:	0015b593          	seqz	a1,a1
80005b38:	fff5c593          	not	a1,a1
80005b3c:	00b57533          	and	a0,a0,a1
80005b40:	01761613          	slli	a2,a2,0x17
80005b44:	00c50533          	add	a0,a0,a2
80005b48:	00f56533          	or	a0,a0,a5

80005b4c <exit>:
80005b4c:	00008067          	ret

80005b50 <__floatsidf>:
80005b50:	41f55793          	srai	a5,a0,0x1f
80005b54:	00f545b3          	xor	a1,a0,a5
80005b58:	40f585b3          	sub	a1,a1,a5
80005b5c:	02050863          	beqz	a0,80005b8c <exit>
80005b60:	01f79793          	slli	a5,a5,0x1f
80005b64:	41d00613          	li	a2,1053
80005b68:	0005c863          	bltz	a1,80005b78 <__floatsidf+0x28>
80005b6c:	fff60613          	addi	a2,a2,-1
80005b70:	00159593          	slli	a1,a1,0x1
80005b74:	feb04ce3          	bgtz	a1,80005b6c <__floatsidf+0x1c>
80005b78:	01559513          	slli	a0,a1,0x15
80005b7c:	00b5d593          	srli	a1,a1,0xb
80005b80:	01461613          	slli	a2,a2,0x14
80005b84:	00c585b3          	add	a1,a1,a2
80005b88:	00f5e5b3          	or	a1,a1,a5

80005b8c <exit>:
80005b8c:	00008067          	ret

80005b90 <__floatsisf>:
80005b90:	04050a63          	beqz	a0,80005be4 <exit>
80005b94:	41f55793          	srai	a5,a0,0x1f
80005b98:	00f54533          	xor	a0,a0,a5
80005b9c:	40f50533          	sub	a0,a0,a5
80005ba0:	01f79793          	slli	a5,a5,0x1f
80005ba4:	09d00593          	li	a1,157
80005ba8:	00054863          	bltz	a0,80005bb8 <__floatsisf+0x28>
80005bac:	fff58593          	addi	a1,a1,-1
80005bb0:	00151513          	slli	a0,a0,0x1
80005bb4:	fea04ce3          	bgtz	a0,80005bac <__floatsisf+0x1c>
80005bb8:	01851613          	slli	a2,a0,0x18
80005bbc:	00855513          	srli	a0,a0,0x8
80005bc0:	00065c63          	bgez	a2,80005bd8 <__floatsisf+0x48>
80005bc4:	00150513          	addi	a0,a0,1
80005bc8:	00161613          	slli	a2,a2,0x1
80005bcc:	00163613          	seqz	a2,a2
80005bd0:	fff64613          	not	a2,a2
80005bd4:	00c57533          	and	a0,a0,a2
80005bd8:	01759593          	slli	a1,a1,0x17
80005bdc:	00b50533          	add	a0,a0,a1
80005be0:	00f56533          	or	a0,a0,a5

80005be4 <exit>:
80005be4:	00008067          	ret

80005be8 <__floatundidf>:
80005be8:	43d00613          	li	a2,1085
80005bec:	00059a63          	bnez	a1,80005c00 <__floatundidf+0x18>
80005bf0:	06050a63          	beqz	a0,80005c64 <exit>
80005bf4:	00050593          	mv	a1,a0
80005bf8:	00000513          	li	a0,0
80005bfc:	fe060613          	addi	a2,a2,-32
80005c00:	0005c863          	bltz	a1,80005c10 <__floatundidf+0x28>
80005c04:	fff60613          	addi	a2,a2,-1
80005c08:	00159593          	slli	a1,a1,0x1
80005c0c:	feb04ce3          	bgtz	a1,80005c04 <__floatundidf+0x1c>
80005c10:	bc360713          	addi	a4,a2,-1085
80005c14:	00070a63          	beqz	a4,80005c28 <__floatundidf+0x40>
80005c18:	00e556b3          	srl	a3,a0,a4
80005c1c:	00d5e5b3          	or	a1,a1,a3
80005c20:	40e00733          	neg	a4,a4
80005c24:	00e51533          	sll	a0,a0,a4
80005c28:	01551713          	slli	a4,a0,0x15
80005c2c:	00b55513          	srli	a0,a0,0xb
80005c30:	01559693          	slli	a3,a1,0x15
80005c34:	00b5d593          	srli	a1,a1,0xb
80005c38:	00d56533          	or	a0,a0,a3
80005c3c:	02075063          	bgez	a4,80005c5c <__floatundidf+0x74>
80005c40:	00150513          	addi	a0,a0,1
80005c44:	00153693          	seqz	a3,a0
80005c48:	00d585b3          	add	a1,a1,a3
80005c4c:	00171713          	slli	a4,a4,0x1
80005c50:	00173713          	seqz	a4,a4
80005c54:	fff74713          	not	a4,a4
80005c58:	00e57533          	and	a0,a0,a4
80005c5c:	01461613          	slli	a2,a2,0x14
80005c60:	00c585b3          	add	a1,a1,a2

80005c64 <exit>:
80005c64:	00008067          	ret

80005c68 <__floatundisf>:
80005c68:	0bd00613          	li	a2,189
80005c6c:	00059a63          	bnez	a1,80005c80 <__floatundisf+0x18>
80005c70:	06050463          	beqz	a0,80005cd8 <exit>
80005c74:	00050593          	mv	a1,a0
80005c78:	00000513          	li	a0,0
80005c7c:	fe060613          	addi	a2,a2,-32
80005c80:	0005c863          	bltz	a1,80005c90 <__floatundisf+0x28>
80005c84:	fff60613          	addi	a2,a2,-1
80005c88:	00159593          	slli	a1,a1,0x1
80005c8c:	feb04ce3          	bgtz	a1,80005c84 <__floatundisf+0x1c>
80005c90:	f4360713          	addi	a4,a2,-189
80005c94:	00070a63          	beqz	a4,80005ca8 <__floatundisf+0x40>
80005c98:	00e556b3          	srl	a3,a0,a4
80005c9c:	00d5e5b3          	or	a1,a1,a3
80005ca0:	40e00733          	neg	a4,a4
80005ca4:	00e51533          	sll	a0,a0,a4
80005ca8:	00a03733          	snez	a4,a0
80005cac:	0085d513          	srli	a0,a1,0x8
80005cb0:	01859593          	slli	a1,a1,0x18
80005cb4:	00e5e5b3          	or	a1,a1,a4
80005cb8:	0005dc63          	bgez	a1,80005cd0 <__floatundisf+0x68>
80005cbc:	00150513          	addi	a0,a0,1
80005cc0:	00159593          	slli	a1,a1,0x1
80005cc4:	0015b593          	seqz	a1,a1
80005cc8:	fff5c593          	not	a1,a1
80005ccc:	00b57533          	and	a0,a0,a1
80005cd0:	01761613          	slli	a2,a2,0x17
80005cd4:	00c50533          	add	a0,a0,a2

80005cd8 <exit>:
80005cd8:	00008067          	ret

80005cdc <__floatunsidf>:
80005cdc:	00050593          	mv	a1,a0
80005ce0:	02050463          	beqz	a0,80005d08 <exit>
80005ce4:	41d00613          	li	a2,1053
80005ce8:	0005c863          	bltz	a1,80005cf8 <__floatunsidf+0x1c>
80005cec:	fff60613          	addi	a2,a2,-1
80005cf0:	00159593          	slli	a1,a1,0x1
80005cf4:	fe05dce3          	bgez	a1,80005cec <__floatunsidf+0x10>
80005cf8:	01559513          	slli	a0,a1,0x15
80005cfc:	00b5d593          	srli	a1,a1,0xb
80005d00:	01461613          	slli	a2,a2,0x14
80005d04:	00c585b3          	add	a1,a1,a2

80005d08 <exit>:
80005d08:	00008067          	ret

80005d0c <__floatunsisf>:
80005d0c:	04050063          	beqz	a0,80005d4c <exit>
80005d10:	09d00593          	li	a1,157
80005d14:	00054863          	bltz	a0,80005d24 <__floatunsisf+0x18>
80005d18:	fff58593          	addi	a1,a1,-1
80005d1c:	00151513          	slli	a0,a0,0x1
80005d20:	fea04ce3          	bgtz	a0,80005d18 <__floatunsisf+0xc>
80005d24:	01851613          	slli	a2,a0,0x18
80005d28:	00855513          	srli	a0,a0,0x8
80005d2c:	00065c63          	bgez	a2,80005d44 <__floatunsisf+0x38>
80005d30:	00150513          	addi	a0,a0,1
80005d34:	00161613          	slli	a2,a2,0x1
80005d38:	00163613          	seqz	a2,a2
80005d3c:	fff64613          	not	a2,a2
80005d40:	00c57533          	and	a0,a0,a2
80005d44:	01759593          	slli	a1,a1,0x17
80005d48:	00b50533          	add	a0,a0,a1

80005d4c <exit>:
80005d4c:	00008067          	ret

80005d50 <__gedf2>:
80005d50:	00a03733          	snez	a4,a0
80005d54:	00159793          	slli	a5,a1,0x1
80005d58:	00e7e7b3          	or	a5,a5,a4
80005d5c:	ffe00737          	lui	a4,0xffe00
80005d60:	06f76263          	bltu	a4,a5,80005dc4 <nan>
80005d64:	00c037b3          	snez	a5,a2
80005d68:	00169293          	slli	t0,a3,0x1
80005d6c:	00f2e2b3          	or	t0,t0,a5
80005d70:	04576a63          	bltu	a4,t0,80005dc4 <nan>
80005d74:	00d5e733          	or	a4,a1,a3
80005d78:	00171713          	slli	a4,a4,0x1
80005d7c:	00a76733          	or	a4,a4,a0
80005d80:	00c76733          	or	a4,a4,a2
80005d84:	00070c63          	beqz	a4,80005d9c <xor_end>
80005d88:	00d5c733          	xor	a4,a1,a3
80005d8c:	02074e63          	bltz	a4,80005dc8 <pn_np>
80005d90:	00d58c63          	beq	a1,a3,80005da8 <pp_nn_h_eq>
80005d94:	00d5b733          	sltu	a4,a1,a3
80005d98:	0006a533          	sltz	a0,a3

80005d9c <xor_end>:
80005d9c:	00e54533          	xor	a0,a0,a4
80005da0:	01f51513          	slli	a0,a0,0x1f
80005da4:	00008067          	ret

80005da8 <pp_nn_h_eq>:
80005da8:	00c50a63          	beq	a0,a2,80005dbc <ret_0>
80005dac:	00a63733          	sltu	a4,a2,a0
80005db0:	0005a533          	sltz	a0,a1
80005db4:	00154513          	xori	a0,a0,1
80005db8:	fe5ff06f          	j	80005d9c <xor_end>

80005dbc <ret_0>:
80005dbc:	00000513          	li	a0,0
80005dc0:	00008067          	ret

80005dc4 <nan>:
80005dc4:	00070593          	mv	a1,a4

80005dc8 <pn_np>:
80005dc8:	0005a533          	sltz	a0,a1
80005dcc:	01f51513          	slli	a0,a0,0x1f
80005dd0:	00008067          	ret

80005dd4 <__gesf2>:
80005dd4:	ff0006b7          	lui	a3,0xff000
80005dd8:	00151613          	slli	a2,a0,0x1
80005ddc:	02c6ea63          	bltu	a3,a2,80005e10 <ret_m1>
80005de0:	00159613          	slli	a2,a1,0x1
80005de4:	02c6e663          	bltu	a3,a2,80005e10 <ret_m1>
80005de8:	00b566b3          	or	a3,a0,a1
80005dec:	00169693          	slli	a3,a3,0x1
80005df0:	00068c63          	beqz	a3,80005e08 <ret_0>
80005df4:	00b576b3          	and	a3,a0,a1
80005df8:	0206c063          	bltz	a3,80005e18 <nn>
80005dfc:	00b52533          	slt	a0,a0,a1
80005e00:	01f51513          	slli	a0,a0,0x1f
80005e04:	00008067          	ret

80005e08 <ret_0>:
80005e08:	00000513          	li	a0,0
80005e0c:	00008067          	ret

80005e10 <ret_m1>:
80005e10:	fff00513          	li	a0,-1
80005e14:	00008067          	ret

80005e18 <nn>:
80005e18:	00a5a533          	slt	a0,a1,a0
80005e1c:	01f51513          	slli	a0,a0,0x1f
80005e20:	00008067          	ret

80005e24 <__gtdf2>:
80005e24:	00a03733          	snez	a4,a0
80005e28:	00159793          	slli	a5,a1,0x1
80005e2c:	00e7e7b3          	or	a5,a5,a4
80005e30:	ffe00737          	lui	a4,0xffe00
80005e34:	04f76863          	bltu	a4,a5,80005e84 <ret_0>
80005e38:	00c037b3          	snez	a5,a2
80005e3c:	00169293          	slli	t0,a3,0x1
80005e40:	00f2e2b3          	or	t0,t0,a5
80005e44:	04576063          	bltu	a4,t0,80005e84 <ret_0>
80005e48:	00d5e733          	or	a4,a1,a3
80005e4c:	00171713          	slli	a4,a4,0x1
80005e50:	00a76733          	or	a4,a4,a0
80005e54:	00c76733          	or	a4,a4,a2
80005e58:	02070663          	beqz	a4,80005e84 <ret_0>
80005e5c:	00d5c733          	xor	a4,a1,a3
80005e60:	02074663          	bltz	a4,80005e8c <pn_np>
80005e64:	00d58a63          	beq	a1,a3,80005e78 <pp_nn_h_eq>
80005e68:	00b6b733          	sltu	a4,a3,a1

80005e6c <end>:
80005e6c:	0006a533          	sltz	a0,a3
80005e70:	00e54533          	xor	a0,a0,a4
80005e74:	00008067          	ret

80005e78 <pp_nn_h_eq>:
80005e78:	00c50663          	beq	a0,a2,80005e84 <ret_0>
80005e7c:	00a63733          	sltu	a4,a2,a0
80005e80:	fedff06f          	j	80005e6c <end>

80005e84 <ret_0>:
80005e84:	00000513          	li	a0,0
80005e88:	00008067          	ret

80005e8c <pn_np>:
80005e8c:	0006a533          	sltz	a0,a3
80005e90:	00008067          	ret

80005e94 <__gtsf2>:
80005e94:	ff0006b7          	lui	a3,0xff000
80005e98:	00151613          	slli	a2,a0,0x1
80005e9c:	02c6e463          	bltu	a3,a2,80005ec4 <ret_0>
80005ea0:	00159613          	slli	a2,a1,0x1
80005ea4:	02c6e063          	bltu	a3,a2,80005ec4 <ret_0>
80005ea8:	00b566b3          	or	a3,a0,a1
80005eac:	00169693          	slli	a3,a3,0x1
80005eb0:	00068a63          	beqz	a3,80005ec4 <ret_0>
80005eb4:	00b576b3          	and	a3,a0,a1
80005eb8:	0006ca63          	bltz	a3,80005ecc <nn>
80005ebc:	00a5a533          	slt	a0,a1,a0
80005ec0:	00008067          	ret

80005ec4 <ret_0>:
80005ec4:	00000513          	li	a0,0
80005ec8:	00008067          	ret

80005ecc <nn>:
80005ecc:	00b52533          	slt	a0,a0,a1
80005ed0:	00008067          	ret

80005ed4 <__ledf2>:
80005ed4:	00a03733          	snez	a4,a0
80005ed8:	00159793          	slli	a5,a1,0x1
80005edc:	00e7e7b3          	or	a5,a5,a4
80005ee0:	ffe00737          	lui	a4,0xffe00
80005ee4:	04f76e63          	bltu	a4,a5,80005f40 <nan>
80005ee8:	00c037b3          	snez	a5,a2
80005eec:	00169293          	slli	t0,a3,0x1
80005ef0:	00f2e2b3          	or	t0,t0,a5
80005ef4:	04576663          	bltu	a4,t0,80005f40 <nan>
80005ef8:	00d5e733          	or	a4,a1,a3
80005efc:	00171713          	slli	a4,a4,0x1
80005f00:	00a76733          	or	a4,a4,a0
80005f04:	00c76733          	or	a4,a4,a2
80005f08:	00070c63          	beqz	a4,80005f20 <xor_end>
80005f0c:	00d5c733          	xor	a4,a1,a3
80005f10:	02074a63          	bltz	a4,80005f44 <pn_np>
80005f14:	00d58a63          	beq	a1,a3,80005f28 <pp_nn_h_eq>
80005f18:	00b6b733          	sltu	a4,a3,a1
80005f1c:	0005a533          	sltz	a0,a1

80005f20 <xor_end>:
80005f20:	00e54533          	xor	a0,a0,a4
80005f24:	00008067          	ret

80005f28 <pp_nn_h_eq>:
80005f28:	00c50863          	beq	a0,a2,80005f38 <ret_0>
80005f2c:	00a63733          	sltu	a4,a2,a0
80005f30:	0005a533          	sltz	a0,a1
80005f34:	fedff06f          	j	80005f20 <xor_end>

80005f38 <ret_0>:
80005f38:	00000513          	li	a0,0
80005f3c:	00008067          	ret

80005f40 <nan>:
80005f40:	00070693          	mv	a3,a4

80005f44 <pn_np>:
80005f44:	0006a533          	sltz	a0,a3
80005f48:	00008067          	ret

80005f4c <__lesf2>:
80005f4c:	ff0006b7          	lui	a3,0xff000
80005f50:	00151613          	slli	a2,a0,0x1
80005f54:	02c6e663          	bltu	a3,a2,80005f80 <ret_1>
80005f58:	00159613          	slli	a2,a1,0x1
80005f5c:	02c6e263          	bltu	a3,a2,80005f80 <ret_1>
80005f60:	00b566b3          	or	a3,a0,a1
80005f64:	00169693          	slli	a3,a3,0x1
80005f68:	02068063          	beqz	a3,80005f88 <ret_0>
80005f6c:	00b50e63          	beq	a0,a1,80005f88 <ret_0>
80005f70:	00b576b3          	and	a3,a0,a1
80005f74:	0006ce63          	bltz	a3,80005f90 <nn>
80005f78:	00a5a533          	slt	a0,a1,a0
80005f7c:	00008067          	ret

80005f80 <ret_1>:
80005f80:	00100513          	li	a0,1
80005f84:	00008067          	ret

80005f88 <ret_0>:
80005f88:	00000513          	li	a0,0
80005f8c:	00008067          	ret

80005f90 <nn>:
80005f90:	00b52533          	slt	a0,a0,a1
80005f94:	00008067          	ret

80005f98 <__ltdf2>:
80005f98:	00a03733          	snez	a4,a0
80005f9c:	00159793          	slli	a5,a1,0x1
80005fa0:	00e7e7b3          	or	a5,a5,a4
80005fa4:	ffe00737          	lui	a4,0xffe00
80005fa8:	04f76a63          	bltu	a4,a5,80005ffc <ret_0>
80005fac:	00c037b3          	snez	a5,a2
80005fb0:	00169293          	slli	t0,a3,0x1
80005fb4:	00f2e2b3          	or	t0,t0,a5
80005fb8:	04576263          	bltu	a4,t0,80005ffc <ret_0>
80005fbc:	00d5e733          	or	a4,a1,a3
80005fc0:	00171713          	slli	a4,a4,0x1
80005fc4:	00a76733          	or	a4,a4,a0
80005fc8:	00c76733          	or	a4,a4,a2
80005fcc:	02070863          	beqz	a4,80005ffc <ret_0>
80005fd0:	00d5c733          	xor	a4,a1,a3
80005fd4:	02074863          	bltz	a4,80006004 <pn_np>
80005fd8:	00d58c63          	beq	a1,a3,80005ff0 <pp_nn_h_eq>
80005fdc:	00d5b733          	sltu	a4,a1,a3

80005fe0 <end>:
80005fe0:	0005a533          	sltz	a0,a1
80005fe4:	00e54533          	xor	a0,a0,a4
80005fe8:	01f51513          	slli	a0,a0,0x1f
80005fec:	00008067          	ret

80005ff0 <pp_nn_h_eq>:
80005ff0:	00c50663          	beq	a0,a2,80005ffc <ret_0>
80005ff4:	00c53733          	sltu	a4,a0,a2
80005ff8:	fe9ff06f          	j	80005fe0 <end>

80005ffc <ret_0>:
80005ffc:	00000513          	li	a0,0
80006000:	00008067          	ret

80006004 <pn_np>:
80006004:	0005a533          	sltz	a0,a1
80006008:	01f51513          	slli	a0,a0,0x1f
8000600c:	00008067          	ret

80006010 <__ltsf2>:
80006010:	ff0006b7          	lui	a3,0xff000
80006014:	00151613          	slli	a2,a0,0x1
80006018:	02c6e663          	bltu	a3,a2,80006044 <ret_0>
8000601c:	00159613          	slli	a2,a1,0x1
80006020:	02c6e263          	bltu	a3,a2,80006044 <ret_0>
80006024:	00b566b3          	or	a3,a0,a1
80006028:	00169693          	slli	a3,a3,0x1
8000602c:	00068c63          	beqz	a3,80006044 <ret_0>
80006030:	00b576b3          	and	a3,a0,a1
80006034:	0006cc63          	bltz	a3,8000604c <nn>
80006038:	00b52533          	slt	a0,a0,a1
8000603c:	01f51513          	slli	a0,a0,0x1f
80006040:	00008067          	ret

80006044 <ret_0>:
80006044:	00000513          	li	a0,0
80006048:	00008067          	ret

8000604c <nn>:
8000604c:	00a5a533          	slt	a0,a1,a0
80006050:	01f51513          	slli	a0,a0,0x1f
80006054:	00008067          	ret

80006058 <__muldf3>:
80006058:	7ff00793          	li	a5,2047
8000605c:	0145d713          	srli	a4,a1,0x14
80006060:	00f77733          	and	a4,a4,a5
80006064:	0146d813          	srli	a6,a3,0x14
80006068:	00f87833          	and	a6,a6,a5
8000606c:	20f70263          	beq	a4,a5,80006270 <inf_nan>
80006070:	20f80063          	beq	a6,a5,80006270 <inf_nan>
80006074:	1c070663          	beqz	a4,80006240 <zero_denormal>
80006078:	1c080463          	beqz	a6,80006240 <zero_denormal>

8000607c <normal_case>:
8000607c:	01070733          	add	a4,a4,a6
80006080:	00d5c833          	xor	a6,a1,a3
80006084:	800007b7          	lui	a5,0x80000
80006088:	00f872b3          	and	t0,a6,a5
8000608c:	fff007b7          	lui	a5,0xfff00
80006090:	fff7c793          	not	a5,a5
80006094:	00f5f5b3          	and	a1,a1,a5
80006098:	00f6f6b3          	and	a3,a3,a5
8000609c:	001007b7          	lui	a5,0x100
800060a0:	00f5e5b3          	or	a1,a1,a5
800060a4:	00f6e6b3          	or	a3,a3,a5
800060a8:	02c58333          	mul	t1,a1,a2
800060ac:	02c5b3b3          	mulhu	t2,a1,a2
800060b0:	02d50833          	mul	a6,a0,a3
800060b4:	02d538b3          	mulhu	a7,a0,a3
800060b8:	01030333          	add	t1,t1,a6
800060bc:	01033833          	sltu	a6,t1,a6
800060c0:	010888b3          	add	a7,a7,a6
800060c4:	011383b3          	add	t2,t2,a7
800060c8:	02c50e33          	mul	t3,a0,a2
800060cc:	02c53eb3          	mulhu	t4,a0,a2
800060d0:	02d58833          	mul	a6,a1,a3
800060d4:	02d5b8b3          	mulhu	a7,a1,a3
800060d8:	006e8eb3          	add	t4,t4,t1
800060dc:	006eb333          	sltu	t1,t4,t1
800060e0:	006383b3          	add	t2,t2,t1
800060e4:	00780833          	add	a6,a6,t2
800060e8:	007833b3          	sltu	t2,a6,t2
800060ec:	007888b3          	add	a7,a7,t2
800060f0:	01c037b3          	snez	a5,t3
800060f4:	00feeeb3          	or	t4,t4,a5
800060f8:	20000393          	li	t2,512
800060fc:	0278f263          	bgeu	a7,t2,80006120 <normal_case+0xa4>
80006100:	00189893          	slli	a7,a7,0x1
80006104:	01f85793          	srli	a5,a6,0x1f
80006108:	00f8e8b3          	or	a7,a7,a5
8000610c:	00181813          	slli	a6,a6,0x1
80006110:	01fed793          	srli	a5,t4,0x1f
80006114:	00f86833          	or	a6,a6,a5
80006118:	001e9e93          	slli	t4,t4,0x1
8000611c:	fff70713          	addi	a4,a4,-1 # ffdfffff <nnames+0x7fda0fab>
80006120:	00b89593          	slli	a1,a7,0xb
80006124:	01585793          	srli	a5,a6,0x15
80006128:	00f5e5b3          	or	a1,a1,a5
8000612c:	00b81513          	slli	a0,a6,0xb
80006130:	015ed793          	srli	a5,t4,0x15
80006134:	00f56533          	or	a0,a0,a5
80006138:	00be9e93          	slli	t4,t4,0xb
8000613c:	c0170713          	addi	a4,a4,-1023
80006140:	7fe00313          	li	t1,2046
80006144:	02677863          	bgeu	a4,t1,80006174 <und_ov_flow>
80006148:	01471713          	slli	a4,a4,0x14
8000614c:	00e585b3          	add	a1,a1,a4

80006150 <rounding>:
80006150:	800007b7          	lui	a5,0x80000
80006154:	00feec63          	bltu	t4,a5,8000616c <exit>
80006158:	00150513          	addi	a0,a0,1
8000615c:	00153313          	seqz	t1,a0
80006160:	006585b3          	add	a1,a1,t1
80006164:	00fe9463          	bne	t4,a5,8000616c <exit>
80006168:	ffe57513          	andi	a0,a0,-2

8000616c <exit>:
8000616c:	0055e5b3          	or	a1,a1,t0
80006170:	00008067          	ret

80006174 <und_ov_flow>:
80006174:	12e04e63          	bgtz	a4,800062b0 <pre_ovf>
80006178:	fcb00313          	li	t1,-53
8000617c:	00675863          	bge	a4,t1,8000618c <denormal_end>
80006180:	00000513          	li	a0,0
80006184:	00028593          	mv	a1,t0
80006188:	00008067          	ret

8000618c <denormal_end>:
8000618c:	40e00733          	neg	a4,a4
80006190:	02000793          	li	a5,32
80006194:	02f75463          	bge	a4,a5,800061bc <denormal_end+0x30>
80006198:	40e787b3          	sub	a5,a5,a4
8000619c:	01d03633          	snez	a2,t4
800061a0:	00f51eb3          	sll	t4,a0,a5
800061a4:	00ceeeb3          	or	t4,t4,a2
800061a8:	00e55533          	srl	a0,a0,a4
800061ac:	00f59633          	sll	a2,a1,a5
800061b0:	00c56533          	or	a0,a0,a2
800061b4:	00e5d5b3          	srl	a1,a1,a4
800061b8:	f99ff06f          	j	80006150 <rounding>
800061bc:	fe070713          	addi	a4,a4,-32
800061c0:	01d03633          	snez	a2,t4
800061c4:	00050e93          	mv	t4,a0
800061c8:	00058513          	mv	a0,a1
800061cc:	00000593          	li	a1,0
800061d0:	00ceeeb3          	or	t4,t4,a2
800061d4:	f6070ee3          	beqz	a4,80006150 <rounding>
800061d8:	40e787b3          	sub	a5,a5,a4
800061dc:	fc1ff06f          	j	8000619c <denormal_end+0x10>

800061e0 <denormal>:
800061e0:	00b7de13          	srli	t3,a5,0xb
800061e4:	00f5f333          	and	t1,a1,a5
800061e8:	02071263          	bnez	a4,8000620c <denormal+0x2c>
800061ec:	00159593          	slli	a1,a1,0x1
800061f0:	01f55f13          	srli	t5,a0,0x1f
800061f4:	01e5e5b3          	or	a1,a1,t5
800061f8:	00151513          	slli	a0,a0,0x1
800061fc:	01c5f3b3          	and	t2,a1,t3
80006200:	00039663          	bnez	t2,8000620c <denormal+0x2c>
80006204:	fff70713          	addi	a4,a4,-1
80006208:	fe5ff06f          	j	800061ec <denormal+0xc>
8000620c:	0065e5b3          	or	a1,a1,t1
80006210:	00d7f7b3          	and	a5,a5,a3
80006214:	02081263          	bnez	a6,80006238 <denormal+0x58>
80006218:	00169693          	slli	a3,a3,0x1
8000621c:	01f65f13          	srli	t5,a2,0x1f
80006220:	01e6e6b3          	or	a3,a3,t5
80006224:	00161613          	slli	a2,a2,0x1
80006228:	01c6f3b3          	and	t2,a3,t3
8000622c:	00039663          	bnez	t2,80006238 <denormal+0x58>
80006230:	fff80813          	addi	a6,a6,-1
80006234:	fe5ff06f          	j	80006218 <denormal+0x38>
80006238:	00f6e6b3          	or	a3,a3,a5
8000623c:	e41ff06f          	j	8000607c <normal_case>

80006240 <zero_denormal>:
80006240:	01f79793          	slli	a5,a5,0x1f
80006244:	fff7ce13          	not	t3,a5
80006248:	01c5f8b3          	and	a7,a1,t3
8000624c:	00a8e8b3          	or	a7,a7,a0
80006250:	00088863          	beqz	a7,80006260 <zero>
80006254:	01c6f8b3          	and	a7,a3,t3
80006258:	00c8e8b3          	or	a7,a7,a2
8000625c:	f80892e3          	bnez	a7,800061e0 <denormal>

80006260 <zero>:
80006260:	00d5c5b3          	xor	a1,a1,a3
80006264:	00f5f5b3          	and	a1,a1,a5
80006268:	00000513          	li	a0,0
8000626c:	00008067          	ret

80006270 <inf_nan>:
80006270:	00159893          	slli	a7,a1,0x1
80006274:	00a8e8b3          	or	a7,a7,a0
80006278:	04088a63          	beqz	a7,800062cc <nan>
8000627c:	00169893          	slli	a7,a3,0x1
80006280:	00c8e8b3          	or	a7,a7,a2
80006284:	04088463          	beqz	a7,800062cc <nan>
80006288:	00f71863          	bne	a4,a5,80006298 <inf_nan+0x28>
8000628c:	00c59893          	slli	a7,a1,0xc
80006290:	00a8e8b3          	or	a7,a7,a0
80006294:	02089c63          	bnez	a7,800062cc <nan>
80006298:	00f81863          	bne	a6,a5,800062a8 <inf>
8000629c:	00c69713          	slli	a4,a3,0xc
800062a0:	00c76733          	or	a4,a4,a2
800062a4:	02071463          	bnez	a4,800062cc <nan>

800062a8 <inf>:
800062a8:	00d5c5b3          	xor	a1,a1,a3
800062ac:	0080006f          	j	800062b4 <ovf>

800062b0 <pre_ovf>:
800062b0:	0055e5b3          	or	a1,a1,t0

800062b4 <ovf>:
800062b4:	7ff006b7          	lui	a3,0x7ff00
800062b8:	0145d593          	srli	a1,a1,0x14
800062bc:	01459593          	slli	a1,a1,0x14
800062c0:	00d5e5b3          	or	a1,a1,a3
800062c4:	00000513          	li	a0,0
800062c8:	00008067          	ret

800062cc <nan>:
800062cc:	7ff805b7          	lui	a1,0x7ff80
800062d0:	00000513          	li	a0,0
800062d4:	00008067          	ret

800062d8 <__mulsf3>:
800062d8:	80000737          	lui	a4,0x80000
800062dc:	0ff00813          	li	a6,255
800062e0:	01755613          	srli	a2,a0,0x17
800062e4:	01067633          	and	a2,a2,a6
800062e8:	0175d693          	srli	a3,a1,0x17
800062ec:	0106f6b3          	and	a3,a3,a6
800062f0:	15060463          	beq	a2,a6,80006438 <inf_nan>
800062f4:	15068263          	beq	a3,a6,80006438 <inf_nan>
800062f8:	12060063          	beqz	a2,80006418 <zero_denormal>
800062fc:	10068e63          	beqz	a3,80006418 <zero_denormal>

80006300 <normal_case>:
80006300:	00d60633          	add	a2,a2,a3
80006304:	00b54833          	xor	a6,a0,a1
80006308:	80000737          	lui	a4,0x80000
8000630c:	00e87833          	and	a6,a6,a4
80006310:	00951513          	slli	a0,a0,0x9
80006314:	00959593          	slli	a1,a1,0x9
80006318:	080006b7          	lui	a3,0x8000
8000631c:	00555513          	srli	a0,a0,0x5
80006320:	0055d593          	srli	a1,a1,0x5
80006324:	00d56533          	or	a0,a0,a3
80006328:	00d5e5b3          	or	a1,a1,a3
8000632c:	02b506b3          	mul	a3,a0,a1
80006330:	02b535b3          	mulhu	a1,a0,a1
80006334:	00080513          	mv	a0,a6
80006338:	00800837          	lui	a6,0x800
8000633c:	0105fc63          	bgeu	a1,a6,80006354 <normal_case+0x54>
80006340:	00159593          	slli	a1,a1,0x1
80006344:	01f6d813          	srli	a6,a3,0x1f
80006348:	0105e5b3          	or	a1,a1,a6
8000634c:	00169693          	slli	a3,a3,0x1
80006350:	fff60613          	addi	a2,a2,-1
80006354:	00b56533          	or	a0,a0,a1
80006358:	f8160613          	addi	a2,a2,-127
8000635c:	0fe00813          	li	a6,254
80006360:	03067063          	bgeu	a2,a6,80006380 <und_ov_flow>
80006364:	01761613          	slli	a2,a2,0x17
80006368:	00c50533          	add	a0,a0,a2
8000636c:	00e6e863          	bltu	a3,a4,8000637c <exit>
80006370:	00150513          	addi	a0,a0,1
80006374:	00e69463          	bne	a3,a4,8000637c <exit>
80006378:	ffe57513          	andi	a0,a0,-2

8000637c <exit>:
8000637c:	00008067          	ret

80006380 <und_ov_flow>:
80006380:	0ec04063          	bgtz	a2,80006460 <ovf>
80006384:	01a60813          	addi	a6,a2,26
80006388:	00085663          	bgez	a6,80006394 <denormal_end>
8000638c:	00e57533          	and	a0,a0,a4
80006390:	00008067          	ret

80006394 <denormal_end>:
80006394:	40c007b3          	neg	a5,a2
80006398:	00a77833          	and	a6,a4,a0
8000639c:	01054533          	xor	a0,a0,a6
800063a0:	02060613          	addi	a2,a2,32
800063a4:	00c51633          	sll	a2,a0,a2
800063a8:	00f55533          	srl	a0,a0,a5
800063ac:	01056533          	or	a0,a0,a6
800063b0:	0016d693          	srli	a3,a3,0x1
800063b4:	00d66633          	or	a2,a2,a3
800063b8:	fce662e3          	bltu	a2,a4,8000637c <exit>
800063bc:	00150513          	addi	a0,a0,1
800063c0:	fae61ee3          	bne	a2,a4,8000637c <exit>
800063c4:	ffe57513          	andi	a0,a0,-2
800063c8:	00008067          	ret

800063cc <denormal>:
800063cc:	00800837          	lui	a6,0x800
800063d0:	00a77733          	and	a4,a4,a0
800063d4:	00061c63          	bnez	a2,800063ec <denormal+0x20>
800063d8:	00151513          	slli	a0,a0,0x1
800063dc:	010577b3          	and	a5,a0,a6
800063e0:	00079663          	bnez	a5,800063ec <denormal+0x20>
800063e4:	fff60613          	addi	a2,a2,-1
800063e8:	ff1ff06f          	j	800063d8 <denormal+0xc>
800063ec:	00e56533          	or	a0,a0,a4
800063f0:	80000737          	lui	a4,0x80000
800063f4:	00b77733          	and	a4,a4,a1
800063f8:	00069c63          	bnez	a3,80006410 <denormal+0x44>
800063fc:	00159593          	slli	a1,a1,0x1
80006400:	0105f7b3          	and	a5,a1,a6
80006404:	00079663          	bnez	a5,80006410 <denormal+0x44>
80006408:	fff68693          	addi	a3,a3,-1 # 7ffffff <_start-0x78000001>
8000640c:	ff1ff06f          	j	800063fc <denormal+0x30>
80006410:	00e5e5b3          	or	a1,a1,a4
80006414:	eedff06f          	j	80006300 <normal_case>

80006418 <zero_denormal>:
80006418:	fff74813          	not	a6,a4
8000641c:	00a877b3          	and	a5,a6,a0
80006420:	00078663          	beqz	a5,8000642c <zero>
80006424:	00b87833          	and	a6,a6,a1
80006428:	fa0812e3          	bnez	a6,800063cc <denormal>

8000642c <zero>:
8000642c:	00b54533          	xor	a0,a0,a1
80006430:	00e57533          	and	a0,a0,a4
80006434:	00008067          	ret

80006438 <inf_nan>:
80006438:	02050c63          	beqz	a0,80006470 <nan>
8000643c:	02058a63          	beqz	a1,80006470 <nan>
80006440:	02e50863          	beq	a0,a4,80006470 <nan>
80006444:	02e58663          	beq	a1,a4,80006470 <nan>
80006448:	01881813          	slli	a6,a6,0x18
8000644c:	00151793          	slli	a5,a0,0x1
80006450:	02f86063          	bltu	a6,a5,80006470 <nan>
80006454:	00159793          	slli	a5,a1,0x1
80006458:	00f86c63          	bltu	a6,a5,80006470 <nan>

8000645c <inf>:
8000645c:	00b54533          	xor	a0,a0,a1

80006460 <ovf>:
80006460:	00e57533          	and	a0,a0,a4
80006464:	7f800737          	lui	a4,0x7f800
80006468:	00e56533          	or	a0,a0,a4
8000646c:	00008067          	ret

80006470 <nan>:
80006470:	7fc00537          	lui	a0,0x7fc00
80006474:	00008067          	ret

80006478 <__truncdfsf2>:
80006478:	80000637          	lui	a2,0x80000
8000647c:	00b676b3          	and	a3,a2,a1
80006480:	00159593          	slli	a1,a1,0x1
80006484:	0155d713          	srli	a4,a1,0x15
80006488:	c8070713          	addi	a4,a4,-896 # 7f7ffc80 <_start-0x800380>
8000648c:	06e05263          	blez	a4,800064f0 <undflow>
80006490:	f0270793          	addi	a5,a4,-254
80006494:	02f04c63          	bgtz	a5,800064cc <inf_nan>
80006498:	00351793          	slli	a5,a0,0x3
8000649c:	01d55513          	srli	a0,a0,0x1d
800064a0:	00b59593          	slli	a1,a1,0xb
800064a4:	0095d593          	srli	a1,a1,0x9
800064a8:	00b56533          	or	a0,a0,a1
800064ac:	01771713          	slli	a4,a4,0x17
800064b0:	00e50533          	add	a0,a0,a4

800064b4 <round>:
800064b4:	0007d863          	bgez	a5,800064c4 <sign_exit>
800064b8:	00150513          	addi	a0,a0,1 # 7fc00001 <_start-0x3fffff>
800064bc:	00c79463          	bne	a5,a2,800064c4 <sign_exit>
800064c0:	ffe57513          	andi	a0,a0,-2

800064c4 <sign_exit>:
800064c4:	00d56533          	or	a0,a0,a3
800064c8:	00008067          	ret

800064cc <inf_nan>:
800064cc:	00a03533          	snez	a0,a0
800064d0:	00a5e5b3          	or	a1,a1,a0
800064d4:	ffe00537          	lui	a0,0xffe00
800064d8:	00b56863          	bltu	a0,a1,800064e8 <nan>
800064dc:	7f800537          	lui	a0,0x7f800
800064e0:	00d56533          	or	a0,a0,a3
800064e4:	00008067          	ret

800064e8 <nan>:
800064e8:	7fc00537          	lui	a0,0x7fc00
800064ec:	00008067          	ret

800064f0 <undflow>:
800064f0:	01770313          	addi	t1,a4,23
800064f4:	04034463          	bltz	t1,8000653c <zero>
800064f8:	002002b7          	lui	t0,0x200
800064fc:	0055e5b3          	or	a1,a1,t0
80006500:	00a59593          	slli	a1,a1,0xa
80006504:	0085d593          	srli	a1,a1,0x8
80006508:	01d55713          	srli	a4,a0,0x1d
8000650c:	00e5e5b3          	or	a1,a1,a4
80006510:	00351513          	slli	a0,a0,0x3
80006514:	fe830313          	addi	t1,t1,-24 # 7fffffe8 <_start-0x18>
80006518:	40600733          	neg	a4,t1
8000651c:	006512b3          	sll	t0,a0,t1
80006520:	00e557b3          	srl	a5,a0,a4
80006524:	005032b3          	snez	t0,t0
80006528:	0057e7b3          	or	a5,a5,t0
8000652c:	006593b3          	sll	t2,a1,t1
80006530:	0077e7b3          	or	a5,a5,t2
80006534:	00e5d533          	srl	a0,a1,a4
80006538:	f7dff06f          	j	800064b4 <round>

8000653c <zero>:
8000653c:	00068513          	mv	a0,a3
80006540:	00008067          	ret

80006544 <clkhandler>:
80006544:	ff010113          	addi	sp,sp,-16
80006548:	06400513          	li	a0,100
8000654c:	00000593          	li	a1,0
80006550:	00112623          	sw	ra,12(sp)
80006554:	850fa0ef          	jal	800005a4 <clkupdate>
80006558:	8005f737          	lui	a4,0x8005f
8000655c:	02072783          	lw	a5,32(a4) # 8005f020 <count1000>
80006560:	3e700693          	li	a3,999
80006564:	00178793          	addi	a5,a5,1 # 80000001 <_start+0x1>
80006568:	02f72023          	sw	a5,32(a4)
8000656c:	00f6fc63          	bgeu	a3,a5,80006584 <clkhandler+0x40>
80006570:	8005f6b7          	lui	a3,0x8005f
80006574:	0246a783          	lw	a5,36(a3) # 8005f024 <clktime>
80006578:	02072023          	sw	zero,32(a4)
8000657c:	00178793          	addi	a5,a5,1
80006580:	02f6a223          	sw	a5,36(a3)
80006584:	8005f737          	lui	a4,0x8005f
80006588:	01c71703          	lh	a4,28(a4) # 8005f01c <sleepq>
8000658c:	8000e7b7          	lui	a5,0x8000e
80006590:	de078793          	addi	a5,a5,-544 # 8000dde0 <queuetab>
80006594:	00371713          	slli	a4,a4,0x3
80006598:	00e78733          	add	a4,a5,a4
8000659c:	00471703          	lh	a4,4(a4)
800065a0:	00700693          	li	a3,7
800065a4:	02e6c063          	blt	a3,a4,800065c4 <clkhandler+0x80>
800065a8:	00371713          	slli	a4,a4,0x3
800065ac:	00e787b3          	add	a5,a5,a4
800065b0:	0007a703          	lw	a4,0(a5)
800065b4:	fff70713          	addi	a4,a4,-1
800065b8:	00e7a023          	sw	a4,0(a5)
800065bc:	00071463          	bnez	a4,800065c4 <clkhandler+0x80>
800065c0:	3fd000ef          	jal	800071bc <wakeup>
800065c4:	8005f737          	lui	a4,0x8005f
800065c8:	01872783          	lw	a5,24(a4) # 8005f018 <preempt>
800065cc:	fff78793          	addi	a5,a5,-1
800065d0:	00078a63          	beqz	a5,800065e4 <clkhandler+0xa0>
800065d4:	00c12083          	lw	ra,12(sp)
800065d8:	00f72c23          	sw	a5,24(a4)
800065dc:	01010113          	addi	sp,sp,16
800065e0:	00008067          	ret
800065e4:	00c12083          	lw	ra,12(sp)
800065e8:	02800793          	li	a5,40
800065ec:	00f72c23          	sw	a5,24(a4)
800065f0:	01010113          	addi	sp,sp,16
800065f4:	4cc0006f          	j	80006ac0 <yield>

800065f8 <clkinit>:
800065f8:	ff010113          	addi	sp,sp,-16
800065fc:	00112623          	sw	ra,12(sp)
80006600:	4f9010ef          	jal	800082f8 <newqueue>
80006604:	8005f7b7          	lui	a5,0x8005f
80006608:	00a79e23          	sh	a0,28(a5) # 8005f01c <sleepq>
8000660c:	02800713          	li	a4,40
80006610:	8005f7b7          	lui	a5,0x8005f
80006614:	00c12083          	lw	ra,12(sp)
80006618:	00e7ac23          	sw	a4,24(a5) # 8005f018 <preempt>
8000661c:	8005f7b7          	lui	a5,0x8005f
80006620:	0207a223          	sw	zero,36(a5) # 8005f024 <clktime>
80006624:	8005f7b7          	lui	a5,0x8005f
80006628:	0207a023          	sw	zero,32(a5) # 8005f020 <count1000>
8000662c:	01010113          	addi	sp,sp,16
80006630:	00008067          	ret

80006634 <newpid>:
80006634:	8005f5b7          	lui	a1,0x8005f
80006638:	0285a783          	lw	a5,40(a1) # 8005f028 <nextpid.0>
8000663c:	8000e6b7          	lui	a3,0x8000e
80006640:	00800713          	li	a4,8
80006644:	00800813          	li	a6,8
80006648:	a6068693          	addi	a3,a3,-1440 # 8000da60 <proctab>
8000664c:	06400893          	li	a7,100
80006650:	0307e533          	rem	a0,a5,a6
80006654:	03150633          	mul	a2,a0,a7
80006658:	00150793          	addi	a5,a0,1 # 7fc00001 <_start-0x3fffff>
8000665c:	00c68633          	add	a2,a3,a2
80006660:	00065603          	lhu	a2,0(a2) # 80000000 <_start>
80006664:	00060863          	beqz	a2,80006674 <newpid+0x40>
80006668:	fff70713          	addi	a4,a4,-1
8000666c:	fe0712e3          	bnez	a4,80006650 <newpid+0x1c>
80006670:	fff00513          	li	a0,-1
80006674:	02f5a423          	sw	a5,40(a1)
80006678:	00008067          	ret

8000667c <createFromShell>:
8000667c:	fd010113          	addi	sp,sp,-48
80006680:	02912223          	sw	s1,36(sp)
80006684:	00058493          	mv	s1,a1
80006688:	00348493          	addi	s1,s1,3
8000668c:	02112623          	sw	ra,44(sp)
80006690:	02812423          	sw	s0,40(sp)
80006694:	01312e23          	sw	s3,28(sp)
80006698:	01412c23          	sw	s4,24(sp)
8000669c:	01512a23          	sw	s5,20(sp)
800066a0:	01612823          	sw	s6,16(sp)
800066a4:	01812423          	sw	s8,8(sp)
800066a8:	00070a93          	mv	s5,a4
800066ac:	00068c13          	mv	s8,a3
800066b0:	00078b13          	mv	s6,a5
800066b4:	03212023          	sw	s2,32(sp)
800066b8:	01712623          	sw	s7,12(sp)
800066bc:	00050a13          	mv	s4,a0
800066c0:	ffc4f493          	andi	s1,s1,-4
800066c4:	bc9f90ef          	jal	8000028c <disable>
800066c8:	00050993          	mv	s3,a0
800066cc:	00048513          	mv	a0,s1
800066d0:	b0cfc0ef          	jal	800029dc <getstk>
800066d4:	fff00413          	li	s0,-1
800066d8:	04851a63          	bne	a0,s0,8000672c <createFromShell+0xb0>
800066dc:	8000b537          	lui	a0,0x8000b
800066e0:	000c0593          	mv	a1,s8
800066e4:	ff450513          	addi	a0,a0,-12 # 8000aff4 <start+0x374>
800066e8:	508040ef          	jal	8000abf0 <kprintf>
800066ec:	00098513          	mv	a0,s3
800066f0:	ba5f90ef          	jal	80000294 <restore>
800066f4:	fff00b93          	li	s7,-1
800066f8:	02c12083          	lw	ra,44(sp)
800066fc:	02812403          	lw	s0,40(sp)
80006700:	02412483          	lw	s1,36(sp)
80006704:	02012903          	lw	s2,32(sp)
80006708:	01c12983          	lw	s3,28(sp)
8000670c:	01812a03          	lw	s4,24(sp)
80006710:	01412a83          	lw	s5,20(sp)
80006714:	01012b03          	lw	s6,16(sp)
80006718:	00812c03          	lw	s8,8(sp)
8000671c:	000b8513          	mv	a0,s7
80006720:	00c12b83          	lw	s7,12(sp)
80006724:	03010113          	addi	sp,sp,48
80006728:	00008067          	ret
8000672c:	8005f737          	lui	a4,0x8005f
80006730:	03c72783          	lw	a5,60(a4) # 8005f03c <prcount>
80006734:	00050913          	mv	s2,a0
80006738:	00178793          	addi	a5,a5,1
8000673c:	02f72e23          	sw	a5,60(a4)
80006740:	ef5ff0ef          	jal	80006634 <newpid>
80006744:	00050b93          	mv	s7,a0
80006748:	02851063          	bne	a0,s0,80006768 <createFromShell+0xec>
8000674c:	8000b537          	lui	a0,0x8000b
80006750:	000c0593          	mv	a1,s8
80006754:	00850513          	addi	a0,a0,8 # 8000b008 <start+0x388>
80006758:	498040ef          	jal	8000abf0 <kprintf>
8000675c:	00090513          	mv	a0,s2
80006760:	b9cfc0ef          	jal	80002afc <free>
80006764:	f89ff06f          	j	800066ec <createFromShell+0x70>
80006768:	06400793          	li	a5,100
8000676c:	02f507b3          	mul	a5,a0,a5
80006770:	8000e437          	lui	s0,0x8000e
80006774:	a6040613          	addi	a2,s0,-1440 # 8000da60 <proctab>
80006778:	01300693          	li	a3,19
8000677c:	a6040413          	addi	s0,s0,-1440
80006780:	00f60633          	add	a2,a2,a5
80006784:	02060c23          	sb	zero,56(a2)
80006788:	02060823          	sb	zero,48(a2)
8000678c:	8005f7b7          	lui	a5,0x8005f
80006790:	0387a783          	lw	a5,56(a5) # 8005f038 <currpid>
80006794:	01262423          	sw	s2,8(a2)
80006798:	00962623          	sw	s1,12(a2)
8000679c:	02f62423          	sw	a5,40(a2)
800067a0:	00500793          	li	a5,5
800067a4:	00f61023          	sh	a5,0(a2)
800067a8:	020601a3          	sb	zero,35(a2)
800067ac:	00000793          	li	a5,0
800067b0:	00fc0733          	add	a4,s8,a5
800067b4:	00074703          	lbu	a4,0(a4)
800067b8:	00e60823          	sb	a4,16(a2)
800067bc:	00070863          	beqz	a4,800067cc <createFromShell+0x150>
800067c0:	00178793          	addi	a5,a5,1
800067c4:	00160613          	addi	a2,a2,1
800067c8:	fed794e3          	bne	a5,a3,800067b0 <createFromShell+0x134>
800067cc:	06400793          	li	a5,100
800067d0:	02fb87b3          	mul	a5,s7,a5
800067d4:	80007637          	lui	a2,0x80007
800067d8:	000b0713          	mv	a4,s6
800067dc:	000a8693          	mv	a3,s5
800067e0:	e5c60613          	addi	a2,a2,-420 # 80006e5c <userret>
800067e4:	000a0593          	mv	a1,s4
800067e8:	00090513          	mv	a0,s2
800067ec:	00f40433          	add	s0,s0,a5
800067f0:	02041923          	sh	zero,50(s0)
800067f4:	02042a23          	sw	zero,52(s0)
800067f8:	685010ef          	jal	8000867c <setupStackFromShell>
800067fc:	00a42223          	sw	a0,4(s0)
80006800:	00098513          	mv	a0,s3
80006804:	a91f90ef          	jal	80000294 <restore>
80006808:	ef1ff06f          	j	800066f8 <createFromShell+0x7c>

8000680c <create>:
8000680c:	fb010113          	addi	sp,sp,-80
80006810:	03612023          	sw	s6,32(sp)
80006814:	00058b13          	mv	s6,a1
80006818:	003b0b13          	addi	s6,s6,3
8000681c:	02112e23          	sw	ra,60(sp)
80006820:	02912a23          	sw	s1,52(sp)
80006824:	03312623          	sw	s3,44(sp)
80006828:	03412423          	sw	s4,40(sp)
8000682c:	03512223          	sw	s5,36(sp)
80006830:	00d12623          	sw	a3,12(sp)
80006834:	00070a93          	mv	s5,a4
80006838:	04f12223          	sw	a5,68(sp)
8000683c:	05012423          	sw	a6,72(sp)
80006840:	05112623          	sw	a7,76(sp)
80006844:	02812c23          	sw	s0,56(sp)
80006848:	03212823          	sw	s2,48(sp)
8000684c:	00050a13          	mv	s4,a0
80006850:	ffcb7b13          	andi	s6,s6,-4
80006854:	a39f90ef          	jal	8000028c <disable>
80006858:	00050993          	mv	s3,a0
8000685c:	000b0513          	mv	a0,s6
80006860:	97cfc0ef          	jal	800029dc <getstk>
80006864:	fff00493          	li	s1,-1
80006868:	00c12583          	lw	a1,12(sp)
8000686c:	04951463          	bne	a0,s1,800068b4 <create+0xa8>
80006870:	8000b537          	lui	a0,0x8000b
80006874:	ff450513          	addi	a0,a0,-12 # 8000aff4 <start+0x374>
80006878:	378040ef          	jal	8000abf0 <kprintf>
8000687c:	00098513          	mv	a0,s3
80006880:	a15f90ef          	jal	80000294 <restore>
80006884:	fff00413          	li	s0,-1
80006888:	03c12083          	lw	ra,60(sp)
8000688c:	00040513          	mv	a0,s0
80006890:	03812403          	lw	s0,56(sp)
80006894:	03412483          	lw	s1,52(sp)
80006898:	03012903          	lw	s2,48(sp)
8000689c:	02c12983          	lw	s3,44(sp)
800068a0:	02812a03          	lw	s4,40(sp)
800068a4:	02412a83          	lw	s5,36(sp)
800068a8:	02012b03          	lw	s6,32(sp)
800068ac:	05010113          	addi	sp,sp,80
800068b0:	00008067          	ret
800068b4:	8005f737          	lui	a4,0x8005f
800068b8:	03c72783          	lw	a5,60(a4) # 8005f03c <prcount>
800068bc:	00b12623          	sw	a1,12(sp)
800068c0:	00050913          	mv	s2,a0
800068c4:	00178793          	addi	a5,a5,1
800068c8:	02f72e23          	sw	a5,60(a4)
800068cc:	d69ff0ef          	jal	80006634 <newpid>
800068d0:	00c12583          	lw	a1,12(sp)
800068d4:	00050413          	mv	s0,a0
800068d8:	00951e63          	bne	a0,s1,800068f4 <create+0xe8>
800068dc:	8000b537          	lui	a0,0x8000b
800068e0:	00850513          	addi	a0,a0,8 # 8000b008 <start+0x388>
800068e4:	30c040ef          	jal	8000abf0 <kprintf>
800068e8:	00090513          	mv	a0,s2
800068ec:	a10fc0ef          	jal	80002afc <free>
800068f0:	f8dff06f          	j	8000687c <create+0x70>
800068f4:	06400613          	li	a2,100
800068f8:	02c50633          	mul	a2,a0,a2
800068fc:	8000e4b7          	lui	s1,0x8000e
80006900:	a6048793          	addi	a5,s1,-1440 # 8000da60 <proctab>
80006904:	8005f737          	lui	a4,0x8005f
80006908:	a6048493          	addi	s1,s1,-1440
8000690c:	01300813          	li	a6,19
80006910:	00c787b3          	add	a5,a5,a2
80006914:	02078c23          	sb	zero,56(a5)
80006918:	02078823          	sb	zero,48(a5)
8000691c:	03872703          	lw	a4,56(a4) # 8005f038 <currpid>
80006920:	00078693          	mv	a3,a5
80006924:	0127a423          	sw	s2,8(a5)
80006928:	02e7a423          	sw	a4,40(a5)
8000692c:	00500713          	li	a4,5
80006930:	00e79023          	sh	a4,0(a5)
80006934:	0167a623          	sw	s6,12(a5)
80006938:	020781a3          	sb	zero,35(a5)
8000693c:	00000713          	li	a4,0
80006940:	00e58533          	add	a0,a1,a4
80006944:	00054503          	lbu	a0,0(a0)
80006948:	00a68823          	sb	a0,16(a3)
8000694c:	00050863          	beqz	a0,8000695c <create+0x150>
80006950:	00170713          	addi	a4,a4,1
80006954:	00168693          	addi	a3,a3,1
80006958:	ff0714e3          	bne	a4,a6,80006940 <create+0x134>
8000695c:	06400693          	li	a3,100
80006960:	02d406b3          	mul	a3,s0,a3
80006964:	04410593          	addi	a1,sp,68
80006968:	00d486b3          	add	a3,s1,a3
8000696c:	02069923          	sh	zero,50(a3)
80006970:	0206aa23          	sw	zero,52(a3)
80006974:	00b12e23          	sw	a1,28(sp)
80006978:	00000693          	li	a3,0
8000697c:	00478793          	addi	a5,a5,4
80006980:	03569e63          	bne	a3,s5,800069bc <create+0x1b0>
80006984:	04460713          	addi	a4,a2,68
80006988:	80007637          	lui	a2,0x80007
8000698c:	00e48733          	add	a4,s1,a4
80006990:	e5c60613          	addi	a2,a2,-420 # 80006e5c <userret>
80006994:	000a0593          	mv	a1,s4
80006998:	00090513          	mv	a0,s2
8000699c:	4e1010ef          	jal	8000867c <setupStackFromShell>
800069a0:	06400793          	li	a5,100
800069a4:	02f407b3          	mul	a5,s0,a5
800069a8:	00f484b3          	add	s1,s1,a5
800069ac:	00a4a223          	sw	a0,4(s1)
800069b0:	00098513          	mv	a0,s3
800069b4:	8e1f90ef          	jal	80000294 <restore>
800069b8:	ed1ff06f          	j	80006888 <create+0x7c>
800069bc:	00269713          	slli	a4,a3,0x2
800069c0:	00e58733          	add	a4,a1,a4
800069c4:	00072703          	lw	a4,0(a4)
800069c8:	00168693          	addi	a3,a3,1
800069cc:	04e7a023          	sw	a4,64(a5)
800069d0:	fadff06f          	j	8000697c <create+0x170>

800069d4 <getpid>:
800069d4:	8005f7b7          	lui	a5,0x8005f
800069d8:	0387a503          	lw	a0,56(a5) # 8005f038 <currpid>
800069dc:	00008067          	ret

800069e0 <chprio>:
800069e0:	ff010113          	addi	sp,sp,-16
800069e4:	00812423          	sw	s0,8(sp)
800069e8:	00912223          	sw	s1,4(sp)
800069ec:	00112623          	sw	ra,12(sp)
800069f0:	00050413          	mv	s0,a0
800069f4:	00058493          	mv	s1,a1
800069f8:	895f90ef          	jal	8000028c <disable>
800069fc:	00700793          	li	a5,7
80006a00:	00050713          	mv	a4,a0
80006a04:	0287e063          	bltu	a5,s0,80006a24 <chprio+0x44>
80006a08:	06400693          	li	a3,100
80006a0c:	02d40433          	mul	s0,s0,a3
80006a10:	8000e7b7          	lui	a5,0x8000e
80006a14:	a6078793          	addi	a5,a5,-1440 # 8000da60 <proctab>
80006a18:	008787b3          	add	a5,a5,s0
80006a1c:	0007d683          	lhu	a3,0(a5)
80006a20:	02069463          	bnez	a3,80006a48 <chprio+0x68>
80006a24:	00070513          	mv	a0,a4
80006a28:	86df90ef          	jal	80000294 <restore>
80006a2c:	fff00413          	li	s0,-1
80006a30:	00c12083          	lw	ra,12(sp)
80006a34:	00040513          	mv	a0,s0
80006a38:	00812403          	lw	s0,8(sp)
80006a3c:	00412483          	lw	s1,4(sp)
80006a40:	01010113          	addi	sp,sp,16
80006a44:	00008067          	ret
80006a48:	00279403          	lh	s0,2(a5)
80006a4c:	00979123          	sh	s1,2(a5)
80006a50:	845f90ef          	jal	80000294 <restore>
80006a54:	fddff06f          	j	80006a30 <chprio+0x50>

80006a58 <getprio>:
80006a58:	ff010113          	addi	sp,sp,-16
80006a5c:	00812423          	sw	s0,8(sp)
80006a60:	00112623          	sw	ra,12(sp)
80006a64:	00050413          	mv	s0,a0
80006a68:	825f90ef          	jal	8000028c <disable>
80006a6c:	00700793          	li	a5,7
80006a70:	00050713          	mv	a4,a0
80006a74:	0287e063          	bltu	a5,s0,80006a94 <getprio+0x3c>
80006a78:	06400693          	li	a3,100
80006a7c:	02d40433          	mul	s0,s0,a3
80006a80:	8000e7b7          	lui	a5,0x8000e
80006a84:	a6078793          	addi	a5,a5,-1440 # 8000da60 <proctab>
80006a88:	008787b3          	add	a5,a5,s0
80006a8c:	0007d683          	lhu	a3,0(a5)
80006a90:	02069063          	bnez	a3,80006ab0 <getprio+0x58>
80006a94:	00070513          	mv	a0,a4
80006a98:	ffcf90ef          	jal	80000294 <restore>
80006a9c:	fff00513          	li	a0,-1
80006aa0:	00c12083          	lw	ra,12(sp)
80006aa4:	00812403          	lw	s0,8(sp)
80006aa8:	01010113          	addi	sp,sp,16
80006aac:	00008067          	ret
80006ab0:	00279403          	lh	s0,2(a5)
80006ab4:	fe0f90ef          	jal	80000294 <restore>
80006ab8:	00040513          	mv	a0,s0
80006abc:	fe5ff06f          	j	80006aa0 <getprio+0x48>

80006ac0 <yield>:
80006ac0:	ff010113          	addi	sp,sp,-16
80006ac4:	03d00513          	li	a0,61
80006ac8:	00112623          	sw	ra,12(sp)
80006acc:	581060ef          	jal	8000d84c <__syscall>
80006ad0:	00c12083          	lw	ra,12(sp)
80006ad4:	00100513          	li	a0,1
80006ad8:	01010113          	addi	sp,sp,16
80006adc:	00008067          	ret

80006ae0 <unsleep>:
80006ae0:	ff010113          	addi	sp,sp,-16
80006ae4:	00812423          	sw	s0,8(sp)
80006ae8:	00912223          	sw	s1,4(sp)
80006aec:	00112623          	sw	ra,12(sp)
80006af0:	00050413          	mv	s0,a0
80006af4:	f98f90ef          	jal	8000028c <disable>
80006af8:	00700693          	li	a3,7
80006afc:	00050493          	mv	s1,a0
80006b00:	0286e063          	bltu	a3,s0,80006b20 <unsleep+0x40>
80006b04:	06400713          	li	a4,100
80006b08:	02e40733          	mul	a4,s0,a4
80006b0c:	8000e7b7          	lui	a5,0x8000e
80006b10:	a6078793          	addi	a5,a5,-1440 # 8000da60 <proctab>
80006b14:	00e787b3          	add	a5,a5,a4
80006b18:	0007d783          	lhu	a5,0(a5)
80006b1c:	02079263          	bnez	a5,80006b40 <unsleep+0x60>
80006b20:	00048513          	mv	a0,s1
80006b24:	f70f90ef          	jal	80000294 <restore>
80006b28:	fff00513          	li	a0,-1
80006b2c:	00c12083          	lw	ra,12(sp)
80006b30:	00812403          	lw	s0,8(sp)
80006b34:	00412483          	lw	s1,4(sp)
80006b38:	01010113          	addi	sp,sp,16
80006b3c:	00008067          	ret
80006b40:	00400713          	li	a4,4
80006b44:	00e78463          	beq	a5,a4,80006b4c <unsleep+0x6c>
80006b48:	fcd79ee3          	bne	a5,a3,80006b24 <unsleep+0x44>
80006b4c:	8000e7b7          	lui	a5,0x8000e
80006b50:	de078793          	addi	a5,a5,-544 # 8000dde0 <queuetab>
80006b54:	00341713          	slli	a4,s0,0x3
80006b58:	00e78733          	add	a4,a5,a4
80006b5c:	00471683          	lh	a3,4(a4)
80006b60:	00700613          	li	a2,7
80006b64:	00d64e63          	blt	a2,a3,80006b80 <unsleep+0xa0>
80006b68:	00369693          	slli	a3,a3,0x3
80006b6c:	00d787b3          	add	a5,a5,a3
80006b70:	0007a683          	lw	a3,0(a5)
80006b74:	00072703          	lw	a4,0(a4)
80006b78:	00e68733          	add	a4,a3,a4
80006b7c:	00e7a023          	sw	a4,0(a5)
80006b80:	00040513          	mv	a0,s0
80006b84:	4e4010ef          	jal	80008068 <getitem>
80006b88:	00048513          	mv	a0,s1
80006b8c:	f08f90ef          	jal	80000294 <restore>
80006b90:	00100513          	li	a0,1
80006b94:	f99ff06f          	j	80006b2c <unsleep+0x4c>

80006b98 <resched>:
80006b98:	8005f7b7          	lui	a5,0x8005f
80006b9c:	03078793          	addi	a5,a5,48 # 8005f030 <Defer>
80006ba0:	0007a703          	lw	a4,0(a5)
80006ba4:	00e05863          	blez	a4,80006bb4 <resched+0x1c>
80006ba8:	00100713          	li	a4,1
80006bac:	00e78223          	sb	a4,4(a5)
80006bb0:	00008067          	ret
80006bb4:	fe010113          	addi	sp,sp,-32
80006bb8:	01212823          	sw	s2,16(sp)
80006bbc:	8005f937          	lui	s2,0x8005f
80006bc0:	00812c23          	sw	s0,24(sp)
80006bc4:	03892403          	lw	s0,56(s2) # 8005f038 <currpid>
80006bc8:	06400793          	li	a5,100
80006bcc:	00912a23          	sw	s1,20(sp)
80006bd0:	02f407b3          	mul	a5,s0,a5
80006bd4:	8000e4b7          	lui	s1,0x8000e
80006bd8:	a6048693          	addi	a3,s1,-1440 # 8000da60 <proctab>
80006bdc:	01312623          	sw	s3,12(sp)
80006be0:	00112e23          	sw	ra,28(sp)
80006be4:	8005f9b7          	lui	s3,0x8005f
80006be8:	02c99583          	lh	a1,44(s3) # 8005f02c <readylist>
80006bec:	a6048493          	addi	s1,s1,-1440
80006bf0:	00f686b3          	add	a3,a3,a5
80006bf4:	0006d703          	lhu	a4,0(a3)
80006bf8:	00100793          	li	a5,1
80006bfc:	04f71a63          	bne	a4,a5,80006c50 <resched+0xb8>
80006c00:	8000e7b7          	lui	a5,0x8000e
80006c04:	de078793          	addi	a5,a5,-544 # 8000dde0 <queuetab>
80006c08:	00359713          	slli	a4,a1,0x3
80006c0c:	00e78733          	add	a4,a5,a4
80006c10:	00471703          	lh	a4,4(a4)
80006c14:	00700613          	li	a2,7
80006c18:	00e64c63          	blt	a2,a4,80006c30 <resched+0x98>
80006c1c:	00371713          	slli	a4,a4,0x3
80006c20:	00e787b3          	add	a5,a5,a4
80006c24:	00269683          	lh	a3,2(a3)
80006c28:	0007a783          	lw	a5,0(a5)
80006c2c:	08d7c263          	blt	a5,a3,80006cb0 <resched+0x118>
80006c30:	06400793          	li	a5,100
80006c34:	02f407b3          	mul	a5,s0,a5
80006c38:	00200713          	li	a4,2
80006c3c:	00040513          	mv	a0,s0
80006c40:	00f487b3          	add	a5,s1,a5
80006c44:	00279603          	lh	a2,2(a5)
80006c48:	00e79023          	sh	a4,0(a5)
80006c4c:	528010ef          	jal	80008174 <insert>
80006c50:	02c99503          	lh	a0,44(s3)
80006c54:	470010ef          	jal	800080c4 <dequeue>
80006c58:	06400793          	li	a5,100
80006c5c:	02f40433          	mul	s0,s0,a5
80006c60:	02a92c23          	sw	a0,56(s2)
80006c64:	00100693          	li	a3,1
80006c68:	0ff57613          	zext.b	a2,a0
80006c6c:	01c12083          	lw	ra,28(sp)
80006c70:	01012903          	lw	s2,16(sp)
80006c74:	00c12983          	lw	s3,12(sp)
80006c78:	02f505b3          	mul	a1,a0,a5
80006c7c:	00440413          	addi	s0,s0,4
80006c80:	00848533          	add	a0,s1,s0
80006c84:	01812403          	lw	s0,24(sp)
80006c88:	00b48733          	add	a4,s1,a1
80006c8c:	00458593          	addi	a1,a1,4
80006c90:	00d71023          	sh	a3,0(a4)
80006c94:	00b485b3          	add	a1,s1,a1
80006c98:	8005f737          	lui	a4,0x8005f
80006c9c:	01412483          	lw	s1,20(sp)
80006ca0:	02800693          	li	a3,40
80006ca4:	00d72c23          	sw	a3,24(a4) # 8005f018 <preempt>
80006ca8:	02010113          	addi	sp,sp,32
80006cac:	cf0f906f          	j	8000019c <ctxsw>
80006cb0:	01c12083          	lw	ra,28(sp)
80006cb4:	01812403          	lw	s0,24(sp)
80006cb8:	01412483          	lw	s1,20(sp)
80006cbc:	01012903          	lw	s2,16(sp)
80006cc0:	00c12983          	lw	s3,12(sp)
80006cc4:	02010113          	addi	sp,sp,32
80006cc8:	00008067          	ret

80006ccc <kill>:
80006ccc:	fe010113          	addi	sp,sp,-32
80006cd0:	00812c23          	sw	s0,24(sp)
80006cd4:	01312623          	sw	s3,12(sp)
80006cd8:	00112e23          	sw	ra,28(sp)
80006cdc:	00912a23          	sw	s1,20(sp)
80006ce0:	01212823          	sw	s2,16(sp)
80006ce4:	00050413          	mv	s0,a0
80006ce8:	da4f90ef          	jal	8000028c <disable>
80006cec:	00700793          	li	a5,7
80006cf0:	00050993          	mv	s3,a0
80006cf4:	0c87e463          	bltu	a5,s0,80006dbc <kill+0xf0>
80006cf8:	06400713          	li	a4,100
80006cfc:	02e40733          	mul	a4,s0,a4
80006d00:	8000e4b7          	lui	s1,0x8000e
80006d04:	a6048793          	addi	a5,s1,-1440 # 8000da60 <proctab>
80006d08:	a6048493          	addi	s1,s1,-1440
80006d0c:	00e787b3          	add	a5,a5,a4
80006d10:	0007d783          	lhu	a5,0(a5)
80006d14:	0a078463          	beqz	a5,80006dbc <kill+0xf0>
80006d18:	0a040263          	beqz	s0,80006dbc <kill+0xf0>
80006d1c:	8005f737          	lui	a4,0x8005f
80006d20:	03c72783          	lw	a5,60(a4) # 8005f03c <prcount>
80006d24:	fff78793          	addi	a5,a5,-1
80006d28:	02f72e23          	sw	a5,60(a4)
80006d2c:	00100713          	li	a4,1
80006d30:	00f74463          	blt	a4,a5,80006d38 <kill+0x6c>
80006d34:	481010ef          	jal	800089b4 <xdone>
80006d38:	06400913          	li	s2,100
80006d3c:	03240933          	mul	s2,s0,s2
80006d40:	00040593          	mv	a1,s0
80006d44:	01248933          	add	s2,s1,s2
80006d48:	02892503          	lw	a0,40(s2)
80006d4c:	1b4010ef          	jal	80007f00 <send>
80006d50:	00c92583          	lw	a1,12(s2)
80006d54:	00892503          	lw	a0,8(s2)
80006d58:	00758593          	addi	a1,a1,7
80006d5c:	ff85f593          	andi	a1,a1,-8
80006d60:	00450513          	addi	a0,a0,4
80006d64:	40b50533          	sub	a0,a0,a1
80006d68:	ac5fb0ef          	jal	8000282c <freemem>
80006d6c:	03894703          	lbu	a4,56(s2)
80006d70:	00100793          	li	a5,1
80006d74:	00f71663          	bne	a4,a5,80006d80 <kill+0xb4>
80006d78:	03c92503          	lw	a0,60(s2)
80006d7c:	d81fb0ef          	jal	80002afc <free>
80006d80:	06400793          	li	a5,100
80006d84:	02f407b3          	mul	a5,s0,a5
80006d88:	00600713          	li	a4,6
80006d8c:	00f487b3          	add	a5,s1,a5
80006d90:	0007d783          	lhu	a5,0(a5)
80006d94:	fff78793          	addi	a5,a5,-1
80006d98:	01079793          	slli	a5,a5,0x10
80006d9c:	0107d793          	srli	a5,a5,0x10
80006da0:	06f76063          	bltu	a4,a5,80006e00 <kill+0x134>
80006da4:	8000c737          	lui	a4,0x8000c
80006da8:	00279793          	slli	a5,a5,0x2
80006dac:	59870713          	addi	a4,a4,1432 # 8000c598 <a+0x10>
80006db0:	00e787b3          	add	a5,a5,a4
80006db4:	0007a783          	lw	a5,0(a5)
80006db8:	00078067          	jr	a5
80006dbc:	00098513          	mv	a0,s3
80006dc0:	cd4f90ef          	jal	80000294 <restore>
80006dc4:	fff00513          	li	a0,-1
80006dc8:	01c12083          	lw	ra,28(sp)
80006dcc:	01812403          	lw	s0,24(sp)
80006dd0:	01412483          	lw	s1,20(sp)
80006dd4:	01012903          	lw	s2,16(sp)
80006dd8:	00c12983          	lw	s3,12(sp)
80006ddc:	02010113          	addi	sp,sp,32
80006de0:	00008067          	ret
80006de4:	06400793          	li	a5,100
80006de8:	02f407b3          	mul	a5,s0,a5
80006dec:	00f487b3          	add	a5,s1,a5
80006df0:	00079023          	sh	zero,0(a5)
80006df4:	da5ff0ef          	jal	80006b98 <resched>
80006df8:	00040513          	mv	a0,s0
80006dfc:	ce5ff0ef          	jal	80006ae0 <unsleep>
80006e00:	06400793          	li	a5,100
80006e04:	02f40433          	mul	s0,s0,a5
80006e08:	00098513          	mv	a0,s3
80006e0c:	008484b3          	add	s1,s1,s0
80006e10:	00049023          	sh	zero,0(s1)
80006e14:	c80f90ef          	jal	80000294 <restore>
80006e18:	00100513          	li	a0,1
80006e1c:	fadff06f          	j	80006dc8 <kill+0xfc>
80006e20:	06400793          	li	a5,100
80006e24:	02f407b3          	mul	a5,s0,a5
80006e28:	00c00693          	li	a3,12
80006e2c:	00f487b3          	add	a5,s1,a5
80006e30:	0247a703          	lw	a4,36(a5)
80006e34:	8000e7b7          	lui	a5,0x8000e
80006e38:	d8078793          	addi	a5,a5,-640 # 8000dd80 <semtab>
80006e3c:	02d70733          	mul	a4,a4,a3
80006e40:	00e787b3          	add	a5,a5,a4
80006e44:	0047a703          	lw	a4,4(a5)
80006e48:	00170713          	addi	a4,a4,1
80006e4c:	00e7a223          	sw	a4,4(a5)
80006e50:	00040513          	mv	a0,s0
80006e54:	214010ef          	jal	80008068 <getitem>
80006e58:	fa9ff06f          	j	80006e00 <kill+0x134>

80006e5c <userret>:
80006e5c:	8005f7b7          	lui	a5,0x8005f
80006e60:	0387a503          	lw	a0,56(a5) # 8005f038 <currpid>
80006e64:	e69ff06f          	j	80006ccc <kill>

80006e68 <wait>:
80006e68:	ff010113          	addi	sp,sp,-16
80006e6c:	00812423          	sw	s0,8(sp)
80006e70:	00112623          	sw	ra,12(sp)
80006e74:	00912223          	sw	s1,4(sp)
80006e78:	00050413          	mv	s0,a0
80006e7c:	c10f90ef          	jal	8000028c <disable>
80006e80:	00700793          	li	a5,7
80006e84:	0287f063          	bgeu	a5,s0,80006ea4 <wait+0x3c>
80006e88:	c0cf90ef          	jal	80000294 <restore>
80006e8c:	fff00513          	li	a0,-1
80006e90:	00c12083          	lw	ra,12(sp)
80006e94:	00812403          	lw	s0,8(sp)
80006e98:	00412483          	lw	s1,4(sp)
80006e9c:	01010113          	addi	sp,sp,16
80006ea0:	00008067          	ret
80006ea4:	00c00713          	li	a4,12
80006ea8:	02e40733          	mul	a4,s0,a4
80006eac:	8000e7b7          	lui	a5,0x8000e
80006eb0:	d8078793          	addi	a5,a5,-640 # 8000dd80 <semtab>
80006eb4:	00e787b3          	add	a5,a5,a4
80006eb8:	0007c703          	lbu	a4,0(a5)
80006ebc:	fc0706e3          	beqz	a4,80006e88 <wait+0x20>
80006ec0:	0047a703          	lw	a4,4(a5)
80006ec4:	00050493          	mv	s1,a0
80006ec8:	fff70713          	addi	a4,a4,-1
80006ecc:	00e7a223          	sw	a4,4(a5)
80006ed0:	02075c63          	bgez	a4,80006f08 <wait+0xa0>
80006ed4:	8005f737          	lui	a4,0x8005f
80006ed8:	03872503          	lw	a0,56(a4) # 8005f038 <currpid>
80006edc:	06400693          	li	a3,100
80006ee0:	8000e737          	lui	a4,0x8000e
80006ee4:	02d506b3          	mul	a3,a0,a3
80006ee8:	00879583          	lh	a1,8(a5)
80006eec:	a6070713          	addi	a4,a4,-1440 # 8000da60 <proctab>
80006ef0:	00d70733          	add	a4,a4,a3
80006ef4:	00600693          	li	a3,6
80006ef8:	00d71023          	sh	a3,0(a4)
80006efc:	02872223          	sw	s0,36(a4)
80006f00:	0d4010ef          	jal	80007fd4 <enqueue>
80006f04:	c95ff0ef          	jal	80006b98 <resched>
80006f08:	00048513          	mv	a0,s1
80006f0c:	b88f90ef          	jal	80000294 <restore>
80006f10:	00100513          	li	a0,1
80006f14:	f7dff06f          	j	80006e90 <wait+0x28>

80006f18 <suspend>:
80006f18:	fe010113          	addi	sp,sp,-32
80006f1c:	00812c23          	sw	s0,24(sp)
80006f20:	01212823          	sw	s2,16(sp)
80006f24:	00112e23          	sw	ra,28(sp)
80006f28:	00912a23          	sw	s1,20(sp)
80006f2c:	01312623          	sw	s3,12(sp)
80006f30:	00050413          	mv	s0,a0
80006f34:	b58f90ef          	jal	8000028c <disable>
80006f38:	00700793          	li	a5,7
80006f3c:	00050913          	mv	s2,a0
80006f40:	0287e463          	bltu	a5,s0,80006f68 <suspend+0x50>
80006f44:	06400713          	li	a4,100
80006f48:	02e40733          	mul	a4,s0,a4
80006f4c:	8000e7b7          	lui	a5,0x8000e
80006f50:	a6078493          	addi	s1,a5,-1440 # 8000da60 <proctab>
80006f54:	a6078993          	addi	s3,a5,-1440
80006f58:	00e484b3          	add	s1,s1,a4
80006f5c:	0004d703          	lhu	a4,0(s1)
80006f60:	00070463          	beqz	a4,80006f68 <suspend+0x50>
80006f64:	02041663          	bnez	s0,80006f90 <suspend+0x78>
80006f68:	00090513          	mv	a0,s2
80006f6c:	b28f90ef          	jal	80000294 <restore>
80006f70:	fff00513          	li	a0,-1
80006f74:	01c12083          	lw	ra,28(sp)
80006f78:	01812403          	lw	s0,24(sp)
80006f7c:	01412483          	lw	s1,20(sp)
80006f80:	01012903          	lw	s2,16(sp)
80006f84:	00c12983          	lw	s3,12(sp)
80006f88:	02010113          	addi	sp,sp,32
80006f8c:	00008067          	ret
80006f90:	fff70793          	addi	a5,a4,-1
80006f94:	01079793          	slli	a5,a5,0x10
80006f98:	0107d793          	srli	a5,a5,0x10
80006f9c:	00100693          	li	a3,1
80006fa0:	fcf6e6e3          	bltu	a3,a5,80006f6c <suspend+0x54>
80006fa4:	00200793          	li	a5,2
80006fa8:	02f71a63          	bne	a4,a5,80006fdc <suspend+0xc4>
80006fac:	00040513          	mv	a0,s0
80006fb0:	0b8010ef          	jal	80008068 <getitem>
80006fb4:	00500793          	li	a5,5
80006fb8:	00f49023          	sh	a5,0(s1)
80006fbc:	06400793          	li	a5,100
80006fc0:	02f40433          	mul	s0,s0,a5
80006fc4:	00090513          	mv	a0,s2
80006fc8:	008987b3          	add	a5,s3,s0
80006fcc:	00279403          	lh	s0,2(a5)
80006fd0:	ac4f90ef          	jal	80000294 <restore>
80006fd4:	00040513          	mv	a0,s0
80006fd8:	f9dff06f          	j	80006f74 <suspend+0x5c>
80006fdc:	00500793          	li	a5,5
80006fe0:	00f49023          	sh	a5,0(s1)
80006fe4:	bb5ff0ef          	jal	80006b98 <resched>
80006fe8:	fd5ff06f          	j	80006fbc <suspend+0xa4>

80006fec <sleepms>:
80006fec:	0a054063          	bltz	a0,8000708c <sleepms+0xa0>
80006ff0:	fe010113          	addi	sp,sp,-32
80006ff4:	00112e23          	sw	ra,28(sp)
80006ff8:	00812c23          	sw	s0,24(sp)
80006ffc:	00912a23          	sw	s1,20(sp)
80007000:	00051863          	bnez	a0,80007010 <sleepms+0x24>
80007004:	abdff0ef          	jal	80006ac0 <yield>
80007008:	00100513          	li	a0,1
8000700c:	03c0006f          	j	80007048 <sleepms+0x5c>
80007010:	00a12623          	sw	a0,12(sp)
80007014:	a78f90ef          	jal	8000028c <disable>
80007018:	8005f7b7          	lui	a5,0x8005f
8000701c:	8005f4b7          	lui	s1,0x8005f
80007020:	01c79583          	lh	a1,28(a5) # 8005f01c <sleepq>
80007024:	00c12603          	lw	a2,12(sp)
80007028:	00050413          	mv	s0,a0
8000702c:	0384a503          	lw	a0,56(s1) # 8005f038 <currpid>
80007030:	1f4010ef          	jal	80008224 <insertd>
80007034:	fff00793          	li	a5,-1
80007038:	02f51263          	bne	a0,a5,8000705c <sleepms+0x70>
8000703c:	00040513          	mv	a0,s0
80007040:	a54f90ef          	jal	80000294 <restore>
80007044:	fff00513          	li	a0,-1
80007048:	01c12083          	lw	ra,28(sp)
8000704c:	01812403          	lw	s0,24(sp)
80007050:	01412483          	lw	s1,20(sp)
80007054:	02010113          	addi	sp,sp,32
80007058:	00008067          	ret
8000705c:	0384a703          	lw	a4,56(s1)
80007060:	06400693          	li	a3,100
80007064:	8000e7b7          	lui	a5,0x8000e
80007068:	02d70733          	mul	a4,a4,a3
8000706c:	a6078793          	addi	a5,a5,-1440 # 8000da60 <proctab>
80007070:	00e787b3          	add	a5,a5,a4
80007074:	00400713          	li	a4,4
80007078:	00e79023          	sh	a4,0(a5)
8000707c:	b1dff0ef          	jal	80006b98 <resched>
80007080:	00040513          	mv	a0,s0
80007084:	a10f90ef          	jal	80000294 <restore>
80007088:	f81ff06f          	j	80007008 <sleepms+0x1c>
8000708c:	fff00513          	li	a0,-1
80007090:	00008067          	ret

80007094 <sleep>:
80007094:	0020c7b7          	lui	a5,0x20c
80007098:	49b78793          	addi	a5,a5,1179 # 20c49b <_start-0x7fdf3b65>
8000709c:	02a7e463          	bltu	a5,a0,800070c4 <sleep+0x30>
800070a0:	3e800793          	li	a5,1000
800070a4:	02f50533          	mul	a0,a0,a5
800070a8:	ff010113          	addi	sp,sp,-16
800070ac:	00112623          	sw	ra,12(sp)
800070b0:	f3dff0ef          	jal	80006fec <sleepms>
800070b4:	00c12083          	lw	ra,12(sp)
800070b8:	00100513          	li	a0,1
800070bc:	01010113          	addi	sp,sp,16
800070c0:	00008067          	ret
800070c4:	fff00513          	li	a0,-1
800070c8:	00008067          	ret

800070cc <resched_cntl>:
800070cc:	00100793          	li	a5,1
800070d0:	00f50a63          	beq	a0,a5,800070e4 <resched_cntl+0x18>
800070d4:	00200793          	li	a5,2
800070d8:	02f50863          	beq	a0,a5,80007108 <resched_cntl+0x3c>
800070dc:	fff00513          	li	a0,-1
800070e0:	00008067          	ret
800070e4:	8005f7b7          	lui	a5,0x8005f
800070e8:	03078793          	addi	a5,a5,48 # 8005f030 <Defer>
800070ec:	0007a703          	lw	a4,0(a5)
800070f0:	00170693          	addi	a3,a4,1
800070f4:	00d7a023          	sw	a3,0(a5)
800070f8:	00071463          	bnez	a4,80007100 <resched_cntl+0x34>
800070fc:	00078223          	sb	zero,4(a5)
80007100:	00100513          	li	a0,1
80007104:	00008067          	ret
80007108:	8005f7b7          	lui	a5,0x8005f
8000710c:	03078793          	addi	a5,a5,48 # 8005f030 <Defer>
80007110:	0007a703          	lw	a4,0(a5)
80007114:	fff00513          	li	a0,-1
80007118:	02e05a63          	blez	a4,8000714c <resched_cntl+0x80>
8000711c:	fff70713          	addi	a4,a4,-1
80007120:	00e7a023          	sw	a4,0(a5)
80007124:	fc071ee3          	bnez	a4,80007100 <resched_cntl+0x34>
80007128:	0047c783          	lbu	a5,4(a5)
8000712c:	fc078ae3          	beqz	a5,80007100 <resched_cntl+0x34>
80007130:	ff010113          	addi	sp,sp,-16
80007134:	00112623          	sw	ra,12(sp)
80007138:	a61ff0ef          	jal	80006b98 <resched>
8000713c:	00c12083          	lw	ra,12(sp)
80007140:	00100513          	li	a0,1
80007144:	01010113          	addi	sp,sp,16
80007148:	00008067          	ret
8000714c:	00008067          	ret

80007150 <ready>:
80007150:	00700793          	li	a5,7
80007154:	04a7ee63          	bltu	a5,a0,800071b0 <ready+0x60>
80007158:	06400693          	li	a3,100
8000715c:	02d50733          	mul	a4,a0,a3
80007160:	8000e7b7          	lui	a5,0x8000e
80007164:	a6078793          	addi	a5,a5,-1440 # 8000da60 <proctab>
80007168:	00e787b3          	add	a5,a5,a4
8000716c:	0007d683          	lhu	a3,0(a5)
80007170:	fff00713          	li	a4,-1
80007174:	04068063          	beqz	a3,800071b4 <ready+0x64>
80007178:	ff010113          	addi	sp,sp,-16
8000717c:	00112623          	sw	ra,12(sp)
80007180:	00200713          	li	a4,2
80007184:	00e79023          	sh	a4,0(a5)
80007188:	00279603          	lh	a2,2(a5)
8000718c:	8005f7b7          	lui	a5,0x8005f
80007190:	02c79583          	lh	a1,44(a5) # 8005f02c <readylist>
80007194:	7e1000ef          	jal	80008174 <insert>
80007198:	a01ff0ef          	jal	80006b98 <resched>
8000719c:	00c12083          	lw	ra,12(sp)
800071a0:	00100713          	li	a4,1
800071a4:	00070513          	mv	a0,a4
800071a8:	01010113          	addi	sp,sp,16
800071ac:	00008067          	ret
800071b0:	fff00713          	li	a4,-1
800071b4:	00070513          	mv	a0,a4
800071b8:	00008067          	ret

800071bc <wakeup>:
800071bc:	ff010113          	addi	sp,sp,-16
800071c0:	00812423          	sw	s0,8(sp)
800071c4:	00100513          	li	a0,1
800071c8:	8000e437          	lui	s0,0x8000e
800071cc:	00912223          	sw	s1,4(sp)
800071d0:	01212023          	sw	s2,0(sp)
800071d4:	00112623          	sw	ra,12(sp)
800071d8:	8005f4b7          	lui	s1,0x8005f
800071dc:	ef1ff0ef          	jal	800070cc <resched_cntl>
800071e0:	de040413          	addi	s0,s0,-544 # 8000dde0 <queuetab>
800071e4:	00700913          	li	s2,7
800071e8:	01c49503          	lh	a0,28(s1) # 8005f01c <sleepq>
800071ec:	00351793          	slli	a5,a0,0x3
800071f0:	00f407b3          	add	a5,s0,a5
800071f4:	00479783          	lh	a5,4(a5)
800071f8:	02f95063          	bge	s2,a5,80007218 <wakeup+0x5c>
800071fc:	00812403          	lw	s0,8(sp)
80007200:	00c12083          	lw	ra,12(sp)
80007204:	00412483          	lw	s1,4(sp)
80007208:	00012903          	lw	s2,0(sp)
8000720c:	00200513          	li	a0,2
80007210:	01010113          	addi	sp,sp,16
80007214:	eb9ff06f          	j	800070cc <resched_cntl>
80007218:	00379793          	slli	a5,a5,0x3
8000721c:	00f407b3          	add	a5,s0,a5
80007220:	0007a783          	lw	a5,0(a5)
80007224:	fcf04ce3          	bgtz	a5,800071fc <wakeup+0x40>
80007228:	69d000ef          	jal	800080c4 <dequeue>
8000722c:	f25ff0ef          	jal	80007150 <ready>
80007230:	fb9ff06f          	j	800071e8 <wakeup+0x2c>

80007234 <resume>:
80007234:	ff010113          	addi	sp,sp,-16
80007238:	00812423          	sw	s0,8(sp)
8000723c:	00112623          	sw	ra,12(sp)
80007240:	00912223          	sw	s1,4(sp)
80007244:	00050413          	mv	s0,a0
80007248:	844f90ef          	jal	8000028c <disable>
8000724c:	00700793          	li	a5,7
80007250:	00050713          	mv	a4,a0
80007254:	0287e063          	bltu	a5,s0,80007274 <resume+0x40>
80007258:	06400693          	li	a3,100
8000725c:	02d406b3          	mul	a3,s0,a3
80007260:	8000e7b7          	lui	a5,0x8000e
80007264:	a6078793          	addi	a5,a5,-1440 # 8000da60 <proctab>
80007268:	00d787b3          	add	a5,a5,a3
8000726c:	0007d683          	lhu	a3,0(a5)
80007270:	02069463          	bnez	a3,80007298 <resume+0x64>
80007274:	00070513          	mv	a0,a4
80007278:	81cf90ef          	jal	80000294 <restore>
8000727c:	fff00493          	li	s1,-1
80007280:	00c12083          	lw	ra,12(sp)
80007284:	00812403          	lw	s0,8(sp)
80007288:	00048513          	mv	a0,s1
8000728c:	00412483          	lw	s1,4(sp)
80007290:	01010113          	addi	sp,sp,16
80007294:	00008067          	ret
80007298:	00500713          	li	a4,5
8000729c:	fce69ee3          	bne	a3,a4,80007278 <resume+0x44>
800072a0:	00279483          	lh	s1,2(a5)
800072a4:	ff1f80ef          	jal	80000294 <restore>
800072a8:	00040513          	mv	a0,s0
800072ac:	ea5ff0ef          	jal	80007150 <ready>
800072b0:	fd1ff06f          	j	80007280 <resume+0x4c>

800072b4 <exit>:
800072b4:	8005f7b7          	lui	a5,0x8005f
800072b8:	0387a503          	lw	a0,56(a5) # 8005f038 <currpid>
800072bc:	a11ff06f          	j	80006ccc <kill>

800072c0 <init>:
800072c0:	ff010113          	addi	sp,sp,-16
800072c4:	00812423          	sw	s0,8(sp)
800072c8:	00112623          	sw	ra,12(sp)
800072cc:	00912223          	sw	s1,4(sp)
800072d0:	00050413          	mv	s0,a0
800072d4:	fb9f80ef          	jal	8000028c <disable>
800072d8:	00200793          	li	a5,2
800072dc:	0287f263          	bgeu	a5,s0,80007300 <init+0x40>
800072e0:	fb5f80ef          	jal	80000294 <restore>
800072e4:	fff00413          	li	s0,-1
800072e8:	00c12083          	lw	ra,12(sp)
800072ec:	00040513          	mv	a0,s0
800072f0:	00812403          	lw	s0,8(sp)
800072f4:	00412483          	lw	s1,4(sp)
800072f8:	01010113          	addi	sp,sp,16
800072fc:	00008067          	ret
80007300:	03c00793          	li	a5,60
80007304:	02f40433          	mul	s0,s0,a5
80007308:	8000e7b7          	lui	a5,0x8000e
8000730c:	8f478793          	addi	a5,a5,-1804 # 8000d8f4 <devtab>
80007310:	00050493          	mv	s1,a0
80007314:	00f40533          	add	a0,s0,a5
80007318:	00c52783          	lw	a5,12(a0)
8000731c:	000780e7          	jalr	a5
80007320:	00050413          	mv	s0,a0
80007324:	00048513          	mv	a0,s1
80007328:	f6df80ef          	jal	80000294 <restore>
8000732c:	fbdff06f          	j	800072e8 <init+0x28>

80007330 <close>:
80007330:	ff010113          	addi	sp,sp,-16
80007334:	00812423          	sw	s0,8(sp)
80007338:	00112623          	sw	ra,12(sp)
8000733c:	00912223          	sw	s1,4(sp)
80007340:	00050413          	mv	s0,a0
80007344:	f49f80ef          	jal	8000028c <disable>
80007348:	00200793          	li	a5,2
8000734c:	0287f263          	bgeu	a5,s0,80007370 <close+0x40>
80007350:	f45f80ef          	jal	80000294 <restore>
80007354:	fff00413          	li	s0,-1
80007358:	00c12083          	lw	ra,12(sp)
8000735c:	00040513          	mv	a0,s0
80007360:	00812403          	lw	s0,8(sp)
80007364:	00412483          	lw	s1,4(sp)
80007368:	01010113          	addi	sp,sp,16
8000736c:	00008067          	ret
80007370:	03c00793          	li	a5,60
80007374:	02f40433          	mul	s0,s0,a5
80007378:	8000e7b7          	lui	a5,0x8000e
8000737c:	8f478793          	addi	a5,a5,-1804 # 8000d8f4 <devtab>
80007380:	00050493          	mv	s1,a0
80007384:	00f40533          	add	a0,s0,a5
80007388:	01452783          	lw	a5,20(a0)
8000738c:	000780e7          	jalr	a5
80007390:	00050413          	mv	s0,a0
80007394:	00048513          	mv	a0,s1
80007398:	efdf80ef          	jal	80000294 <restore>
8000739c:	fbdff06f          	j	80007358 <close+0x28>

800073a0 <getc>:
800073a0:	ff010113          	addi	sp,sp,-16
800073a4:	00812423          	sw	s0,8(sp)
800073a8:	00112623          	sw	ra,12(sp)
800073ac:	00912223          	sw	s1,4(sp)
800073b0:	00050413          	mv	s0,a0
800073b4:	ed9f80ef          	jal	8000028c <disable>
800073b8:	00200793          	li	a5,2
800073bc:	0287f263          	bgeu	a5,s0,800073e0 <getc+0x40>
800073c0:	ed5f80ef          	jal	80000294 <restore>
800073c4:	fff00413          	li	s0,-1
800073c8:	00c12083          	lw	ra,12(sp)
800073cc:	00040513          	mv	a0,s0
800073d0:	00812403          	lw	s0,8(sp)
800073d4:	00412483          	lw	s1,4(sp)
800073d8:	01010113          	addi	sp,sp,16
800073dc:	00008067          	ret
800073e0:	03c00793          	li	a5,60
800073e4:	02f40433          	mul	s0,s0,a5
800073e8:	8000e7b7          	lui	a5,0x8000e
800073ec:	8f478793          	addi	a5,a5,-1804 # 8000d8f4 <devtab>
800073f0:	00050493          	mv	s1,a0
800073f4:	00f40533          	add	a0,s0,a5
800073f8:	02452783          	lw	a5,36(a0)
800073fc:	000780e7          	jalr	a5
80007400:	00050413          	mv	s0,a0
80007404:	00048513          	mv	a0,s1
80007408:	e8df80ef          	jal	80000294 <restore>
8000740c:	fbdff06f          	j	800073c8 <getc+0x28>

80007410 <ioerr>:
80007410:	fff00513          	li	a0,-1
80007414:	00008067          	ret

80007418 <ionull>:
80007418:	00100513          	li	a0,1
8000741c:	00008067          	ret

80007420 <open>:
80007420:	fe010113          	addi	sp,sp,-32
80007424:	00812c23          	sw	s0,24(sp)
80007428:	00b12623          	sw	a1,12(sp)
8000742c:	00c12423          	sw	a2,8(sp)
80007430:	00112e23          	sw	ra,28(sp)
80007434:	00912a23          	sw	s1,20(sp)
80007438:	00050413          	mv	s0,a0
8000743c:	e51f80ef          	jal	8000028c <disable>
80007440:	00200793          	li	a5,2
80007444:	00812603          	lw	a2,8(sp)
80007448:	00c12583          	lw	a1,12(sp)
8000744c:	0287f263          	bgeu	a5,s0,80007470 <open+0x50>
80007450:	e45f80ef          	jal	80000294 <restore>
80007454:	fff00413          	li	s0,-1
80007458:	01c12083          	lw	ra,28(sp)
8000745c:	00040513          	mv	a0,s0
80007460:	01812403          	lw	s0,24(sp)
80007464:	01412483          	lw	s1,20(sp)
80007468:	02010113          	addi	sp,sp,32
8000746c:	00008067          	ret
80007470:	03c00793          	li	a5,60
80007474:	02f40433          	mul	s0,s0,a5
80007478:	8000e7b7          	lui	a5,0x8000e
8000747c:	8f478793          	addi	a5,a5,-1804 # 8000d8f4 <devtab>
80007480:	00050493          	mv	s1,a0
80007484:	00f40533          	add	a0,s0,a5
80007488:	01052783          	lw	a5,16(a0)
8000748c:	000780e7          	jalr	a5
80007490:	00050413          	mv	s0,a0
80007494:	00048513          	mv	a0,s1
80007498:	dfdf80ef          	jal	80000294 <restore>
8000749c:	fbdff06f          	j	80007458 <open+0x38>

800074a0 <putc>:
800074a0:	fe010113          	addi	sp,sp,-32
800074a4:	00812c23          	sw	s0,24(sp)
800074a8:	00b12623          	sw	a1,12(sp)
800074ac:	00112e23          	sw	ra,28(sp)
800074b0:	00912a23          	sw	s1,20(sp)
800074b4:	00050413          	mv	s0,a0
800074b8:	dd5f80ef          	jal	8000028c <disable>
800074bc:	00200793          	li	a5,2
800074c0:	00c12583          	lw	a1,12(sp)
800074c4:	0287f263          	bgeu	a5,s0,800074e8 <putc+0x48>
800074c8:	dcdf80ef          	jal	80000294 <restore>
800074cc:	fff00413          	li	s0,-1
800074d0:	01c12083          	lw	ra,28(sp)
800074d4:	00040513          	mv	a0,s0
800074d8:	01812403          	lw	s0,24(sp)
800074dc:	01412483          	lw	s1,20(sp)
800074e0:	02010113          	addi	sp,sp,32
800074e4:	00008067          	ret
800074e8:	03c00793          	li	a5,60
800074ec:	02f40433          	mul	s0,s0,a5
800074f0:	8000e7b7          	lui	a5,0x8000e
800074f4:	8f478793          	addi	a5,a5,-1804 # 8000d8f4 <devtab>
800074f8:	00050493          	mv	s1,a0
800074fc:	00f40533          	add	a0,s0,a5
80007500:	02852783          	lw	a5,40(a0)
80007504:	000780e7          	jalr	a5
80007508:	00050413          	mv	s0,a0
8000750c:	00048513          	mv	a0,s1
80007510:	d85f80ef          	jal	80000294 <restore>
80007514:	fbdff06f          	j	800074d0 <putc+0x30>

80007518 <read>:
80007518:	fe010113          	addi	sp,sp,-32
8000751c:	00812c23          	sw	s0,24(sp)
80007520:	00b12623          	sw	a1,12(sp)
80007524:	00c12423          	sw	a2,8(sp)
80007528:	00112e23          	sw	ra,28(sp)
8000752c:	00912a23          	sw	s1,20(sp)
80007530:	00050413          	mv	s0,a0
80007534:	d59f80ef          	jal	8000028c <disable>
80007538:	00200793          	li	a5,2
8000753c:	00812603          	lw	a2,8(sp)
80007540:	00c12583          	lw	a1,12(sp)
80007544:	0287f263          	bgeu	a5,s0,80007568 <read+0x50>
80007548:	d4df80ef          	jal	80000294 <restore>
8000754c:	fff00413          	li	s0,-1
80007550:	01c12083          	lw	ra,28(sp)
80007554:	00040513          	mv	a0,s0
80007558:	01812403          	lw	s0,24(sp)
8000755c:	01412483          	lw	s1,20(sp)
80007560:	02010113          	addi	sp,sp,32
80007564:	00008067          	ret
80007568:	03c00793          	li	a5,60
8000756c:	02f40433          	mul	s0,s0,a5
80007570:	8000e7b7          	lui	a5,0x8000e
80007574:	8f478793          	addi	a5,a5,-1804 # 8000d8f4 <devtab>
80007578:	00050493          	mv	s1,a0
8000757c:	00f40533          	add	a0,s0,a5
80007580:	01852783          	lw	a5,24(a0)
80007584:	000780e7          	jalr	a5
80007588:	00050413          	mv	s0,a0
8000758c:	00048513          	mv	a0,s1
80007590:	d05f80ef          	jal	80000294 <restore>
80007594:	fbdff06f          	j	80007550 <read+0x38>

80007598 <write>:
80007598:	fe010113          	addi	sp,sp,-32
8000759c:	00812c23          	sw	s0,24(sp)
800075a0:	00b12623          	sw	a1,12(sp)
800075a4:	00c12423          	sw	a2,8(sp)
800075a8:	00112e23          	sw	ra,28(sp)
800075ac:	00912a23          	sw	s1,20(sp)
800075b0:	00050413          	mv	s0,a0
800075b4:	cd9f80ef          	jal	8000028c <disable>
800075b8:	00200793          	li	a5,2
800075bc:	00812603          	lw	a2,8(sp)
800075c0:	00c12583          	lw	a1,12(sp)
800075c4:	0287f263          	bgeu	a5,s0,800075e8 <write+0x50>
800075c8:	ccdf80ef          	jal	80000294 <restore>
800075cc:	fff00413          	li	s0,-1
800075d0:	01c12083          	lw	ra,28(sp)
800075d4:	00040513          	mv	a0,s0
800075d8:	01812403          	lw	s0,24(sp)
800075dc:	01412483          	lw	s1,20(sp)
800075e0:	02010113          	addi	sp,sp,32
800075e4:	00008067          	ret
800075e8:	03c00793          	li	a5,60
800075ec:	02f40433          	mul	s0,s0,a5
800075f0:	8000e7b7          	lui	a5,0x8000e
800075f4:	8f478793          	addi	a5,a5,-1804 # 8000d8f4 <devtab>
800075f8:	00050493          	mv	s1,a0
800075fc:	00f40533          	add	a0,s0,a5
80007600:	01c52783          	lw	a5,28(a0)
80007604:	000780e7          	jalr	a5
80007608:	00050413          	mv	s0,a0
8000760c:	00048513          	mv	a0,s1
80007610:	c85f80ef          	jal	80000294 <restore>
80007614:	fbdff06f          	j	800075d0 <write+0x38>

80007618 <seek>:
80007618:	fe010113          	addi	sp,sp,-32
8000761c:	00812c23          	sw	s0,24(sp)
80007620:	00b12623          	sw	a1,12(sp)
80007624:	00112e23          	sw	ra,28(sp)
80007628:	00912a23          	sw	s1,20(sp)
8000762c:	00050413          	mv	s0,a0
80007630:	c5df80ef          	jal	8000028c <disable>
80007634:	00200793          	li	a5,2
80007638:	00c12583          	lw	a1,12(sp)
8000763c:	0287f263          	bgeu	a5,s0,80007660 <seek+0x48>
80007640:	c55f80ef          	jal	80000294 <restore>
80007644:	fff00413          	li	s0,-1
80007648:	01c12083          	lw	ra,28(sp)
8000764c:	00040513          	mv	a0,s0
80007650:	01812403          	lw	s0,24(sp)
80007654:	01412483          	lw	s1,20(sp)
80007658:	02010113          	addi	sp,sp,32
8000765c:	00008067          	ret
80007660:	03c00793          	li	a5,60
80007664:	02f40433          	mul	s0,s0,a5
80007668:	8000e7b7          	lui	a5,0x8000e
8000766c:	8f478793          	addi	a5,a5,-1804 # 8000d8f4 <devtab>
80007670:	00050493          	mv	s1,a0
80007674:	00f40533          	add	a0,s0,a5
80007678:	02052783          	lw	a5,32(a0)
8000767c:	000780e7          	jalr	a5
80007680:	00050413          	mv	s0,a0
80007684:	00048513          	mv	a0,s1
80007688:	c0df80ef          	jal	80000294 <restore>
8000768c:	fbdff06f          	j	80007648 <seek+0x30>

80007690 <control>:
80007690:	fe010113          	addi	sp,sp,-32
80007694:	00812c23          	sw	s0,24(sp)
80007698:	00b12623          	sw	a1,12(sp)
8000769c:	00c12423          	sw	a2,8(sp)
800076a0:	00d12223          	sw	a3,4(sp)
800076a4:	00112e23          	sw	ra,28(sp)
800076a8:	00912a23          	sw	s1,20(sp)
800076ac:	00050413          	mv	s0,a0
800076b0:	bddf80ef          	jal	8000028c <disable>
800076b4:	00200793          	li	a5,2
800076b8:	00412683          	lw	a3,4(sp)
800076bc:	00812603          	lw	a2,8(sp)
800076c0:	00c12583          	lw	a1,12(sp)
800076c4:	0287f263          	bgeu	a5,s0,800076e8 <control+0x58>
800076c8:	bcdf80ef          	jal	80000294 <restore>
800076cc:	fff00413          	li	s0,-1
800076d0:	01c12083          	lw	ra,28(sp)
800076d4:	00040513          	mv	a0,s0
800076d8:	01812403          	lw	s0,24(sp)
800076dc:	01412483          	lw	s1,20(sp)
800076e0:	02010113          	addi	sp,sp,32
800076e4:	00008067          	ret
800076e8:	03c00793          	li	a5,60
800076ec:	02f40433          	mul	s0,s0,a5
800076f0:	8000e7b7          	lui	a5,0x8000e
800076f4:	8f478793          	addi	a5,a5,-1804 # 8000d8f4 <devtab>
800076f8:	00050493          	mv	s1,a0
800076fc:	00f40533          	add	a0,s0,a5
80007700:	02c52783          	lw	a5,44(a0)
80007704:	000780e7          	jalr	a5
80007708:	00050413          	mv	s0,a0
8000770c:	00048513          	mv	a0,s1
80007710:	b85f80ef          	jal	80000294 <restore>
80007714:	fbdff06f          	j	800076d0 <control+0x40>

80007718 <getdev>:
80007718:	fe010113          	addi	sp,sp,-32
8000771c:	00812c23          	sw	s0,24(sp)
80007720:	00912a23          	sw	s1,20(sp)
80007724:	01212823          	sw	s2,16(sp)
80007728:	01312623          	sw	s3,12(sp)
8000772c:	01412423          	sw	s4,8(sp)
80007730:	00112e23          	sw	ra,28(sp)
80007734:	00050993          	mv	s3,a0
80007738:	8000e4b7          	lui	s1,0x8000e
8000773c:	b51f80ef          	jal	8000028c <disable>
80007740:	00050913          	mv	s2,a0
80007744:	8f448493          	addi	s1,s1,-1804 # 8000d8f4 <devtab>
80007748:	00000413          	li	s0,0
8000774c:	00300a13          	li	s4,3
80007750:	0084a583          	lw	a1,8(s1)
80007754:	01000613          	li	a2,16
80007758:	00098513          	mv	a0,s3
8000775c:	8c0fd0ef          	jal	8000481c <strncmp>
80007760:	02050863          	beqz	a0,80007790 <getdev+0x78>
80007764:	00090513          	mv	a0,s2
80007768:	b2df80ef          	jal	80000294 <restore>
8000776c:	01c12083          	lw	ra,28(sp)
80007770:	00040513          	mv	a0,s0
80007774:	01812403          	lw	s0,24(sp)
80007778:	01412483          	lw	s1,20(sp)
8000777c:	01012903          	lw	s2,16(sp)
80007780:	00c12983          	lw	s3,12(sp)
80007784:	00812a03          	lw	s4,8(sp)
80007788:	02010113          	addi	sp,sp,32
8000778c:	00008067          	ret
80007790:	00140413          	addi	s0,s0,1
80007794:	03c48493          	addi	s1,s1,60
80007798:	fb441ce3          	bne	s0,s4,80007750 <getdev+0x38>
8000779c:	00090513          	mv	a0,s2
800077a0:	af5f80ef          	jal	80000294 <restore>
800077a4:	fff00413          	li	s0,-1
800077a8:	fc5ff06f          	j	8000776c <getdev+0x54>

800077ac <ilde>:
800077ac:	ff010113          	addi	sp,sp,-16
800077b0:	00112623          	sw	ra,12(sp)
800077b4:	b0cff0ef          	jal	80006ac0 <yield>
800077b8:	ffdff06f          	j	800077b4 <ilde+0x8>

800077bc <nullprocess>:
800077bc:	8000b537          	lui	a0,0x8000b
800077c0:	ff010113          	addi	sp,sp,-16
800077c4:	01c50513          	addi	a0,a0,28 # 8000b01c <start+0x39c>
800077c8:	00112623          	sw	ra,12(sp)
800077cc:	424030ef          	jal	8000abf0 <kprintf>
800077d0:	8000b6b7          	lui	a3,0x8000b
800077d4:	000015b7          	lui	a1,0x1
800077d8:	80008537          	lui	a0,0x80008
800077dc:	00000713          	li	a4,0
800077e0:	03068693          	addi	a3,a3,48 # 8000b030 <start+0x3b0>
800077e4:	00100613          	li	a2,1
800077e8:	80058593          	addi	a1,a1,-2048 # 800 <_start-0x7ffff800>
800077ec:	9e850513          	addi	a0,a0,-1560 # 800079e8 <test>
800077f0:	81cff0ef          	jal	8000680c <create>
800077f4:	a41ff0ef          	jal	80007234 <resume>
800077f8:	8000b6b7          	lui	a3,0x8000b
800077fc:	000015b7          	lui	a1,0x1
80007800:	80009537          	lui	a0,0x80009
80007804:	00000713          	li	a4,0
80007808:	03868693          	addi	a3,a3,56 # 8000b038 <start+0x3b8>
8000780c:	00100613          	li	a2,1
80007810:	80058593          	addi	a1,a1,-2048 # 800 <_start-0x7ffff800>
80007814:	c6c50513          	addi	a0,a0,-916 # 80008c6c <shell>
80007818:	ff5fe0ef          	jal	8000680c <create>
8000781c:	a19ff0ef          	jal	80007234 <resume>
80007820:	00c12083          	lw	ra,12(sp)
80007824:	00000513          	li	a0,0
80007828:	01010113          	addi	sp,sp,16
8000782c:	00008067          	ret

80007830 <fibonacci_series.part.0>:
80007830:	fe010113          	addi	sp,sp,-32
80007834:	01212823          	sw	s2,16(sp)
80007838:	00050913          	mv	s2,a0
8000783c:	8000b537          	lui	a0,0x8000b
80007840:	00000593          	li	a1,0
80007844:	04050513          	addi	a0,a0,64 # 8000b040 <start+0x3c0>
80007848:	00812c23          	sw	s0,24(sp)
8000784c:	00112e23          	sw	ra,28(sp)
80007850:	00912a23          	sw	s1,20(sp)
80007854:	01312623          	sw	s3,12(sp)
80007858:	01412423          	sw	s4,8(sp)
8000785c:	ea4fc0ef          	jal	80003f00 <printf>
80007860:	00100793          	li	a5,1
80007864:	00100413          	li	s0,1
80007868:	02f90463          	beq	s2,a5,80007890 <fibonacci_series.part.0+0x60>
8000786c:	8000b537          	lui	a0,0x8000b
80007870:	00100593          	li	a1,1
80007874:	05450513          	addi	a0,a0,84 # 8000b054 <start+0x3d4>
80007878:	e88fc0ef          	jal	80003f00 <printf>
8000787c:	00200493          	li	s1,2
80007880:	00100413          	li	s0,1
80007884:	00000793          	li	a5,0
80007888:	8000ba37          	lui	s4,0x8000b
8000788c:	02997463          	bgeu	s2,s1,800078b4 <fibonacci_series.part.0+0x84>
80007890:	01c12083          	lw	ra,28(sp)
80007894:	00040513          	mv	a0,s0
80007898:	01812403          	lw	s0,24(sp)
8000789c:	01412483          	lw	s1,20(sp)
800078a0:	01012903          	lw	s2,16(sp)
800078a4:	00c12983          	lw	s3,12(sp)
800078a8:	00812a03          	lw	s4,8(sp)
800078ac:	02010113          	addi	sp,sp,32
800078b0:	00008067          	ret
800078b4:	008789b3          	add	s3,a5,s0
800078b8:	00048593          	mv	a1,s1
800078bc:	00098613          	mv	a2,s3
800078c0:	068a0513          	addi	a0,s4,104 # 8000b068 <start+0x3e8>
800078c4:	e3cfc0ef          	jal	80003f00 <printf>
800078c8:	00040793          	mv	a5,s0
800078cc:	00148493          	addi	s1,s1,1
800078d0:	00098413          	mv	s0,s3
800078d4:	fb9ff06f          	j	8000788c <fibonacci_series.part.0+0x5c>

800078d8 <ilde2>:
800078d8:	ff010113          	addi	sp,sp,-16
800078dc:	00812423          	sw	s0,8(sp)
800078e0:	00112623          	sw	ra,12(sp)
800078e4:	8000b437          	lui	s0,0x8000b
800078e8:	07c40513          	addi	a0,s0,124 # 8000b07c <start+0x3fc>
800078ec:	e14fc0ef          	jal	80003f00 <printf>
800078f0:	01400513          	li	a0,20
800078f4:	ef8ff0ef          	jal	80006fec <sleepms>
800078f8:	ff1ff06f          	j	800078e8 <ilde2+0x10>

800078fc <fibonacci_series>:
800078fc:	00050463          	beqz	a0,80007904 <fibonacci_series+0x8>
80007900:	f31ff06f          	j	80007830 <fibonacci_series.part.0>
80007904:	8000b537          	lui	a0,0x8000b
80007908:	ff010113          	addi	sp,sp,-16
8000790c:	08850513          	addi	a0,a0,136 # 8000b088 <start+0x408>
80007910:	00112623          	sw	ra,12(sp)
80007914:	decfc0ef          	jal	80003f00 <printf>
80007918:	00c12083          	lw	ra,12(sp)
8000791c:	00000513          	li	a0,0
80007920:	01010113          	addi	sp,sp,16
80007924:	00008067          	ret

80007928 <test_function>:
80007928:	ff010113          	addi	sp,sp,-16
8000792c:	00012623          	sw	zero,12(sp)
80007930:	00000793          	li	a5,0
80007934:	3e800693          	li	a3,1000
80007938:	00c12703          	lw	a4,12(sp)
8000793c:	00f70733          	add	a4,a4,a5
80007940:	00e12623          	sw	a4,12(sp)
80007944:	00178793          	addi	a5,a5,1
80007948:	fed798e3          	bne	a5,a3,80007938 <test_function+0x10>
8000794c:	01010113          	addi	sp,sp,16
80007950:	00008067          	ret

80007954 <task1>:
80007954:	ff010113          	addi	sp,sp,-16
80007958:	00112623          	sw	ra,12(sp)
8000795c:	00812423          	sw	s0,8(sp)
80007960:	c0002473          	rdcycle	s0
80007964:	fc5ff0ef          	jal	80007928 <test_function>
80007968:	c00025f3          	rdcycle	a1
8000796c:	408585b3          	sub	a1,a1,s0
80007970:	00812403          	lw	s0,8(sp)
80007974:	00c12083          	lw	ra,12(sp)
80007978:	8000b537          	lui	a0,0x8000b
8000797c:	09c50513          	addi	a0,a0,156 # 8000b09c <start+0x41c>
80007980:	01010113          	addi	sp,sp,16
80007984:	d7cfc06f          	j	80003f00 <printf>

80007988 <task2>:
80007988:	fe010113          	addi	sp,sp,-32
8000798c:	00112e23          	sw	ra,28(sp)
80007990:	00812c23          	sw	s0,24(sp)
80007994:	c0002473          	rdcycle	s0
80007998:	01e00513          	li	a0,30
8000799c:	e95ff0ef          	jal	80007830 <fibonacci_series.part.0>
800079a0:	00050613          	mv	a2,a0
800079a4:	c00026f3          	rdcycle	a3
800079a8:	40868433          	sub	s0,a3,s0
800079ac:	0086b6b3          	sltu	a3,a3,s0
800079b0:	8000b537          	lui	a0,0x8000b
800079b4:	40d006b3          	neg	a3,a3
800079b8:	01e00593          	li	a1,30
800079bc:	0b050513          	addi	a0,a0,176 # 8000b0b0 <start+0x430>
800079c0:	00d12623          	sw	a3,12(sp)
800079c4:	d3cfc0ef          	jal	80003f00 <printf>
800079c8:	00040613          	mv	a2,s0
800079cc:	01812403          	lw	s0,24(sp)
800079d0:	00c12683          	lw	a3,12(sp)
800079d4:	01c12083          	lw	ra,28(sp)
800079d8:	8000b537          	lui	a0,0x8000b
800079dc:	09c50513          	addi	a0,a0,156 # 8000b09c <start+0x41c>
800079e0:	02010113          	addi	sp,sp,32
800079e4:	d1cfc06f          	j	80003f00 <printf>

800079e8 <test>:
800079e8:	ff010113          	addi	sp,sp,-16
800079ec:	00112623          	sw	ra,12(sp)
800079f0:	00812423          	sw	s0,8(sp)
800079f4:	f61ff0ef          	jal	80007954 <task1>
800079f8:	f91ff0ef          	jal	80007988 <task2>
800079fc:	3e800593          	li	a1,1000
80007a00:	00e00513          	li	a0,14
80007a04:	649050ef          	jal	8000d84c <__syscall>
80007a08:	20000513          	li	a0,512
80007a0c:	8a0fb0ef          	jal	80002aac <malloc>
80007a10:	20000613          	li	a2,512
80007a14:	0aa00593          	li	a1,170
80007a18:	00050413          	mv	s0,a0
80007a1c:	cc5fc0ef          	jal	800046e0 <memset>
80007a20:	cafe0537          	lui	a0,0xcafe0
80007a24:	20000613          	li	a2,512
80007a28:	00040593          	mv	a1,s0
80007a2c:	0ff50513          	addi	a0,a0,255 # cafe00ff <nnames+0x4af810ab>
80007a30:	61d050ef          	jal	8000d84c <__syscall>
80007a34:	20000613          	li	a2,512
80007a38:	00040593          	mv	a1,s0
80007a3c:	00000513          	li	a0,0
80007a40:	d0cfc0ef          	jal	80003f4c <hexDump2>
80007a44:	0000006f          	j	80007a44 <test+0x5c>

80007a48 <cpu_test>:
80007a48:	fc010113          	addi	sp,sp,-64
80007a4c:	03212823          	sw	s2,48(sp)
80007a50:	00a00913          	li	s2,10
80007a54:	02812c23          	sw	s0,56(sp)
80007a58:	00000713          	li	a4,0
80007a5c:	00050593          	mv	a1,a0
80007a60:	03255933          	divu	s2,a0,s2
80007a64:	00050413          	mv	s0,a0
80007a68:	8000b537          	lui	a0,0x8000b
80007a6c:	00000793          	li	a5,0
80007a70:	00e12423          	sw	a4,8(sp)
80007a74:	0d050513          	addi	a0,a0,208 # 8000b0d0 <start+0x450>
80007a78:	02112e23          	sw	ra,60(sp)
80007a7c:	02912a23          	sw	s1,52(sp)
80007a80:	03312623          	sw	s3,44(sp)
80007a84:	03412423          	sw	s4,40(sp)
80007a88:	03512223          	sw	s5,36(sp)
80007a8c:	03612023          	sw	s6,32(sp)
80007a90:	01712e23          	sw	s7,28(sp)
80007a94:	01812c23          	sw	s8,24(sp)
80007a98:	00f12623          	sw	a5,12(sp)
80007a9c:	c64fc0ef          	jal	80003f00 <printf>
80007aa0:	c00029f3          	rdcycle	s3
80007aa4:	8000d7b7          	lui	a5,0x8000d
80007aa8:	8207aa03          	lw	s4,-2016(a5) # 8000c820 <a+0xc>
80007aac:	8247aa83          	lw	s5,-2012(a5)
80007ab0:	00100493          	li	s1,1
80007ab4:	8000bc37          	lui	s8,0x8000b
80007ab8:	08947a63          	bgeu	s0,s1,80007b4c <cpu_test+0x104>
80007abc:	c00024f3          	rdcycle	s1
80007ac0:	8000b537          	lui	a0,0x8000b
80007ac4:	12c50513          	addi	a0,a0,300 # 8000b12c <start+0x4ac>
80007ac8:	c38fc0ef          	jal	80003f00 <printf>
80007acc:	413484b3          	sub	s1,s1,s3
80007ad0:	8000b537          	lui	a0,0x8000b
80007ad4:	00048593          	mv	a1,s1
80007ad8:	09c50513          	addi	a0,a0,156 # 8000b09c <start+0x41c>
80007adc:	c24fc0ef          	jal	80003f00 <printf>
80007ae0:	00048513          	mv	a0,s1
80007ae4:	9f8fe0ef          	jal	80005cdc <__floatunsidf>
80007ae8:	00050913          	mv	s2,a0
80007aec:	00040513          	mv	a0,s0
80007af0:	00058493          	mv	s1,a1
80007af4:	9e8fe0ef          	jal	80005cdc <__floatunsidf>
80007af8:	00050613          	mv	a2,a0
80007afc:	00058693          	mv	a3,a1
80007b00:	00090513          	mv	a0,s2
80007b04:	00048593          	mv	a1,s1
80007b08:	dacfd0ef          	jal	800050b4 <__divdf3>
80007b0c:	03812403          	lw	s0,56(sp)
80007b10:	03c12083          	lw	ra,60(sp)
80007b14:	03412483          	lw	s1,52(sp)
80007b18:	03012903          	lw	s2,48(sp)
80007b1c:	02c12983          	lw	s3,44(sp)
80007b20:	02812a03          	lw	s4,40(sp)
80007b24:	02412a83          	lw	s5,36(sp)
80007b28:	02012b03          	lw	s6,32(sp)
80007b2c:	01c12b83          	lw	s7,28(sp)
80007b30:	01812c03          	lw	s8,24(sp)
80007b34:	00050613          	mv	a2,a0
80007b38:	8000b537          	lui	a0,0x8000b
80007b3c:	00058693          	mv	a3,a1
80007b40:	14850513          	addi	a0,a0,328 # 8000b148 <start+0x4c8>
80007b44:	04010113          	addi	sp,sp,64
80007b48:	bb8fc06f          	j	80003f00 <printf>
80007b4c:	00048513          	mv	a0,s1
80007b50:	00812b03          	lw	s6,8(sp)
80007b54:	988fe0ef          	jal	80005cdc <__floatunsidf>
80007b58:	00c12b83          	lw	s7,12(sp)
80007b5c:	000a0613          	mv	a2,s4
80007b60:	000a8693          	mv	a3,s5
80007b64:	cf4fe0ef          	jal	80006058 <__muldf3>
80007b68:	000b0613          	mv	a2,s6
80007b6c:	000b8693          	mv	a3,s7
80007b70:	f91fc0ef          	jal	80004b00 <__adddf3>
80007b74:	0324f7b3          	remu	a5,s1,s2
80007b78:	00a12423          	sw	a0,8(sp)
80007b7c:	00b12623          	sw	a1,12(sp)
80007b80:	00079a63          	bnez	a5,80007b94 <cpu_test+0x14c>
80007b84:	00040613          	mv	a2,s0
80007b88:	00048593          	mv	a1,s1
80007b8c:	100c0513          	addi	a0,s8,256 # 8000b100 <start+0x480>
80007b90:	b70fc0ef          	jal	80003f00 <printf>
80007b94:	00148493          	addi	s1,s1,1
80007b98:	f21ff06f          	j	80007ab8 <cpu_test+0x70>

80007b9c <get_file_size>:
80007b9c:	fe010113          	addi	sp,sp,-32
80007ba0:	00050593          	mv	a1,a0
80007ba4:	00a12623          	sw	a0,12(sp)
80007ba8:	cafe0537          	lui	a0,0xcafe0
80007bac:	00200693          	li	a3,2
80007bb0:	00000613          	li	a2,0
80007bb4:	01050513          	addi	a0,a0,16 # cafe0010 <nnames+0x4af80fbc>
80007bb8:	00112e23          	sw	ra,28(sp)
80007bbc:	00812c23          	sw	s0,24(sp)
80007bc0:	48d050ef          	jal	8000d84c <__syscall>
80007bc4:	00c12583          	lw	a1,12(sp)
80007bc8:	cafe0537          	lui	a0,0xcafe0
80007bcc:	01250513          	addi	a0,a0,18 # cafe0012 <nnames+0x4af80fbe>
80007bd0:	47d050ef          	jal	8000d84c <__syscall>
80007bd4:	00c12583          	lw	a1,12(sp)
80007bd8:	00050413          	mv	s0,a0
80007bdc:	cafe0537          	lui	a0,0xcafe0
80007be0:	00000693          	li	a3,0
80007be4:	00000613          	li	a2,0
80007be8:	01050513          	addi	a0,a0,16 # cafe0010 <nnames+0x4af80fbc>
80007bec:	461050ef          	jal	8000d84c <__syscall>
80007bf0:	01c12083          	lw	ra,28(sp)
80007bf4:	00040513          	mv	a0,s0
80007bf8:	01812403          	lw	s0,24(sp)
80007bfc:	02010113          	addi	sp,sp,32
80007c00:	00008067          	ret

80007c04 <nulluser>:
80007c04:	8000b637          	lui	a2,0x8000b
80007c08:	8000b5b7          	lui	a1,0x8000b
80007c0c:	8000b537          	lui	a0,0x8000b
80007c10:	ff010113          	addi	sp,sp,-16
80007c14:	16460613          	addi	a2,a2,356 # 8000b164 <start+0x4e4>
80007c18:	17058593          	addi	a1,a1,368 # 8000b170 <start+0x4f0>
80007c1c:	17c50513          	addi	a0,a0,380 # 8000b17c <start+0x4fc>
80007c20:	00112623          	sw	ra,12(sp)
80007c24:	00812423          	sw	s0,8(sp)
80007c28:	00912223          	sw	s1,4(sp)
80007c2c:	01212023          	sw	s2,0(sp)
80007c30:	7c1020ef          	jal	8000abf0 <kprintf>
80007c34:	e58f80ef          	jal	8000028c <disable>
80007c38:	9c1fe0ef          	jal	800065f8 <clkinit>
80007c3c:	555000ef          	jal	80008990 <syscall_os_init>
80007c40:	8000c437          	lui	s0,0x8000c
80007c44:	8dc40513          	addi	a0,s0,-1828 # 8000b8dc <start+0xc5c>
80007c48:	7a9020ef          	jal	8000abf0 <kprintf>
80007c4c:	8dc40513          	addi	a0,s0,-1828
80007c50:	7a1020ef          	jal	8000abf0 <kprintf>
80007c54:	8005f7b7          	lui	a5,0x8005f
80007c58:	8000e4b7          	lui	s1,0x8000e
80007c5c:	0207ae23          	sw	zero,60(a5) # 8005f03c <prcount>
80007c60:	a6048793          	addi	a5,s1,-1440 # 8000da60 <proctab>
80007c64:	32078713          	addi	a4,a5,800
80007c68:	a6048493          	addi	s1,s1,-1440
80007c6c:	8000e437          	lui	s0,0x8000e
80007c70:	00079023          	sh	zero,0(a5)
80007c74:	00078823          	sb	zero,16(a5)
80007c78:	0007a423          	sw	zero,8(a5)
80007c7c:	02078c23          	sb	zero,56(a5)
80007c80:	00079123          	sh	zero,2(a5)
80007c84:	06478793          	addi	a5,a5,100
80007c88:	fee794e3          	bne	a5,a4,80007c70 <nulluser+0x6c>
80007c8c:	d8040413          	addi	s0,s0,-640 # 8000dd80 <semtab>
80007c90:	38048913          	addi	s2,s1,896
80007c94:	00040023          	sb	zero,0(s0)
80007c98:	00042223          	sw	zero,4(s0)
80007c9c:	65c000ef          	jal	800082f8 <newqueue>
80007ca0:	00a41423          	sh	a0,8(s0)
80007ca4:	00c40413          	addi	s0,s0,12
80007ca8:	ff2416e3          	bne	s0,s2,80007c94 <nulluser+0x90>
80007cac:	64c000ef          	jal	800082f8 <newqueue>
80007cb0:	8005f7b7          	lui	a5,0x8005f
80007cb4:	02a79623          	sh	a0,44(a5) # 8005f02c <readylist>
80007cb8:	00000513          	li	a0,0
80007cbc:	e04ff0ef          	jal	800072c0 <init>
80007cc0:	00100513          	li	a0,1
80007cc4:	dfcff0ef          	jal	800072c0 <init>
80007cc8:	00200513          	li	a0,2
80007ccc:	df4ff0ef          	jal	800072c0 <init>
80007cd0:	8005f7b7          	lui	a5,0x8005f
80007cd4:	02800713          	li	a4,40
80007cd8:	8000b6b7          	lui	a3,0x8000b
80007cdc:	80007537          	lui	a0,0x80007
80007ce0:	00e7ac23          	sw	a4,24(a5) # 8005f018 <preempt>
80007ce4:	19068693          	addi	a3,a3,400 # 8000b190 <start+0x510>
80007ce8:	00000713          	li	a4,0
80007cec:	00100613          	li	a2,1
80007cf0:	20000593          	li	a1,512
80007cf4:	7ac50513          	addi	a0,a0,1964 # 800077ac <ilde>
80007cf8:	b15fe0ef          	jal	8000680c <create>
80007cfc:	06400793          	li	a5,100
80007d00:	02f50533          	mul	a0,a0,a5
80007d04:	00100793          	li	a5,1
80007d08:	00a484b3          	add	s1,s1,a0
80007d0c:	00f49023          	sh	a5,0(s1)
80007d10:	d74f80ef          	jal	80000284 <enable>
80007d14:	8000b6b7          	lui	a3,0x8000b
80007d18:	000015b7          	lui	a1,0x1
80007d1c:	80007537          	lui	a0,0x80007
80007d20:	00000713          	li	a4,0
80007d24:	19868693          	addi	a3,a3,408 # 8000b198 <start+0x518>
80007d28:	00300613          	li	a2,3
80007d2c:	80058593          	addi	a1,a1,-2048 # 800 <_start-0x7ffff800>
80007d30:	7bc50513          	addi	a0,a0,1980 # 800077bc <nullprocess>
80007d34:	ad9fe0ef          	jal	8000680c <create>
80007d38:	c18ff0ef          	jal	80007150 <ready>
80007d3c:	0000006f          	j	80007d3c <nulluser+0x138>

80007d40 <receive>:
80007d40:	ff010113          	addi	sp,sp,-16
80007d44:	00812423          	sw	s0,8(sp)
80007d48:	00912223          	sw	s1,4(sp)
80007d4c:	01212023          	sw	s2,0(sp)
80007d50:	00112623          	sw	ra,12(sp)
80007d54:	d38f80ef          	jal	8000028c <disable>
80007d58:	8005f7b7          	lui	a5,0x8005f
80007d5c:	0387a483          	lw	s1,56(a5) # 8005f038 <currpid>
80007d60:	06400693          	li	a3,100
80007d64:	8000e7b7          	lui	a5,0x8000e
80007d68:	02d486b3          	mul	a3,s1,a3
80007d6c:	a6078713          	addi	a4,a5,-1440 # 8000da60 <proctab>
80007d70:	00050913          	mv	s2,a0
80007d74:	a6078413          	addi	s0,a5,-1440
80007d78:	00d70733          	add	a4,a4,a3
80007d7c:	03074683          	lbu	a3,48(a4)
80007d80:	00069a63          	bnez	a3,80007d94 <receive+0x54>
80007d84:	00300793          	li	a5,3
80007d88:	00f71023          	sh	a5,0(a4)
80007d8c:	d08f80ef          	jal	80000294 <restore>
80007d90:	e09fe0ef          	jal	80006b98 <resched>
80007d94:	06400793          	li	a5,100
80007d98:	02f484b3          	mul	s1,s1,a5
80007d9c:	00090513          	mv	a0,s2
80007da0:	009407b3          	add	a5,s0,s1
80007da4:	02c7a403          	lw	s0,44(a5)
80007da8:	02078823          	sb	zero,48(a5)
80007dac:	ce8f80ef          	jal	80000294 <restore>
80007db0:	00c12083          	lw	ra,12(sp)
80007db4:	00040513          	mv	a0,s0
80007db8:	00812403          	lw	s0,8(sp)
80007dbc:	00412483          	lw	s1,4(sp)
80007dc0:	00012903          	lw	s2,0(sp)
80007dc4:	01010113          	addi	sp,sp,16
80007dc8:	00008067          	ret

80007dcc <recvclr>:
80007dcc:	ff010113          	addi	sp,sp,-16
80007dd0:	00812423          	sw	s0,8(sp)
80007dd4:	00112623          	sw	ra,12(sp)
80007dd8:	cb4f80ef          	jal	8000028c <disable>
80007ddc:	8005f7b7          	lui	a5,0x8005f
80007de0:	0387a703          	lw	a4,56(a5) # 8005f038 <currpid>
80007de4:	06400693          	li	a3,100
80007de8:	8000e7b7          	lui	a5,0x8000e
80007dec:	02d70733          	mul	a4,a4,a3
80007df0:	a6078793          	addi	a5,a5,-1440 # 8000da60 <proctab>
80007df4:	00100413          	li	s0,1
80007df8:	00e787b3          	add	a5,a5,a4
80007dfc:	0307c703          	lbu	a4,48(a5)
80007e00:	00871663          	bne	a4,s0,80007e0c <recvclr+0x40>
80007e04:	02c7a403          	lw	s0,44(a5)
80007e08:	02078823          	sb	zero,48(a5)
80007e0c:	c88f80ef          	jal	80000294 <restore>
80007e10:	00c12083          	lw	ra,12(sp)
80007e14:	00040513          	mv	a0,s0
80007e18:	00812403          	lw	s0,8(sp)
80007e1c:	01010113          	addi	sp,sp,16
80007e20:	00008067          	ret

80007e24 <recvtime>:
80007e24:	fd010113          	addi	sp,sp,-48
80007e28:	02112623          	sw	ra,44(sp)
80007e2c:	02812423          	sw	s0,40(sp)
80007e30:	02912223          	sw	s1,36(sp)
80007e34:	03212023          	sw	s2,32(sp)
80007e38:	01312e23          	sw	s3,28(sp)
80007e3c:	00a12623          	sw	a0,12(sp)
80007e40:	06054c63          	bltz	a0,80007eb8 <recvtime+0x94>
80007e44:	c48f80ef          	jal	8000028c <disable>
80007e48:	8005f7b7          	lui	a5,0x8005f
80007e4c:	0387a983          	lw	s3,56(a5) # 8005f038 <currpid>
80007e50:	06400793          	li	a5,100
80007e54:	8000e737          	lui	a4,0x8000e
80007e58:	02f987b3          	mul	a5,s3,a5
80007e5c:	a6070493          	addi	s1,a4,-1440 # 8000da60 <proctab>
80007e60:	00c12603          	lw	a2,12(sp)
80007e64:	00050413          	mv	s0,a0
80007e68:	a6070913          	addi	s2,a4,-1440
80007e6c:	00f484b3          	add	s1,s1,a5
80007e70:	0304c783          	lbu	a5,48(s1)
80007e74:	02078263          	beqz	a5,80007e98 <recvtime+0x74>
80007e78:	06400793          	li	a5,100
80007e7c:	02f987b3          	mul	a5,s3,a5
80007e80:	00f907b3          	add	a5,s2,a5
80007e84:	02c7a483          	lw	s1,44(a5)
80007e88:	02078823          	sb	zero,48(a5)
80007e8c:	00040513          	mv	a0,s0
80007e90:	c04f80ef          	jal	80000294 <restore>
80007e94:	0280006f          	j	80007ebc <recvtime+0x98>
80007e98:	8005f7b7          	lui	a5,0x8005f
80007e9c:	01c79583          	lh	a1,28(a5) # 8005f01c <sleepq>
80007ea0:	00098513          	mv	a0,s3
80007ea4:	380000ef          	jal	80008224 <insertd>
80007ea8:	fff00793          	li	a5,-1
80007eac:	02f51863          	bne	a0,a5,80007edc <recvtime+0xb8>
80007eb0:	00040513          	mv	a0,s0
80007eb4:	be0f80ef          	jal	80000294 <restore>
80007eb8:	fff00493          	li	s1,-1
80007ebc:	02c12083          	lw	ra,44(sp)
80007ec0:	02812403          	lw	s0,40(sp)
80007ec4:	02012903          	lw	s2,32(sp)
80007ec8:	01c12983          	lw	s3,28(sp)
80007ecc:	00048513          	mv	a0,s1
80007ed0:	02412483          	lw	s1,36(sp)
80007ed4:	03010113          	addi	sp,sp,48
80007ed8:	00008067          	ret
80007edc:	00700793          	li	a5,7
80007ee0:	00f49023          	sh	a5,0(s1)
80007ee4:	00040513          	mv	a0,s0
80007ee8:	bacf80ef          	jal	80000294 <restore>
80007eec:	cadfe0ef          	jal	80006b98 <resched>
80007ef0:	0304c783          	lbu	a5,48(s1)
80007ef4:	f80792e3          	bnez	a5,80007e78 <recvtime+0x54>
80007ef8:	ffd00493          	li	s1,-3
80007efc:	f91ff06f          	j	80007e8c <recvtime+0x68>

80007f00 <send>:
80007f00:	ff010113          	addi	sp,sp,-16
80007f04:	00812423          	sw	s0,8(sp)
80007f08:	00912223          	sw	s1,4(sp)
80007f0c:	01212023          	sw	s2,0(sp)
80007f10:	00112623          	sw	ra,12(sp)
80007f14:	00050413          	mv	s0,a0
80007f18:	00058913          	mv	s2,a1
80007f1c:	b70f80ef          	jal	8000028c <disable>
80007f20:	00700693          	li	a3,7
80007f24:	00050493          	mv	s1,a0
80007f28:	0286e063          	bltu	a3,s0,80007f48 <send+0x48>
80007f2c:	06400713          	li	a4,100
80007f30:	02e40733          	mul	a4,s0,a4
80007f34:	8000e7b7          	lui	a5,0x8000e
80007f38:	a6078793          	addi	a5,a5,-1440 # 8000da60 <proctab>
80007f3c:	00e787b3          	add	a5,a5,a4
80007f40:	0007d703          	lhu	a4,0(a5)
80007f44:	02071463          	bnez	a4,80007f6c <send+0x6c>
80007f48:	00048513          	mv	a0,s1
80007f4c:	b48f80ef          	jal	80000294 <restore>
80007f50:	fff00513          	li	a0,-1
80007f54:	00c12083          	lw	ra,12(sp)
80007f58:	00812403          	lw	s0,8(sp)
80007f5c:	00412483          	lw	s1,4(sp)
80007f60:	00012903          	lw	s2,0(sp)
80007f64:	01010113          	addi	sp,sp,16
80007f68:	00008067          	ret
80007f6c:	0307c603          	lbu	a2,48(a5)
80007f70:	fc061ee3          	bnez	a2,80007f4c <send+0x4c>
80007f74:	00100613          	li	a2,1
80007f78:	0327a623          	sw	s2,44(a5)
80007f7c:	02c78823          	sb	a2,48(a5)
80007f80:	00300793          	li	a5,3
80007f84:	00f71e63          	bne	a4,a5,80007fa0 <send+0xa0>
80007f88:	00040513          	mv	a0,s0
80007f8c:	9c4ff0ef          	jal	80007150 <ready>
80007f90:	00048513          	mv	a0,s1
80007f94:	b00f80ef          	jal	80000294 <restore>
80007f98:	00100513          	li	a0,1
80007f9c:	fb9ff06f          	j	80007f54 <send+0x54>
80007fa0:	fed718e3          	bne	a4,a3,80007f90 <send+0x90>
80007fa4:	00040513          	mv	a0,s0
80007fa8:	b39fe0ef          	jal	80006ae0 <unsleep>
80007fac:	fddff06f          	j	80007f88 <send+0x88>

80007fb0 <panic>:
80007fb0:	fe010113          	addi	sp,sp,-32
80007fb4:	00112e23          	sw	ra,28(sp)
80007fb8:	00a12623          	sw	a0,12(sp)
80007fbc:	ad0f80ef          	jal	8000028c <disable>
80007fc0:	00c12583          	lw	a1,12(sp)
80007fc4:	8000b537          	lui	a0,0x8000b
80007fc8:	1a850513          	addi	a0,a0,424 # 8000b1a8 <start+0x528>
80007fcc:	425020ef          	jal	8000abf0 <kprintf>
80007fd0:	0000006f          	j	80007fd0 <panic+0x20>

80007fd4 <enqueue>:
80007fd4:	01059593          	slli	a1,a1,0x10
80007fd8:	0105d593          	srli	a1,a1,0x10
80007fdc:	ff858793          	addi	a5,a1,-8
80007fe0:	01079793          	slli	a5,a5,0x10
80007fe4:	0107d793          	srli	a5,a5,0x10
80007fe8:	01200713          	li	a4,18
80007fec:	06f76a63          	bltu	a4,a5,80008060 <enqueue+0x8c>
80007ff0:	00700793          	li	a5,7
80007ff4:	06a7e663          	bltu	a5,a0,80008060 <enqueue+0x8c>
80007ff8:	06400713          	li	a4,100
80007ffc:	02e50733          	mul	a4,a0,a4
80008000:	8000e7b7          	lui	a5,0x8000e
80008004:	a6078793          	addi	a5,a5,-1440 # 8000da60 <proctab>
80008008:	00e787b3          	add	a5,a5,a4
8000800c:	0007d783          	lhu	a5,0(a5)
80008010:	04078863          	beqz	a5,80008060 <enqueue+0x8c>
80008014:	00158593          	addi	a1,a1,1
80008018:	01059593          	slli	a1,a1,0x10
8000801c:	0105d593          	srli	a1,a1,0x10
80008020:	8000e7b7          	lui	a5,0x8000e
80008024:	de078793          	addi	a5,a5,-544 # 8000dde0 <queuetab>
80008028:	00359713          	slli	a4,a1,0x3
8000802c:	00e78733          	add	a4,a5,a4
80008030:	00671603          	lh	a2,6(a4)
80008034:	00351693          	slli	a3,a0,0x3
80008038:	00d786b3          	add	a3,a5,a3
8000803c:	00c69323          	sh	a2,6(a3)
80008040:	00b69223          	sh	a1,4(a3)
80008044:	00361613          	slli	a2,a2,0x3
80008048:	01051693          	slli	a3,a0,0x10
8000804c:	4106d693          	srai	a3,a3,0x10
80008050:	00c787b3          	add	a5,a5,a2
80008054:	00d79223          	sh	a3,4(a5)
80008058:	00d71323          	sh	a3,6(a4)
8000805c:	00008067          	ret
80008060:	fff00513          	li	a0,-1
80008064:	00008067          	ret

80008068 <getitem>:
80008068:	8000e7b7          	lui	a5,0x8000e
8000806c:	de078793          	addi	a5,a5,-544 # 8000dde0 <queuetab>
80008070:	00351713          	slli	a4,a0,0x3
80008074:	00e78733          	add	a4,a5,a4
80008078:	00671603          	lh	a2,6(a4)
8000807c:	00471683          	lh	a3,4(a4)
80008080:	00361713          	slli	a4,a2,0x3
80008084:	00e78733          	add	a4,a5,a4
80008088:	00d71223          	sh	a3,4(a4)
8000808c:	00369693          	slli	a3,a3,0x3
80008090:	00d787b3          	add	a5,a5,a3
80008094:	00c79323          	sh	a2,6(a5)
80008098:	00008067          	ret

8000809c <getfirst>:
8000809c:	8000e7b7          	lui	a5,0x8000e
800080a0:	00351513          	slli	a0,a0,0x3
800080a4:	de078793          	addi	a5,a5,-544 # 8000dde0 <queuetab>
800080a8:	00a787b3          	add	a5,a5,a0
800080ac:	00479503          	lh	a0,4(a5)
800080b0:	00700793          	li	a5,7
800080b4:	00a7c463          	blt	a5,a0,800080bc <getfirst+0x20>
800080b8:	fb1ff06f          	j	80008068 <getitem>
800080bc:	fff00513          	li	a0,-1
800080c0:	00008067          	ret

800080c4 <dequeue>:
800080c4:	ff850713          	addi	a4,a0,-8
800080c8:	01071713          	slli	a4,a4,0x10
800080cc:	01075713          	srli	a4,a4,0x10
800080d0:	01200693          	li	a3,18
800080d4:	04e6ee63          	bltu	a3,a4,80008130 <dequeue+0x6c>
800080d8:	ff010113          	addi	sp,sp,-16
800080dc:	00812423          	sw	s0,8(sp)
800080e0:	8000e437          	lui	s0,0x8000e
800080e4:	de040413          	addi	s0,s0,-544 # 8000dde0 <queuetab>
800080e8:	00351793          	slli	a5,a0,0x3
800080ec:	00f407b3          	add	a5,s0,a5
800080f0:	00479683          	lh	a3,4(a5)
800080f4:	00112623          	sw	ra,12(sp)
800080f8:	00700713          	li	a4,7
800080fc:	fff00793          	li	a5,-1
80008100:	00d74e63          	blt	a4,a3,8000811c <dequeue+0x58>
80008104:	f99ff0ef          	jal	8000809c <getfirst>
80008108:	00351713          	slli	a4,a0,0x3
8000810c:	00e40433          	add	s0,s0,a4
80008110:	fff00713          	li	a4,-1
80008114:	00050793          	mv	a5,a0
80008118:	00e42223          	sw	a4,4(s0)
8000811c:	00c12083          	lw	ra,12(sp)
80008120:	00812403          	lw	s0,8(sp)
80008124:	00078513          	mv	a0,a5
80008128:	01010113          	addi	sp,sp,16
8000812c:	00008067          	ret
80008130:	fff00793          	li	a5,-1
80008134:	00078513          	mv	a0,a5
80008138:	00008067          	ret

8000813c <getlast>:
8000813c:	8000e7b7          	lui	a5,0x8000e
80008140:	de078793          	addi	a5,a5,-544 # 8000dde0 <queuetab>
80008144:	00351713          	slli	a4,a0,0x3
80008148:	00e78733          	add	a4,a5,a4
8000814c:	00471683          	lh	a3,4(a4)
80008150:	00700713          	li	a4,7
80008154:	00d74c63          	blt	a4,a3,8000816c <getlast+0x30>
80008158:	00150513          	addi	a0,a0,1
8000815c:	00351513          	slli	a0,a0,0x3
80008160:	00a787b3          	add	a5,a5,a0
80008164:	00679503          	lh	a0,6(a5)
80008168:	f01ff06f          	j	80008068 <getitem>
8000816c:	fff00513          	li	a0,-1
80008170:	00008067          	ret

80008174 <insert>:
80008174:	ff858713          	addi	a4,a1,-8
80008178:	01071713          	slli	a4,a4,0x10
8000817c:	01075713          	srli	a4,a4,0x10
80008180:	01200693          	li	a3,18
80008184:	00050793          	mv	a5,a0
80008188:	08e6ea63          	bltu	a3,a4,8000821c <insert+0xa8>
8000818c:	00700713          	li	a4,7
80008190:	fff00513          	li	a0,-1
80008194:	08f76663          	bltu	a4,a5,80008220 <insert+0xac>
80008198:	06400693          	li	a3,100
8000819c:	02d786b3          	mul	a3,a5,a3
800081a0:	8000e737          	lui	a4,0x8000e
800081a4:	a6070713          	addi	a4,a4,-1440 # 8000da60 <proctab>
800081a8:	00d70733          	add	a4,a4,a3
800081ac:	00075703          	lhu	a4,0(a4)
800081b0:	06070863          	beqz	a4,80008220 <insert+0xac>
800081b4:	8000e737          	lui	a4,0x8000e
800081b8:	de070693          	addi	a3,a4,-544 # 8000dde0 <queuetab>
800081bc:	00359593          	slli	a1,a1,0x3
800081c0:	00b686b3          	add	a3,a3,a1
800081c4:	00469803          	lh	a6,4(a3)
800081c8:	de070713          	addi	a4,a4,-544
800081cc:	00381693          	slli	a3,a6,0x3
800081d0:	00d706b3          	add	a3,a4,a3
800081d4:	0006a583          	lw	a1,0(a3)
800081d8:	02c5de63          	bge	a1,a2,80008214 <insert+0xa0>
800081dc:	00669503          	lh	a0,6(a3)
800081e0:	00379593          	slli	a1,a5,0x3
800081e4:	00b705b3          	add	a1,a4,a1
800081e8:	00a59323          	sh	a0,6(a1)
800081ec:	01079793          	slli	a5,a5,0x10
800081f0:	00351513          	slli	a0,a0,0x3
800081f4:	4107d793          	srai	a5,a5,0x10
800081f8:	00a70733          	add	a4,a4,a0
800081fc:	01059223          	sh	a6,4(a1)
80008200:	00c5a023          	sw	a2,0(a1)
80008204:	00f71223          	sh	a5,4(a4)
80008208:	00f69323          	sh	a5,6(a3)
8000820c:	00100513          	li	a0,1
80008210:	00008067          	ret
80008214:	00469803          	lh	a6,4(a3)
80008218:	fb5ff06f          	j	800081cc <insert+0x58>
8000821c:	fff00513          	li	a0,-1
80008220:	00008067          	ret

80008224 <insertd>:
80008224:	ff858793          	addi	a5,a1,-8
80008228:	01079793          	slli	a5,a5,0x10
8000822c:	0107d793          	srli	a5,a5,0x10
80008230:	01200693          	li	a3,18
80008234:	00050713          	mv	a4,a0
80008238:	0af6ec63          	bltu	a3,a5,800082f0 <insertd+0xcc>
8000823c:	00700793          	li	a5,7
80008240:	fff00513          	li	a0,-1
80008244:	0ae7e863          	bltu	a5,a4,800082f4 <insertd+0xd0>
80008248:	06400693          	li	a3,100
8000824c:	02d706b3          	mul	a3,a4,a3
80008250:	8000e7b7          	lui	a5,0x8000e
80008254:	a6078793          	addi	a5,a5,-1440 # 8000da60 <proctab>
80008258:	00d787b3          	add	a5,a5,a3
8000825c:	0007d783          	lhu	a5,0(a5)
80008260:	08078a63          	beqz	a5,800082f4 <insertd+0xd0>
80008264:	8000e7b7          	lui	a5,0x8000e
80008268:	de078693          	addi	a3,a5,-544 # 8000dde0 <queuetab>
8000826c:	00359513          	slli	a0,a1,0x3
80008270:	00a686b3          	add	a3,a3,a0
80008274:	00469683          	lh	a3,4(a3)
80008278:	de078793          	addi	a5,a5,-544
8000827c:	00158813          	addi	a6,a1,1
80008280:	00369893          	slli	a7,a3,0x3
80008284:	04d81063          	bne	a6,a3,800082c4 <insertd+0xa0>
80008288:	00371513          	slli	a0,a4,0x3
8000828c:	00a78533          	add	a0,a5,a0
80008290:	00b51323          	sh	a1,6(a0)
80008294:	01071713          	slli	a4,a4,0x10
80008298:	00359593          	slli	a1,a1,0x3
8000829c:	41075713          	srai	a4,a4,0x10
800082a0:	00b785b3          	add	a1,a5,a1
800082a4:	00d51223          	sh	a3,4(a0)
800082a8:	011787b3          	add	a5,a5,a7
800082ac:	00c52023          	sw	a2,0(a0)
800082b0:	00e59223          	sh	a4,4(a1)
800082b4:	00e79323          	sh	a4,6(a5)
800082b8:	02d81463          	bne	a6,a3,800082e0 <insertd+0xbc>
800082bc:	00100513          	li	a0,1
800082c0:	00008067          	ret
800082c4:	01178333          	add	t1,a5,a7
800082c8:	00032503          	lw	a0,0(t1)
800082cc:	faa64ee3          	blt	a2,a0,80008288 <insertd+0x64>
800082d0:	00068593          	mv	a1,a3
800082d4:	40a60633          	sub	a2,a2,a0
800082d8:	00431683          	lh	a3,4(t1)
800082dc:	fa5ff06f          	j	80008280 <insertd+0x5c>
800082e0:	0007a703          	lw	a4,0(a5)
800082e4:	40c70733          	sub	a4,a4,a2
800082e8:	00e7a023          	sw	a4,0(a5)
800082ec:	fd1ff06f          	j	800082bc <insertd+0x98>
800082f0:	fff00513          	li	a0,-1
800082f4:	00008067          	ret

800082f8 <newqueue>:
800082f8:	8000e7b7          	lui	a5,0x8000e
800082fc:	9b479503          	lh	a0,-1612(a5) # 8000d9b4 <nextqid.0>
80008300:	01b00713          	li	a4,27
80008304:	04a74e63          	blt	a4,a0,80008360 <newqueue+0x68>
80008308:	01051693          	slli	a3,a0,0x10
8000830c:	0106d693          	srli	a3,a3,0x10
80008310:	00268713          	addi	a4,a3,2
80008314:	9ae79a23          	sh	a4,-1612(a5)
80008318:	8000e7b7          	lui	a5,0x8000e
8000831c:	de078793          	addi	a5,a5,-544 # 8000dde0 <queuetab>
80008320:	00351713          	slli	a4,a0,0x3
80008324:	00e78733          	add	a4,a5,a4
80008328:	00168693          	addi	a3,a3,1
8000832c:	00d71223          	sh	a3,4(a4)
80008330:	800006b7          	lui	a3,0x80000
80008334:	fff00613          	li	a2,-1
80008338:	fff68593          	addi	a1,a3,-1 # 7fffffff <_start-0x1>
8000833c:	00c71323          	sh	a2,6(a4)
80008340:	00b72023          	sw	a1,0(a4)
80008344:	00150713          	addi	a4,a0,1
80008348:	00371713          	slli	a4,a4,0x3
8000834c:	00e787b3          	add	a5,a5,a4
80008350:	00c79223          	sh	a2,4(a5)
80008354:	00a79323          	sh	a0,6(a5)
80008358:	00d7a023          	sw	a3,0(a5)
8000835c:	00008067          	ret
80008360:	fff00513          	li	a0,-1
80008364:	00008067          	ret

80008368 <semcreate>:
80008368:	ff010113          	addi	sp,sp,-16
8000836c:	00912223          	sw	s1,4(sp)
80008370:	00050493          	mv	s1,a0
80008374:	00112623          	sw	ra,12(sp)
80008378:	00812423          	sw	s0,8(sp)
8000837c:	f11f70ef          	jal	8000028c <disable>
80008380:	0204d263          	bgez	s1,800083a4 <semcreate+0x3c>
80008384:	f11f70ef          	jal	80000294 <restore>
80008388:	fff00413          	li	s0,-1
8000838c:	00c12083          	lw	ra,12(sp)
80008390:	00040513          	mv	a0,s0
80008394:	00812403          	lw	s0,8(sp)
80008398:	00412483          	lw	s1,4(sp)
8000839c:	01010113          	addi	sp,sp,16
800083a0:	00008067          	ret
800083a4:	8005f6b7          	lui	a3,0x8005f
800083a8:	0486a403          	lw	s0,72(a3) # 8005f048 <nextsem.0>
800083ac:	8000e5b7          	lui	a1,0x8000e
800083b0:	00800613          	li	a2,8
800083b4:	00700813          	li	a6,7
800083b8:	d8058593          	addi	a1,a1,-640 # 8000dd80 <semtab>
800083bc:	00c00893          	li	a7,12
800083c0:	00140713          	addi	a4,s0,1
800083c4:	00e85463          	bge	a6,a4,800083cc <semcreate+0x64>
800083c8:	00000713          	li	a4,0
800083cc:	031407b3          	mul	a5,s0,a7
800083d0:	00f587b3          	add	a5,a1,a5
800083d4:	0007c303          	lbu	t1,0(a5)
800083d8:	02031663          	bnez	t1,80008404 <semcreate+0x9c>
800083dc:	04e6a423          	sw	a4,72(a3)
800083e0:	00100713          	li	a4,1
800083e4:	00e78023          	sb	a4,0(a5)
800083e8:	fff00713          	li	a4,-1
800083ec:	f8e40ce3          	beq	s0,a4,80008384 <semcreate+0x1c>
800083f0:	0097a223          	sw	s1,4(a5)
800083f4:	ea1f70ef          	jal	80000294 <restore>
800083f8:	f95ff06f          	j	8000838c <semcreate+0x24>
800083fc:	00070413          	mv	s0,a4
80008400:	fc1ff06f          	j	800083c0 <semcreate+0x58>
80008404:	fff60613          	addi	a2,a2,-1
80008408:	fe061ae3          	bnez	a2,800083fc <semcreate+0x94>
8000840c:	04e6a423          	sw	a4,72(a3)
80008410:	f75ff06f          	j	80008384 <semcreate+0x1c>

80008414 <semcount>:
80008414:	ff010113          	addi	sp,sp,-16
80008418:	00812423          	sw	s0,8(sp)
8000841c:	00112623          	sw	ra,12(sp)
80008420:	00050413          	mv	s0,a0
80008424:	e69f70ef          	jal	8000028c <disable>
80008428:	00700793          	li	a5,7
8000842c:	00050713          	mv	a4,a0
80008430:	0287e063          	bltu	a5,s0,80008450 <semcount+0x3c>
80008434:	00c00693          	li	a3,12
80008438:	02d40433          	mul	s0,s0,a3
8000843c:	8000e7b7          	lui	a5,0x8000e
80008440:	d8078793          	addi	a5,a5,-640 # 8000dd80 <semtab>
80008444:	008787b3          	add	a5,a5,s0
80008448:	0007c683          	lbu	a3,0(a5)
8000844c:	02069263          	bnez	a3,80008470 <semcount+0x5c>
80008450:	00070513          	mv	a0,a4
80008454:	e41f70ef          	jal	80000294 <restore>
80008458:	fff00413          	li	s0,-1
8000845c:	00c12083          	lw	ra,12(sp)
80008460:	00040513          	mv	a0,s0
80008464:	00812403          	lw	s0,8(sp)
80008468:	01010113          	addi	sp,sp,16
8000846c:	00008067          	ret
80008470:	0047a403          	lw	s0,4(a5)
80008474:	e21f70ef          	jal	80000294 <restore>
80008478:	fe5ff06f          	j	8000845c <semcount+0x48>

8000847c <semdelete>:
8000847c:	ff010113          	addi	sp,sp,-16
80008480:	00912223          	sw	s1,4(sp)
80008484:	00112623          	sw	ra,12(sp)
80008488:	00812423          	sw	s0,8(sp)
8000848c:	01212023          	sw	s2,0(sp)
80008490:	00050493          	mv	s1,a0
80008494:	df9f70ef          	jal	8000028c <disable>
80008498:	00700793          	li	a5,7
8000849c:	0297f263          	bgeu	a5,s1,800084c0 <semdelete+0x44>
800084a0:	df5f70ef          	jal	80000294 <restore>
800084a4:	fff00513          	li	a0,-1
800084a8:	00c12083          	lw	ra,12(sp)
800084ac:	00812403          	lw	s0,8(sp)
800084b0:	00412483          	lw	s1,4(sp)
800084b4:	00012903          	lw	s2,0(sp)
800084b8:	01010113          	addi	sp,sp,16
800084bc:	00008067          	ret
800084c0:	00c00793          	li	a5,12
800084c4:	02f484b3          	mul	s1,s1,a5
800084c8:	8000e437          	lui	s0,0x8000e
800084cc:	d8040413          	addi	s0,s0,-640 # 8000dd80 <semtab>
800084d0:	00940433          	add	s0,s0,s1
800084d4:	00044783          	lbu	a5,0(s0)
800084d8:	fc0784e3          	beqz	a5,800084a0 <semdelete+0x24>
800084dc:	00050913          	mv	s2,a0
800084e0:	00040023          	sb	zero,0(s0)
800084e4:	00100513          	li	a0,1
800084e8:	be5fe0ef          	jal	800070cc <resched_cntl>
800084ec:	00442783          	lw	a5,4(s0)
800084f0:	00178713          	addi	a4,a5,1
800084f4:	00e42223          	sw	a4,4(s0)
800084f8:	0007ce63          	bltz	a5,80008514 <semdelete+0x98>
800084fc:	00200513          	li	a0,2
80008500:	bcdfe0ef          	jal	800070cc <resched_cntl>
80008504:	00090513          	mv	a0,s2
80008508:	d8df70ef          	jal	80000294 <restore>
8000850c:	00100513          	li	a0,1
80008510:	f99ff06f          	j	800084a8 <semdelete+0x2c>
80008514:	00841503          	lh	a0,8(s0)
80008518:	b85ff0ef          	jal	8000809c <getfirst>
8000851c:	c35fe0ef          	jal	80007150 <ready>
80008520:	fcdff06f          	j	800084ec <semdelete+0x70>

80008524 <semreset>:
80008524:	fe010113          	addi	sp,sp,-32
80008528:	00812c23          	sw	s0,24(sp)
8000852c:	01212823          	sw	s2,16(sp)
80008530:	01312623          	sw	s3,12(sp)
80008534:	00112e23          	sw	ra,28(sp)
80008538:	00912a23          	sw	s1,20(sp)
8000853c:	01412423          	sw	s4,8(sp)
80008540:	01512223          	sw	s5,4(sp)
80008544:	00050413          	mv	s0,a0
80008548:	00058993          	mv	s3,a1
8000854c:	d41f70ef          	jal	8000028c <disable>
80008550:	00050913          	mv	s2,a0
80008554:	0209c663          	bltz	s3,80008580 <semreset+0x5c>
80008558:	00700793          	li	a5,7
8000855c:	0287e263          	bltu	a5,s0,80008580 <semreset+0x5c>
80008560:	00c00693          	li	a3,12
80008564:	02d406b3          	mul	a3,s0,a3
80008568:	8000e7b7          	lui	a5,0x8000e
8000856c:	d8078713          	addi	a4,a5,-640 # 8000dd80 <semtab>
80008570:	d8078493          	addi	s1,a5,-640
80008574:	00d70733          	add	a4,a4,a3
80008578:	00074683          	lbu	a3,0(a4)
8000857c:	02069a63          	bnez	a3,800085b0 <semreset+0x8c>
80008580:	00090513          	mv	a0,s2
80008584:	d11f70ef          	jal	80000294 <restore>
80008588:	fff00513          	li	a0,-1
8000858c:	01c12083          	lw	ra,28(sp)
80008590:	01812403          	lw	s0,24(sp)
80008594:	01412483          	lw	s1,20(sp)
80008598:	01012903          	lw	s2,16(sp)
8000859c:	00c12983          	lw	s3,12(sp)
800085a0:	00812a03          	lw	s4,8(sp)
800085a4:	00412a83          	lw	s5,4(sp)
800085a8:	02010113          	addi	sp,sp,32
800085ac:	00008067          	ret
800085b0:	00100513          	li	a0,1
800085b4:	00871a83          	lh	s5,8(a4)
800085b8:	fff00a13          	li	s4,-1
800085bc:	b11fe0ef          	jal	800070cc <resched_cntl>
800085c0:	000a8513          	mv	a0,s5
800085c4:	ad9ff0ef          	jal	8000809c <getfirst>
800085c8:	03451663          	bne	a0,s4,800085f4 <semreset+0xd0>
800085cc:	00c00793          	li	a5,12
800085d0:	02f40433          	mul	s0,s0,a5
800085d4:	00200513          	li	a0,2
800085d8:	008487b3          	add	a5,s1,s0
800085dc:	0137a223          	sw	s3,4(a5)
800085e0:	aedfe0ef          	jal	800070cc <resched_cntl>
800085e4:	00090513          	mv	a0,s2
800085e8:	cadf70ef          	jal	80000294 <restore>
800085ec:	00100513          	li	a0,1
800085f0:	f9dff06f          	j	8000858c <semreset+0x68>
800085f4:	b5dfe0ef          	jal	80007150 <ready>
800085f8:	fc9ff06f          	j	800085c0 <semreset+0x9c>

800085fc <setupStack>:
800085fc:	fa450513          	addi	a0,a0,-92
80008600:	00f57793          	andi	a5,a0,15
80008604:	04079c63          	bnez	a5,8000865c <setupStack+0x60>
80008608:	00c52223          	sw	a2,4(a0)
8000860c:	00002637          	lui	a2,0x2
80008610:	88860613          	addi	a2,a2,-1912 # 1888 <_start-0x7fffe778>
80008614:	02d52e23          	sw	a3,60(a0)
80008618:	00b52023          	sw	a1,0(a0)
8000861c:	00c52423          	sw	a2,8(a0)
80008620:	00052623          	sw	zero,12(a0)
80008624:	00052823          	sw	zero,16(a0)
80008628:	00052a23          	sw	zero,20(a0)
8000862c:	00052c23          	sw	zero,24(a0)
80008630:	00052e23          	sw	zero,28(a0)
80008634:	02052023          	sw	zero,32(a0)
80008638:	02052223          	sw	zero,36(a0)
8000863c:	02052423          	sw	zero,40(a0)
80008640:	02052623          	sw	zero,44(a0)
80008644:	02052823          	sw	zero,48(a0)
80008648:	02052a23          	sw	zero,52(a0)
8000864c:	02052c23          	sw	zero,56(a0)
80008650:	00269693          	slli	a3,a3,0x2
80008654:	00d79863          	bne	a5,a3,80008664 <setupStack+0x68>
80008658:	00008067          	ret
8000865c:	fff50513          	addi	a0,a0,-1
80008660:	fa1ff06f          	j	80008600 <setupStack+0x4>
80008664:	00f70633          	add	a2,a4,a5
80008668:	00062583          	lw	a1,0(a2)
8000866c:	00f50633          	add	a2,a0,a5
80008670:	00478793          	addi	a5,a5,4
80008674:	04b62023          	sw	a1,64(a2)
80008678:	fddff06f          	j	80008654 <setupStack+0x58>

8000867c <setupStackFromShell>:
8000867c:	00800793          	li	a5,8
80008680:	00d7f863          	bgeu	a5,a3,80008690 <setupStackFromShell+0x14>
80008684:	ff868793          	addi	a5,a3,-8
80008688:	00279793          	slli	a5,a5,0x2
8000868c:	40f50533          	sub	a0,a0,a5
80008690:	fa450513          	addi	a0,a0,-92
80008694:	00f57813          	andi	a6,a0,15
80008698:	06081463          	bnez	a6,80008700 <setupStackFromShell+0x84>
8000869c:	000027b7          	lui	a5,0x2
800086a0:	88878793          	addi	a5,a5,-1912 # 1888 <_start-0x7fffe778>
800086a4:	00c52223          	sw	a2,4(a0)
800086a8:	00f52423          	sw	a5,8(a0)
800086ac:	00b52023          	sw	a1,0(a0)
800086b0:	00c50793          	addi	a5,a0,12
800086b4:	03c50613          	addi	a2,a0,60
800086b8:	0007a023          	sw	zero,0(a5)
800086bc:	00478793          	addi	a5,a5,4
800086c0:	fec79ce3          	bne	a5,a2,800086b8 <setupStackFromShell+0x3c>
800086c4:	02d52e23          	sw	a3,60(a0)
800086c8:	01000793          	li	a5,16
800086cc:	02068463          	beqz	a3,800086f4 <setupStackFromShell+0x78>
800086d0:	04050613          	addi	a2,a0,64
800086d4:	00800593          	li	a1,8
800086d8:	00281793          	slli	a5,a6,0x2
800086dc:	00f707b3          	add	a5,a4,a5
800086e0:	00f62023          	sw	a5,0(a2)
800086e4:	00080793          	mv	a5,a6
800086e8:	00180813          	addi	a6,a6,1 # 800001 <_start-0x7f7fffff>
800086ec:	00b81e63          	bne	a6,a1,80008708 <setupStackFromShell+0x8c>
800086f0:	01800793          	li	a5,24
800086f4:	01600693          	li	a3,22
800086f8:	02f6f063          	bgeu	a3,a5,80008718 <setupStackFromShell+0x9c>
800086fc:	00008067          	ret
80008700:	fff50513          	addi	a0,a0,-1
80008704:	f91ff06f          	j	80008694 <setupStackFromShell+0x18>
80008708:	00460613          	addi	a2,a2,4
8000870c:	fd0696e3          	bne	a3,a6,800086d8 <setupStackFromShell+0x5c>
80008710:	01178793          	addi	a5,a5,17
80008714:	fe1ff06f          	j	800086f4 <setupStackFromShell+0x78>
80008718:	00279713          	slli	a4,a5,0x2
8000871c:	00e50733          	add	a4,a0,a4
80008720:	00072023          	sw	zero,0(a4)
80008724:	00178793          	addi	a5,a5,1
80008728:	fd1ff06f          	j	800086f8 <setupStackFromShell+0x7c>

8000872c <signal>:
8000872c:	ff010113          	addi	sp,sp,-16
80008730:	00812423          	sw	s0,8(sp)
80008734:	00112623          	sw	ra,12(sp)
80008738:	00912223          	sw	s1,4(sp)
8000873c:	00050413          	mv	s0,a0
80008740:	b4df70ef          	jal	8000028c <disable>
80008744:	00700793          	li	a5,7
80008748:	0287f063          	bgeu	a5,s0,80008768 <signal+0x3c>
8000874c:	b49f70ef          	jal	80000294 <restore>
80008750:	fff00513          	li	a0,-1
80008754:	00c12083          	lw	ra,12(sp)
80008758:	00812403          	lw	s0,8(sp)
8000875c:	00412483          	lw	s1,4(sp)
80008760:	01010113          	addi	sp,sp,16
80008764:	00008067          	ret
80008768:	00c00713          	li	a4,12
8000876c:	02e40433          	mul	s0,s0,a4
80008770:	8000e7b7          	lui	a5,0x8000e
80008774:	d8078793          	addi	a5,a5,-640 # 8000dd80 <semtab>
80008778:	008787b3          	add	a5,a5,s0
8000877c:	0007c703          	lbu	a4,0(a5)
80008780:	fc0706e3          	beqz	a4,8000874c <signal+0x20>
80008784:	0047a703          	lw	a4,4(a5)
80008788:	00050493          	mv	s1,a0
8000878c:	00170693          	addi	a3,a4,1
80008790:	00d7a223          	sw	a3,4(a5)
80008794:	00075863          	bgez	a4,800087a4 <signal+0x78>
80008798:	00879503          	lh	a0,8(a5)
8000879c:	929ff0ef          	jal	800080c4 <dequeue>
800087a0:	9b1fe0ef          	jal	80007150 <ready>
800087a4:	00048513          	mv	a0,s1
800087a8:	aedf70ef          	jal	80000294 <restore>
800087ac:	00100513          	li	a0,1
800087b0:	fa5ff06f          	j	80008754 <signal+0x28>

800087b4 <signaln>:
800087b4:	fe010113          	addi	sp,sp,-32
800087b8:	00912a23          	sw	s1,20(sp)
800087bc:	01212823          	sw	s2,16(sp)
800087c0:	01312623          	sw	s3,12(sp)
800087c4:	00112e23          	sw	ra,28(sp)
800087c8:	00812c23          	sw	s0,24(sp)
800087cc:	00050913          	mv	s2,a0
800087d0:	00058493          	mv	s1,a1
800087d4:	ab9f70ef          	jal	8000028c <disable>
800087d8:	00700793          	li	a5,7
800087dc:	00050993          	mv	s3,a0
800087e0:	0127e463          	bltu	a5,s2,800087e8 <signaln+0x34>
800087e4:	0204d663          	bgez	s1,80008810 <signaln+0x5c>
800087e8:	00098513          	mv	a0,s3
800087ec:	aa9f70ef          	jal	80000294 <restore>
800087f0:	fff00513          	li	a0,-1
800087f4:	01c12083          	lw	ra,28(sp)
800087f8:	01812403          	lw	s0,24(sp)
800087fc:	01412483          	lw	s1,20(sp)
80008800:	01012903          	lw	s2,16(sp)
80008804:	00c12983          	lw	s3,12(sp)
80008808:	02010113          	addi	sp,sp,32
8000880c:	00008067          	ret
80008810:	00c00793          	li	a5,12
80008814:	02f90933          	mul	s2,s2,a5
80008818:	8000e437          	lui	s0,0x8000e
8000881c:	d8040413          	addi	s0,s0,-640 # 8000dd80 <semtab>
80008820:	01240433          	add	s0,s0,s2
80008824:	00044783          	lbu	a5,0(s0)
80008828:	fc0782e3          	beqz	a5,800087ec <signaln+0x38>
8000882c:	00100513          	li	a0,1
80008830:	89dfe0ef          	jal	800070cc <resched_cntl>
80008834:	00049e63          	bnez	s1,80008850 <signaln+0x9c>
80008838:	00200513          	li	a0,2
8000883c:	891fe0ef          	jal	800070cc <resched_cntl>
80008840:	00098513          	mv	a0,s3
80008844:	a51f70ef          	jal	80000294 <restore>
80008848:	00100513          	li	a0,1
8000884c:	fa9ff06f          	j	800087f4 <signaln+0x40>
80008850:	00442783          	lw	a5,4(s0)
80008854:	00178713          	addi	a4,a5,1
80008858:	00e42223          	sw	a4,4(s0)
8000885c:	0007d863          	bgez	a5,8000886c <signaln+0xb8>
80008860:	00841503          	lh	a0,8(s0)
80008864:	861ff0ef          	jal	800080c4 <dequeue>
80008868:	8e9fe0ef          	jal	80007150 <ready>
8000886c:	fff48493          	addi	s1,s1,-1
80008870:	fc5ff06f          	j	80008834 <signaln+0x80>

80008874 <do_syscall>:
80008874:	05052603          	lw	a2,80(a0)
80008878:	ff010113          	addi	sp,sp,-16
8000887c:	00812423          	sw	s0,8(sp)
80008880:	00112623          	sw	ra,12(sp)
80008884:	02100793          	li	a5,33
80008888:	03452583          	lw	a1,52(a0)
8000888c:	00050413          	mv	s0,a0
80008890:	04c7ee63          	bltu	a5,a2,800088ec <do_syscall+0x78>
80008894:	00200793          	li	a5,2
80008898:	00c7ee63          	bltu	a5,a2,800088b4 <do_syscall+0x40>
8000889c:	0ef60063          	beq	a2,a5,8000897c <do_syscall+0x108>
800088a0:	00c12083          	lw	ra,12(sp)
800088a4:	00040513          	mv	a0,s0
800088a8:	00812403          	lw	s0,8(sp)
800088ac:	01010113          	addi	sp,sp,16
800088b0:	00008067          	ret
800088b4:	ffd60713          	addi	a4,a2,-3
800088b8:	00100793          	li	a5,1
800088bc:	00e797b3          	sll	a5,a5,a4
800088c0:	7e20e737          	lui	a4,0x7e20e
800088c4:	7ff70713          	addi	a4,a4,2047 # 7e20e7ff <_start-0x1df1801>
800088c8:	00e7f7b3          	and	a5,a5,a4
800088cc:	fc079ae3          	bnez	a5,800088a0 <do_syscall+0x2c>
800088d0:	00e00793          	li	a5,14
800088d4:	08f60663          	beq	a2,a5,80008960 <do_syscall+0xec>
800088d8:	01600793          	li	a5,22
800088dc:	04f61263          	bne	a2,a5,80008920 <do_syscall+0xac>
800088e0:	f29f90ef          	jal	80002808 <heap_free>
800088e4:	02a42a23          	sw	a0,52(s0)
800088e8:	fb9ff06f          	j	800088a0 <do_syscall+0x2c>
800088ec:	fdc60713          	addi	a4,a2,-36
800088f0:	01e00793          	li	a5,30
800088f4:	02e7e663          	bltu	a5,a4,80008920 <do_syscall+0xac>
800088f8:	00100793          	li	a5,1
800088fc:	7cbfe6b7          	lui	a3,0x7cbfe
80008900:	00e797b3          	sll	a5,a5,a4
80008904:	fff68693          	addi	a3,a3,-1 # 7cbfdfff <_start-0x3402001>
80008908:	00d7f7b3          	and	a5,a5,a3
8000890c:	f8079ae3          	bnez	a5,800088a0 <do_syscall+0x2c>
80008910:	01900793          	li	a5,25
80008914:	02f70e63          	beq	a4,a5,80008950 <do_syscall+0xdc>
80008918:	01600793          	li	a5,22
8000891c:	00f70c63          	beq	a4,a5,80008934 <do_syscall+0xc0>
80008920:	8000b537          	lui	a0,0x8000b
80008924:	00060593          	mv	a1,a2
80008928:	1d450513          	addi	a0,a0,468 # 8000b1d4 <start+0x554>
8000892c:	2c4020ef          	jal	8000abf0 <kprintf>
80008930:	f71ff06f          	j	800088a0 <do_syscall+0x2c>
80008934:	06400793          	li	a5,100
80008938:	02f585b3          	mul	a1,a1,a5
8000893c:	8000e7b7          	lui	a5,0x8000e
80008940:	a6078793          	addi	a5,a5,-1440 # 8000da60 <proctab>
80008944:	00f585b3          	add	a1,a1,a5
80008948:	02b42a23          	sw	a1,52(s0)
8000894c:	f55ff06f          	j	800088a0 <do_syscall+0x2c>
80008950:	800077b7          	lui	a5,0x80007
80008954:	b9878793          	addi	a5,a5,-1128 # 80006b98 <resched>
80008958:	00f42023          	sw	a5,0(s0)
8000895c:	f45ff06f          	j	800088a0 <do_syscall+0x2c>
80008960:	00058513          	mv	a0,a1
80008964:	948fa0ef          	jal	80002aac <malloc>
80008968:	02a42a23          	sw	a0,52(s0)
8000896c:	8000b537          	lui	a0,0x8000b
80008970:	1c850513          	addi	a0,a0,456 # 8000b1c8 <start+0x548>
80008974:	27c020ef          	jal	8000abf0 <kprintf>
80008978:	f29ff06f          	j	800088a0 <do_syscall+0x2c>
8000897c:	8000b537          	lui	a0,0x8000b
80008980:	1d050513          	addi	a0,a0,464 # 8000b1d0 <start+0x550>
80008984:	26c020ef          	jal	8000abf0 <kprintf>
80008988:	02042a23          	sw	zero,52(s0)
8000898c:	f15ff06f          	j	800088a0 <do_syscall+0x2c>

80008990 <syscall_os_init>:
80008990:	80009537          	lui	a0,0x80009
80008994:	ff010113          	addi	sp,sp,-16
80008998:	87450513          	addi	a0,a0,-1932 # 80008874 <do_syscall>
8000899c:	00112623          	sw	ra,12(sp)
800089a0:	96df70ef          	jal	8000030c <exception_set_syscall_handler>
800089a4:	00c12083          	lw	ra,12(sp)
800089a8:	00000513          	li	a0,0
800089ac:	01010113          	addi	sp,sp,16
800089b0:	00008067          	ret

800089b4 <xdone>:
800089b4:	8000b537          	lui	a0,0x8000b
800089b8:	ff010113          	addi	sp,sp,-16
800089bc:	1f450513          	addi	a0,a0,500 # 8000b1f4 <start+0x574>
800089c0:	00112623          	sw	ra,12(sp)
800089c4:	22c020ef          	jal	8000abf0 <kprintf>
800089c8:	0000006f          	j	800089c8 <xdone+0x14>

800089cc <lexan>:
800089cc:	fe010113          	addi	sp,sp,-32
800089d0:	20800eb7          	lui	t4,0x20800
800089d4:	00812e23          	sw	s0,28(sp)
800089d8:	00912c23          	sw	s1,24(sp)
800089dc:	01212a23          	sw	s2,20(sp)
800089e0:	01312823          	sw	s3,16(sp)
800089e4:	01412623          	sw	s4,12(sp)
800089e8:	01512423          	sw	s5,8(sp)
800089ec:	00050593          	mv	a1,a0
800089f0:	00100e13          	li	t3,1
800089f4:	00000813          	li	a6,0
800089f8:	00a00313          	li	t1,10
800089fc:	02100f93          	li	t6,33
80008a00:	02000293          	li	t0,32
80008a04:	00900393          	li	t2,9
80008a08:	02600f13          	li	t5,38
80008a0c:	00300413          	li	s0,3
80008a10:	02700493          	li	s1,39
80008a14:	02200913          	li	s2,34
80008a18:	01e00993          	li	s3,30
80008a1c:	00100a13          	li	s4,1
80008a20:	001e8e93          	addi	t4,t4,1 # 20800001 <_start-0x5f7fffff>
80008a24:	0005c883          	lbu	a7,0(a1)
80008a28:	fffe0513          	addi	a0,t3,-1 # feffff <_start-0x7f010001>
80008a2c:	04088463          	beqz	a7,80008a74 <lexan+0xa8>
80008a30:	04688263          	beq	a7,t1,80008a74 <lexan+0xa8>
80008a34:	03fe1663          	bne	t3,t6,80008a60 <lexan+0x94>
80008a38:	fff00513          	li	a0,-1
80008a3c:	01c12403          	lw	s0,28(sp)
80008a40:	01812483          	lw	s1,24(sp)
80008a44:	01412903          	lw	s2,20(sp)
80008a48:	01012983          	lw	s3,16(sp)
80008a4c:	00c12a03          	lw	s4,12(sp)
80008a50:	00812a83          	lw	s5,8(sp)
80008a54:	02010113          	addi	sp,sp,32
80008a58:	00008067          	ret
80008a5c:	00158593          	addi	a1,a1,1
80008a60:	0005c883          	lbu	a7,0(a1)
80008a64:	fe588ce3          	beq	a7,t0,80008a5c <lexan+0x90>
80008a68:	fe788ae3          	beq	a7,t2,80008a5c <lexan+0x90>
80008a6c:	00688463          	beq	a7,t1,80008a74 <lexan+0xa8>
80008a70:	00089663          	bnez	a7,80008a7c <lexan+0xb0>
80008a74:	0106a023          	sw	a6,0(a3)
80008a78:	fc5ff06f          	j	80008a3c <lexan+0x70>
80008a7c:	01072023          	sw	a6,0(a4)
80008a80:	00158593          	addi	a1,a1,1
80008a84:	03e89863          	bne	a7,t5,80008ab4 <lexan+0xe8>
80008a88:	00180513          	addi	a0,a6,1
80008a8c:	010608b3          	add	a7,a2,a6
80008a90:	0007a023          	sw	zero,0(a5)
80008a94:	01e88023          	sb	t5,0(a7)
80008a98:	00a60533          	add	a0,a2,a0
80008a9c:	00280813          	addi	a6,a6,2
80008aa0:	00050023          	sb	zero,0(a0)
80008aa4:	001e0e13          	addi	t3,t3,1
80008aa8:	00478793          	addi	a5,a5,4
80008aac:	00470713          	addi	a4,a4,4
80008ab0:	f75ff06f          	j	80008a24 <lexan+0x58>
80008ab4:	0087a023          	sw	s0,0(a5)
80008ab8:	00988463          	beq	a7,s1,80008ac0 <lexan+0xf4>
80008abc:	03289863          	bne	a7,s2,80008aec <lexan+0x120>
80008ac0:	00080513          	mv	a0,a6
80008ac4:	0100006f          	j	80008ad4 <lexan+0x108>
80008ac8:	00a60ab3          	add	s5,a2,a0
80008acc:	010a8023          	sb	a6,0(s5)
80008ad0:	00150513          	addi	a0,a0,1
80008ad4:	0005c803          	lbu	a6,0(a1)
80008ad8:	00158593          	addi	a1,a1,1
80008adc:	07088063          	beq	a7,a6,80008b3c <lexan+0x170>
80008ae0:	f4680ce3          	beq	a6,t1,80008a38 <lexan+0x6c>
80008ae4:	fe0812e3          	bnez	a6,80008ac8 <lexan+0xfc>
80008ae8:	f51ff06f          	j	80008a38 <lexan+0x6c>
80008aec:	01060533          	add	a0,a2,a6
80008af0:	01150023          	sb	a7,0(a0)
80008af4:	00180513          	addi	a0,a6,1
80008af8:	0005c883          	lbu	a7,0(a1)
80008afc:	04688063          	beq	a7,t1,80008b3c <lexan+0x170>
80008b00:	02088e63          	beqz	a7,80008b3c <lexan+0x170>
80008b04:	ff788813          	addi	a6,a7,-9
80008b08:	0ff87813          	zext.b	a6,a6
80008b0c:	0109ee63          	bltu	s3,a6,80008b28 <lexan+0x15c>
80008b10:	010a1833          	sll	a6,s4,a6
80008b14:	01d87ab3          	and	s5,a6,t4
80008b18:	020a9263          	bnez	s5,80008b3c <lexan+0x170>
80008b1c:	01985a93          	srli	s5,a6,0x19
80008b20:	021afa93          	andi	s5,s5,33
80008b24:	f00a9ae3          	bnez	s5,80008a38 <lexan+0x6c>
80008b28:	00a60833          	add	a6,a2,a0
80008b2c:	01180023          	sb	a7,0(a6)
80008b30:	00158593          	addi	a1,a1,1
80008b34:	00150513          	addi	a0,a0,1
80008b38:	fc1ff06f          	j	80008af8 <lexan+0x12c>
80008b3c:	00150813          	addi	a6,a0,1
80008b40:	00a60533          	add	a0,a2,a0
80008b44:	f5dff06f          	j	80008aa0 <lexan+0xd4>

80008b48 <update_path>:
80008b48:	8000e5b7          	lui	a1,0x8000e
80008b4c:	ec058513          	addi	a0,a1,-320 # 8000dec0 <curdir>
80008b50:	08050513          	addi	a0,a0,128
80008b54:	ec058593          	addi	a1,a1,-320
80008b58:	e11fb06f          	j	80004968 <strcpy>

80008b5c <full_path>:
80008b5c:	ff010113          	addi	sp,sp,-16
80008b60:	00812423          	sw	s0,8(sp)
80008b64:	00112623          	sw	ra,12(sp)
80008b68:	00912223          	sw	s1,4(sp)
80008b6c:	00050413          	mv	s0,a0
80008b70:	02050463          	beqz	a0,80008b98 <full_path+0x3c>
80008b74:	00054683          	lbu	a3,0(a0)
80008b78:	8000e7b7          	lui	a5,0x8000e
80008b7c:	02f00713          	li	a4,47
80008b80:	f4078493          	addi	s1,a5,-192 # 8000df40 <path>
80008b84:	02e69663          	bne	a3,a4,80008bb0 <full_path+0x54>
80008b88:	00050593          	mv	a1,a0
80008b8c:	f4078513          	addi	a0,a5,-192
80008b90:	dd9fb0ef          	jal	80004968 <strcpy>
80008b94:	00048413          	mv	s0,s1
80008b98:	00c12083          	lw	ra,12(sp)
80008b9c:	00040513          	mv	a0,s0
80008ba0:	00812403          	lw	s0,8(sp)
80008ba4:	00412483          	lw	s1,4(sp)
80008ba8:	01010113          	addi	sp,sp,16
80008bac:	00008067          	ret
80008bb0:	8000b5b7          	lui	a1,0x8000b
80008bb4:	00200613          	li	a2,2
80008bb8:	21c58593          	addi	a1,a1,540 # 8000b21c <start+0x59c>
80008bbc:	c61fb0ef          	jal	8000481c <strncmp>
80008bc0:	00051463          	bnez	a0,80008bc8 <full_path+0x6c>
80008bc4:	00240413          	addi	s0,s0,2
80008bc8:	8000e5b7          	lui	a1,0x8000e
80008bcc:	ec058593          	addi	a1,a1,-320 # 8000dec0 <curdir>
80008bd0:	00048513          	mv	a0,s1
80008bd4:	d95fb0ef          	jal	80004968 <strcpy>
80008bd8:	8000b5b7          	lui	a1,0x8000b
80008bdc:	00300613          	li	a2,3
80008be0:	22058593          	addi	a1,a1,544 # 8000b220 <start+0x5a0>
80008be4:	00040513          	mv	a0,s0
80008be8:	c35fb0ef          	jal	8000481c <strncmp>
80008bec:	00050e63          	beqz	a0,80008c08 <full_path+0xac>
80008bf0:	00044783          	lbu	a5,0(s0)
80008bf4:	fa0780e3          	beqz	a5,80008b94 <full_path+0x38>
80008bf8:	00040593          	mv	a1,s0
80008bfc:	00048513          	mv	a0,s1
80008c00:	db9fb0ef          	jal	800049b8 <strcat>
80008c04:	f91ff06f          	j	80008b94 <full_path+0x38>
80008c08:	02f00593          	li	a1,47
80008c0c:	00048513          	mv	a0,s1
80008c10:	00340413          	addi	s0,s0,3
80008c14:	eb9fb0ef          	jal	80004acc <strrchr>
80008c18:	00050463          	beqz	a0,80008c20 <full_path+0xc4>
80008c1c:	00050023          	sb	zero,0(a0)
80008c20:	02f00593          	li	a1,47
80008c24:	00048513          	mv	a0,s1
80008c28:	ea5fb0ef          	jal	80004acc <strrchr>
80008c2c:	fc0506e3          	beqz	a0,80008bf8 <full_path+0x9c>
80008c30:	000500a3          	sb	zero,1(a0)
80008c34:	fc5ff06f          	j	80008bf8 <full_path+0x9c>

80008c38 <readBytes>:
80008c38:	00050713          	mv	a4,a0
80008c3c:	00000793          	li	a5,0
80008c40:	00058513          	mv	a0,a1
80008c44:	100006b7          	lui	a3,0x10000
80008c48:	00a7c863          	blt	a5,a0,80008c58 <readBytes+0x20>
80008c4c:	00055463          	bgez	a0,80008c54 <readBytes+0x1c>
80008c50:	00000513          	li	a0,0
80008c54:	00008067          	ret
80008c58:	0006c583          	lbu	a1,0(a3) # 10000000 <_start-0x70000000>
80008c5c:	00f70633          	add	a2,a4,a5
80008c60:	00178793          	addi	a5,a5,1
80008c64:	00b60023          	sb	a1,0(a2)
80008c68:	fe1ff06f          	j	80008c48 <readBytes+0x10>

80008c6c <shell>:
80008c6c:	dc010113          	addi	sp,sp,-576
80008c70:	23212823          	sw	s2,560(sp)
80008c74:	8000e937          	lui	s2,0x8000e
80008c78:	22912a23          	sw	s1,564(sp)
80008c7c:	ec090493          	addi	s1,s2,-320 # 8000dec0 <curdir>
80008c80:	08048493          	addi	s1,s1,128
80008c84:	8000b5b7          	lui	a1,0x8000b
80008c88:	22458593          	addi	a1,a1,548 # 8000b224 <start+0x5a4>
80008c8c:	00048513          	mv	a0,s1
80008c90:	22112e23          	sw	ra,572(sp)
80008c94:	23312623          	sw	s3,556(sp)
80008c98:	23412423          	sw	s4,552(sp)
80008c9c:	23512223          	sw	s5,548(sp)
80008ca0:	23612023          	sw	s6,544(sp)
80008ca4:	21712e23          	sw	s7,540(sp)
80008ca8:	22812c23          	sw	s0,568(sp)
80008cac:	21812c23          	sw	s8,536(sp)
80008cb0:	cb9fb0ef          	jal	80004968 <strcpy>
80008cb4:	00048593          	mv	a1,s1
80008cb8:	ec090513          	addi	a0,s2,-320
80008cbc:	cadfb0ef          	jal	80004968 <strcpy>
80008cc0:	8000b7b7          	lui	a5,0x8000b
80008cc4:	33078793          	addi	a5,a5,816 # 8000b330 <start+0x6b0>
80008cc8:	8000b6b7          	lui	a3,0x8000b
80008ccc:	00f12823          	sw	a5,16(sp)
80008cd0:	2d868793          	addi	a5,a3,728 # 8000b2d8 <start+0x658>
80008cd4:	00f12623          	sw	a5,12(sp)
80008cd8:	8000b7b7          	lui	a5,0x8000b
80008cdc:	33878793          	addi	a5,a5,824 # 8000b338 <start+0x6b8>
80008ce0:	00f12423          	sw	a5,8(sp)
80008ce4:	8000b7b7          	lui	a5,0x8000b
80008ce8:	36c78793          	addi	a5,a5,876 # 8000b36c <start+0x6ec>
80008cec:	00f12223          	sw	a5,4(sp)
80008cf0:	8000b7b7          	lui	a5,0x8000b
80008cf4:	39878793          	addi	a5,a5,920 # 8000b398 <start+0x718>
80008cf8:	00f12023          	sw	a5,0(sp)
80008cfc:	8000b8b7          	lui	a7,0x8000b
80008d00:	8000b837          	lui	a6,0x8000b
80008d04:	8000b7b7          	lui	a5,0x8000b
80008d08:	8000b737          	lui	a4,0x8000b
80008d0c:	8000b637          	lui	a2,0x8000b
80008d10:	8000b5b7          	lui	a1,0x8000b
80008d14:	22888893          	addi	a7,a7,552 # 8000b228 <start+0x5a8>
80008d18:	25480813          	addi	a6,a6,596 # 8000b254 <start+0x5d4>
80008d1c:	28078793          	addi	a5,a5,640 # 8000b280 <start+0x600>
80008d20:	2ac70713          	addi	a4,a4,684 # 8000b2ac <start+0x62c>
80008d24:	2d868693          	addi	a3,a3,728
80008d28:	30460613          	addi	a2,a2,772 # 8000b304 <start+0x684>
80008d2c:	30c58593          	addi	a1,a1,780 # 8000b30c <start+0x68c>
80008d30:	00000513          	li	a0,0
80008d34:	a4df90ef          	jal	80002780 <fprintf>
80008d38:	8000b637          	lui	a2,0x8000b
80008d3c:	8000b5b7          	lui	a1,0x8000b
80008d40:	3c460613          	addi	a2,a2,964 # 8000b3c4 <start+0x744>
80008d44:	3d858593          	addi	a1,a1,984 # 8000b3d8 <start+0x758>
80008d48:	00000513          	li	a0,0
80008d4c:	100004b7          	lui	s1,0x10000
80008d50:	8000c9b7          	lui	s3,0x8000c
80008d54:	a2df90ef          	jal	80002780 <fprintf>
80008d58:	8000ba37          	lui	s4,0x8000b
80008d5c:	00548493          	addi	s1,s1,5 # 10000005 <_start-0x6ffffffb>
80008d60:	8000eab7          	lui	s5,0x8000e
80008d64:	5b498b13          	addi	s6,s3,1460 # 8000c5b4 <cmdtab>
80008d68:	8000bbb7          	lui	s7,0x8000b
80008d6c:	3e0a0593          	addi	a1,s4,992 # 8000b3e0 <start+0x760>
80008d70:	00000513          	li	a0,0
80008d74:	a0df90ef          	jal	80002780 <fprintf>
80008d78:	0004c783          	lbu	a5,0(s1)
80008d7c:	06078863          	beqz	a5,80008dec <shell+0x180>
80008d80:	0004c903          	lbu	s2,0(s1)
80008d84:	06091863          	bnez	s2,80008df4 <shell+0x188>
80008d88:	ffe00793          	li	a5,-2
80008d8c:	1af40e63          	beq	s0,a5,80008f48 <shell+0x2dc>
80008d90:	00100793          	li	a5,1
80008d94:	fc87dce3          	bge	a5,s0,80008d6c <shell+0x100>
80008d98:	21040793          	addi	a5,s0,528
80008d9c:	00a00713          	li	a4,10
80008da0:	002787b3          	add	a5,a5,sp
80008da4:	e0e78c23          	sb	a4,-488(a5)
80008da8:	02410693          	addi	a3,sp,36
80008dac:	11010793          	addi	a5,sp,272
80008db0:	09010713          	addi	a4,sp,144
80008db4:	04c10613          	addi	a2,sp,76
80008db8:	00040593          	mv	a1,s0
80008dbc:	02810513          	addi	a0,sp,40
80008dc0:	c0dff0ef          	jal	800089cc <lexan>
80008dc4:	fff00793          	li	a5,-1
80008dc8:	00050713          	mv	a4,a0
80008dcc:	02f51e63          	bne	a0,a5,80008e08 <shell+0x19c>
80008dd0:	8000b637          	lui	a2,0x8000b
80008dd4:	8000b5b7          	lui	a1,0x8000b
80008dd8:	3e860613          	addi	a2,a2,1000 # 8000b3e8 <start+0x768>
80008ddc:	3f858593          	addi	a1,a1,1016 # 8000b3f8 <start+0x778>
80008de0:	00000513          	li	a0,0
80008de4:	99df90ef          	jal	80002780 <fprintf>
80008de8:	f85ff06f          	j	80008d6c <shell+0x100>
80008dec:	cd5fd0ef          	jal	80006ac0 <yield>
80008df0:	f89ff06f          	j	80008d78 <shell+0x10c>
80008df4:	02100593          	li	a1,33
80008df8:	02810513          	addi	a0,sp,40
80008dfc:	e3dff0ef          	jal	80008c38 <readBytes>
80008e00:	00050413          	mv	s0,a0
80008e04:	f7dff06f          	j	80008d80 <shell+0x114>
80008e08:	00051a63          	bnez	a0,80008e1c <shell+0x1b0>
80008e0c:	8000c5b7          	lui	a1,0x8000c
80008e10:	8dc58593          	addi	a1,a1,-1828 # 8000b8dc <start+0xc5c>
80008e14:	96df90ef          	jal	80002780 <fprintf>
80008e18:	f55ff06f          	j	80008d6c <shell+0x100>
80008e1c:	fff50693          	addi	a3,a0,-1
80008e20:	00269793          	slli	a5,a3,0x2
80008e24:	21078793          	addi	a5,a5,528
80008e28:	002787b3          	add	a5,a5,sp
80008e2c:	f007a783          	lw	a5,-256(a5)
80008e30:	00079c63          	bnez	a5,80008e48 <shell+0x1dc>
80008e34:	02412783          	lw	a5,36(sp)
80008e38:	00068713          	mv	a4,a3
80008e3c:	00100913          	li	s2,1
80008e40:	ffe78793          	addi	a5,a5,-2
80008e44:	02f12223          	sw	a5,36(sp)
80008e48:	11010793          	addi	a5,sp,272
80008e4c:	00000693          	li	a3,0
80008e50:	00300613          	li	a2,3
80008e54:	00e6ca63          	blt	a3,a4,80008e68 <shell+0x1fc>
80008e58:	02071263          	bnez	a4,80008e7c <shell+0x210>
80008e5c:	3e8b8593          	addi	a1,s7,1000 # 8000b3e8 <start+0x768>
80008e60:	00000513          	li	a0,0
80008e64:	fb1ff06f          	j	80008e14 <shell+0x1a8>
80008e68:	0007a583          	lw	a1,0(a5)
80008e6c:	00478793          	addi	a5,a5,4
80008e70:	fec596e3          	bne	a1,a2,80008e5c <shell+0x1f0>
80008e74:	00168693          	addi	a3,a3,1
80008e78:	fddff06f          	j	80008e54 <shell+0x1e8>
80008e7c:	9c0aa503          	lw	a0,-1600(s5) # 8000d9c0 <ncmd>
80008e80:	5b498613          	addi	a2,s3,1460
80008e84:	00000693          	li	a3,0
80008e88:	04a69063          	bne	a3,a0,80008ec8 <shell+0x25c>
80008e8c:	06a6fa63          	bgeu	a3,a0,80008f00 <shell+0x294>
80008e90:	19010613          	addi	a2,sp,400
80008e94:	09010813          	addi	a6,sp,144
80008e98:	00000513          	li	a0,0
80008e9c:	00060793          	mv	a5,a2
80008ea0:	06e54863          	blt	a0,a4,80008f10 <shell+0x2a4>
80008ea4:	00c00613          	li	a2,12
80008ea8:	02c686b3          	mul	a3,a3,a2
80008eac:	00db0833          	add	a6,s6,a3
80008eb0:	00484683          	lbu	a3,4(a6)
80008eb4:	0c068c63          	beqz	a3,80008f8c <shell+0x320>
80008eb8:	06090c63          	beqz	s2,80008f30 <shell+0x2c4>
80008ebc:	8000b5b7          	lui	a1,0x8000b
80008ec0:	41458593          	addi	a1,a1,1044 # 8000b414 <start+0x794>
80008ec4:	f9dff06f          	j	80008e60 <shell+0x1f4>
80008ec8:	00062583          	lw	a1,0(a2)
80008ecc:	04c10793          	addi	a5,sp,76
80008ed0:	0005c803          	lbu	a6,0(a1)
80008ed4:	00081c63          	bnez	a6,80008eec <shell+0x280>
80008ed8:	0007c783          	lbu	a5,0(a5)
80008edc:	fa0788e3          	beqz	a5,80008e8c <shell+0x220>
80008ee0:	00168693          	addi	a3,a3,1
80008ee4:	00c60613          	addi	a2,a2,12
80008ee8:	fa1ff06f          	j	80008e88 <shell+0x21c>
80008eec:	0007c883          	lbu	a7,0(a5)
80008ef0:	ff0898e3          	bne	a7,a6,80008ee0 <shell+0x274>
80008ef4:	00158593          	addi	a1,a1,1
80008ef8:	00178793          	addi	a5,a5,1
80008efc:	fd5ff06f          	j	80008ed0 <shell+0x264>
80008f00:	8000b5b7          	lui	a1,0x8000b
80008f04:	04c10613          	addi	a2,sp,76
80008f08:	3fc58593          	addi	a1,a1,1020 # 8000b3fc <start+0x77c>
80008f0c:	ed5ff06f          	j	80008de0 <shell+0x174>
80008f10:	00082883          	lw	a7,0(a6)
80008f14:	04c10593          	addi	a1,sp,76
80008f18:	00150513          	addi	a0,a0,1
80008f1c:	011588b3          	add	a7,a1,a7
80008f20:	01162023          	sw	a7,0(a2)
80008f24:	00480813          	addi	a6,a6,4
80008f28:	00460613          	addi	a2,a2,4
80008f2c:	f75ff06f          	j	80008ea0 <shell+0x234>
80008f30:	00882683          	lw	a3,8(a6)
80008f34:	00078593          	mv	a1,a5
80008f38:	00070513          	mv	a0,a4
80008f3c:	000680e7          	jalr	a3
80008f40:	ffd00793          	li	a5,-3
80008f44:	e2f514e3          	bne	a0,a5,80008d6c <shell+0x100>
80008f48:	8000b5b7          	lui	a1,0x8000b
80008f4c:	45c58593          	addi	a1,a1,1116 # 8000b45c <start+0x7dc>
80008f50:	00000513          	li	a0,0
80008f54:	82df90ef          	jal	80002780 <fprintf>
80008f58:	23c12083          	lw	ra,572(sp)
80008f5c:	23812403          	lw	s0,568(sp)
80008f60:	23412483          	lw	s1,564(sp)
80008f64:	23012903          	lw	s2,560(sp)
80008f68:	22c12983          	lw	s3,556(sp)
80008f6c:	22812a03          	lw	s4,552(sp)
80008f70:	22412a83          	lw	s5,548(sp)
80008f74:	22012b03          	lw	s6,544(sp)
80008f78:	21c12b83          	lw	s7,540(sp)
80008f7c:	21812c03          	lw	s8,536(sp)
80008f80:	00100513          	li	a0,1
80008f84:	24010113          	addi	sp,sp,576
80008f88:	00008067          	ret
80008f8c:	00082683          	lw	a3,0(a6)
80008f90:	00882503          	lw	a0,8(a6)
80008f94:	01400613          	li	a2,20
80008f98:	000025b7          	lui	a1,0x2
80008f9c:	ee0fd0ef          	jal	8000667c <createFromShell>
80008fa0:	fff00793          	li	a5,-1
80008fa4:	00050c13          	mv	s8,a0
80008fa8:	00f51863          	bne	a0,a5,80008fb8 <shell+0x34c>
80008fac:	8000b5b7          	lui	a1,0x8000b
80008fb0:	44458593          	addi	a1,a1,1092 # 8000b444 <start+0x7c4>
80008fb4:	eadff06f          	j	80008e60 <shell+0x1f4>
80008fb8:	06400713          	li	a4,100
80008fbc:	02e50733          	mul	a4,a0,a4
80008fc0:	8000e7b7          	lui	a5,0x8000e
80008fc4:	a6078793          	addi	a5,a5,-1440 # 8000da60 <proctab>
80008fc8:	00e787b3          	add	a5,a5,a4
80008fcc:	02079923          	sh	zero,50(a5)
80008fd0:	02079a23          	sh	zero,52(a5)
80008fd4:	df9fe0ef          	jal	80007dcc <recvclr>
80008fd8:	000c0513          	mv	a0,s8
80008fdc:	a58fe0ef          	jal	80007234 <resume>
80008fe0:	d80916e3          	bnez	s2,80008d6c <shell+0x100>
80008fe4:	d5dfe0ef          	jal	80007d40 <receive>
80008fe8:	ff851ee3          	bne	a0,s8,80008fe4 <shell+0x378>
80008fec:	d81ff06f          	j	80008d6c <shell+0x100>

80008ff0 <xsh_aes>:
80008ff0:	00000513          	li	a0,0
80008ff4:	00008067          	ret

80008ff8 <xsh_blink>:
80008ff8:	00000513          	li	a0,0
80008ffc:	00008067          	ret

80009000 <xsh_cat>:
80009000:	00000513          	li	a0,0
80009004:	00008067          	ret

80009008 <xsh_cd>:
80009008:	00000513          	li	a0,0
8000900c:	00008067          	ret

80009010 <xsh_devdump>:
80009010:	00100793          	li	a5,1
80009014:	08a7c463          	blt	a5,a0,8000909c <xsh_devdump+0x8c>
80009018:	8000b537          	lui	a0,0x8000b
8000901c:	fe010113          	addi	sp,sp,-32
80009020:	51450513          	addi	a0,a0,1300 # 8000b514 <start+0x894>
80009024:	00112e23          	sw	ra,28(sp)
80009028:	00812c23          	sw	s0,24(sp)
8000902c:	00912a23          	sw	s1,20(sp)
80009030:	01212823          	sw	s2,16(sp)
80009034:	01312623          	sw	s3,12(sp)
80009038:	ec9fa0ef          	jal	80003f00 <printf>
8000903c:	8000b537          	lui	a0,0x8000b
80009040:	53050513          	addi	a0,a0,1328 # 8000b530 <start+0x8b0>
80009044:	8000e437          	lui	s0,0x8000e
80009048:	eb9fa0ef          	jal	80003f00 <printf>
8000904c:	8f440413          	addi	s0,s0,-1804 # 8000d8f4 <devtab>
80009050:	00000493          	li	s1,0
80009054:	8000b9b7          	lui	s3,0x8000b
80009058:	00300913          	li	s2,3
8000905c:	00442683          	lw	a3,4(s0)
80009060:	00842603          	lw	a2,8(s0)
80009064:	00048593          	mv	a1,s1
80009068:	54c98513          	addi	a0,s3,1356 # 8000b54c <start+0x8cc>
8000906c:	00148493          	addi	s1,s1,1
80009070:	e91fa0ef          	jal	80003f00 <printf>
80009074:	03c40413          	addi	s0,s0,60
80009078:	ff2492e3          	bne	s1,s2,8000905c <xsh_devdump+0x4c>
8000907c:	01c12083          	lw	ra,28(sp)
80009080:	01812403          	lw	s0,24(sp)
80009084:	01412483          	lw	s1,20(sp)
80009088:	01012903          	lw	s2,16(sp)
8000908c:	00c12983          	lw	s3,12(sp)
80009090:	00000513          	li	a0,0
80009094:	02010113          	addi	sp,sp,32
80009098:	00008067          	ret
8000909c:	00100513          	li	a0,1
800090a0:	00008067          	ret

800090a4 <xsh_dump>:
800090a4:	00000513          	li	a0,0
800090a8:	00008067          	ret

800090ac <xsh_echo>:
800090ac:	fe010113          	addi	sp,sp,-32
800090b0:	00112e23          	sw	ra,28(sp)
800090b4:	00812c23          	sw	s0,24(sp)
800090b8:	00912a23          	sw	s1,20(sp)
800090bc:	01212823          	sw	s2,16(sp)
800090c0:	01312623          	sw	s3,12(sp)
800090c4:	00100793          	li	a5,1
800090c8:	02a7d463          	bge	a5,a0,800090f0 <xsh_echo+0x44>
800090cc:	00058913          	mv	s2,a1
800090d0:	0045a583          	lw	a1,4(a1)
800090d4:	00050413          	mv	s0,a0
800090d8:	8000b537          	lui	a0,0x8000b
800090dc:	1d050513          	addi	a0,a0,464 # 8000b1d0 <start+0x550>
800090e0:	e21fa0ef          	jal	80003f00 <printf>
800090e4:	00200493          	li	s1,2
800090e8:	8000b9b7          	lui	s3,0x8000b
800090ec:	02849863          	bne	s1,s0,8000911c <xsh_echo+0x70>
800090f0:	8000c537          	lui	a0,0x8000c
800090f4:	8dc50513          	addi	a0,a0,-1828 # 8000b8dc <start+0xc5c>
800090f8:	e09fa0ef          	jal	80003f00 <printf>
800090fc:	01c12083          	lw	ra,28(sp)
80009100:	01812403          	lw	s0,24(sp)
80009104:	01412483          	lw	s1,20(sp)
80009108:	01012903          	lw	s2,16(sp)
8000910c:	00c12983          	lw	s3,12(sp)
80009110:	00000513          	li	a0,0
80009114:	02010113          	addi	sp,sp,32
80009118:	00008067          	ret
8000911c:	00249793          	slli	a5,s1,0x2
80009120:	00f907b3          	add	a5,s2,a5
80009124:	0007a583          	lw	a1,0(a5)
80009128:	56098513          	addi	a0,s3,1376 # 8000b560 <start+0x8e0>
8000912c:	00148493          	addi	s1,s1,1
80009130:	dd1fa0ef          	jal	80003f00 <printf>
80009134:	fb9ff06f          	j	800090ec <xsh_echo+0x40>

80009138 <xsh_exit>:
80009138:	ffd00513          	li	a0,-3
8000913c:	00008067          	ret

80009140 <xsh_format>:
80009140:	00000513          	li	a0,0
80009144:	00008067          	ret

80009148 <get_cycles>:
80009148:	c0002573          	rdcycle	a0
8000914c:	00008067          	ret

80009150 <workload>:
80009150:	ff010113          	addi	sp,sp,-16
80009154:	000f47b7          	lui	a5,0xf4
80009158:	00012623          	sw	zero,12(sp)
8000915c:	23f78793          	addi	a5,a5,575 # f423f <_start-0x7ff0bdc1>
80009160:	00c12703          	lw	a4,12(sp)
80009164:	00e7d663          	bge	a5,a4,80009170 <workload+0x20>
80009168:	01010113          	addi	sp,sp,16
8000916c:	00008067          	ret
80009170:	00c12703          	lw	a4,12(sp)
80009174:	00170713          	addi	a4,a4,1
80009178:	00e12623          	sw	a4,12(sp)
8000917c:	fe5ff06f          	j	80009160 <workload+0x10>

80009180 <xsh_freq>:
80009180:	ff010113          	addi	sp,sp,-16
80009184:	00112623          	sw	ra,12(sp)
80009188:	00812423          	sw	s0,8(sp)
8000918c:	c00027f3          	rdcycle	a5
80009190:	8005f437          	lui	s0,0x8005f
80009194:	04f42823          	sw	a5,80(s0) # 8005f050 <cycles_start>
80009198:	fb9ff0ef          	jal	80009150 <workload>
8000919c:	c00027f3          	rdcycle	a5
800091a0:	04f42823          	sw	a5,80(s0)
800091a4:	8005f7b7          	lui	a5,0x8005f
800091a8:	04c7a583          	lw	a1,76(a5) # 8005f04c <cycles_end>
800091ac:	05042783          	lw	a5,80(s0)
800091b0:	8000b537          	lui	a0,0x8000b
800091b4:	56450513          	addi	a0,a0,1380 # 8000b564 <start+0x8e4>
800091b8:	40f585b3          	sub	a1,a1,a5
800091bc:	000f47b7          	lui	a5,0xf4
800091c0:	24078793          	addi	a5,a5,576 # f4240 <_start-0x7ff0bdc0>
800091c4:	02f5d5b3          	divu	a1,a1,a5
800091c8:	d39fa0ef          	jal	80003f00 <printf>
800091cc:	00c12083          	lw	ra,12(sp)
800091d0:	00812403          	lw	s0,8(sp)
800091d4:	00000513          	li	a0,0
800091d8:	01010113          	addi	sp,sp,16
800091dc:	00008067          	ret

800091e0 <xsh_help>:
800091e0:	fb010113          	addi	sp,sp,-80
800091e4:	04812423          	sw	s0,72(sp)
800091e8:	04112623          	sw	ra,76(sp)
800091ec:	04912223          	sw	s1,68(sp)
800091f0:	05212023          	sw	s2,64(sp)
800091f4:	03312e23          	sw	s3,60(sp)
800091f8:	03412c23          	sw	s4,56(sp)
800091fc:	03512a23          	sw	s5,52(sp)
80009200:	03612823          	sw	s6,48(sp)
80009204:	03712623          	sw	s7,44(sp)
80009208:	03812423          	sw	s8,40(sp)
8000920c:	03912223          	sw	s9,36(sp)
80009210:	03a12023          	sw	s10,32(sp)
80009214:	01b12e23          	sw	s11,28(sp)
80009218:	00200793          	li	a5,2
8000921c:	00058413          	mv	s0,a1
80009220:	0cf51663          	bne	a0,a5,800092ec <xsh_help+0x10c>
80009224:	00442503          	lw	a0,4(s0)
80009228:	8000b4b7          	lui	s1,0x8000b
8000922c:	00700613          	li	a2,7
80009230:	56c48593          	addi	a1,s1,1388 # 8000b56c <start+0x8ec>
80009234:	de8fb0ef          	jal	8000481c <strncmp>
80009238:	0e051463          	bnez	a0,80009320 <xsh_help+0x140>
8000923c:	8000b537          	lui	a0,0x8000b
80009240:	57450513          	addi	a0,a0,1396 # 8000b574 <start+0x8f4>
80009244:	cbdfa0ef          	jal	80003f00 <printf>
80009248:	00042583          	lw	a1,0(s0)
8000924c:	8000b537          	lui	a0,0x8000b
80009250:	57c50513          	addi	a0,a0,1404 # 8000b57c <start+0x8fc>
80009254:	cadfa0ef          	jal	80003f00 <printf>
80009258:	8000b537          	lui	a0,0x8000b
8000925c:	58c50513          	addi	a0,a0,1420 # 8000b58c <start+0x90c>
80009260:	ca1fa0ef          	jal	80003f00 <printf>
80009264:	8000b537          	lui	a0,0x8000b
80009268:	59c50513          	addi	a0,a0,1436 # 8000b59c <start+0x91c>
8000926c:	c95fa0ef          	jal	80003f00 <printf>
80009270:	8000b537          	lui	a0,0x8000b
80009274:	5c450513          	addi	a0,a0,1476 # 8000b5c4 <start+0x944>
80009278:	c89fa0ef          	jal	80003f00 <printf>
8000927c:	8000b537          	lui	a0,0x8000b
80009280:	5f050513          	addi	a0,a0,1520 # 8000b5f0 <start+0x970>
80009284:	c7dfa0ef          	jal	80003f00 <printf>
80009288:	8000b537          	lui	a0,0x8000b
8000928c:	5fc50513          	addi	a0,a0,1532 # 8000b5fc <start+0x97c>
80009290:	c71fa0ef          	jal	80003f00 <printf>
80009294:	8000b537          	lui	a0,0x8000b
80009298:	62450513          	addi	a0,a0,1572 # 8000b624 <start+0x9a4>
8000929c:	c65fa0ef          	jal	80003f00 <printf>
800092a0:	8000b537          	lui	a0,0x8000b
800092a4:	64050513          	addi	a0,a0,1600 # 8000b640 <start+0x9c0>
800092a8:	c59fa0ef          	jal	80003f00 <printf>
800092ac:	00000513          	li	a0,0
800092b0:	04c12083          	lw	ra,76(sp)
800092b4:	04812403          	lw	s0,72(sp)
800092b8:	04412483          	lw	s1,68(sp)
800092bc:	04012903          	lw	s2,64(sp)
800092c0:	03c12983          	lw	s3,60(sp)
800092c4:	03812a03          	lw	s4,56(sp)
800092c8:	03412a83          	lw	s5,52(sp)
800092cc:	03012b03          	lw	s6,48(sp)
800092d0:	02c12b83          	lw	s7,44(sp)
800092d4:	02812c03          	lw	s8,40(sp)
800092d8:	02412c83          	lw	s9,36(sp)
800092dc:	02012d03          	lw	s10,32(sp)
800092e0:	01c12d83          	lw	s11,28(sp)
800092e4:	05010113          	addi	sp,sp,80
800092e8:	00008067          	ret
800092ec:	0ca7d663          	bge	a5,a0,800093b8 <xsh_help+0x1d8>
800092f0:	0005a603          	lw	a2,0(a1)
800092f4:	8000b5b7          	lui	a1,0x8000b
800092f8:	66458593          	addi	a1,a1,1636 # 8000b664 <start+0x9e4>
800092fc:	00000513          	li	a0,0
80009300:	c80f90ef          	jal	80002780 <fprintf>
80009304:	00042603          	lw	a2,0(s0)
80009308:	8000b5b7          	lui	a1,0x8000b
8000930c:	67c58593          	addi	a1,a1,1660 # 8000b67c <start+0x9fc>
80009310:	00000513          	li	a0,0
80009314:	c6cf90ef          	jal	80002780 <fprintf>
80009318:	00100513          	li	a0,1
8000931c:	f95ff06f          	j	800092b0 <xsh_help+0xd0>
80009320:	00442603          	lw	a2,4(s0)
80009324:	8000c737          	lui	a4,0x8000c
80009328:	8000e7b7          	lui	a5,0x8000e
8000932c:	9c07a883          	lw	a7,-1600(a5) # 8000d9c0 <ncmd>
80009330:	5b470593          	addi	a1,a4,1460 # 8000c5b4 <cmdtab>
80009334:	00000793          	li	a5,0
80009338:	5b470713          	addi	a4,a4,1460
8000933c:	01179c63          	bne	a5,a7,80009354 <xsh_help+0x174>
80009340:	00042583          	lw	a1,0(s0)
80009344:	8000b537          	lui	a0,0x8000b
80009348:	6a450513          	addi	a0,a0,1700 # 8000b6a4 <start+0xa24>
8000934c:	bb5fa0ef          	jal	80003f00 <printf>
80009350:	fc9ff06f          	j	80009318 <xsh_help+0x138>
80009354:	0005a503          	lw	a0,0(a1)
80009358:	00060693          	mv	a3,a2
8000935c:	00054803          	lbu	a6,0(a0)
80009360:	00081c63          	bnez	a6,80009378 <xsh_help+0x198>
80009364:	0006c683          	lbu	a3,0(a3)
80009368:	02068263          	beqz	a3,8000938c <xsh_help+0x1ac>
8000936c:	00178793          	addi	a5,a5,1
80009370:	00c58593          	addi	a1,a1,12
80009374:	fc9ff06f          	j	8000933c <xsh_help+0x15c>
80009378:	0006c303          	lbu	t1,0(a3)
8000937c:	ff0318e3          	bne	t1,a6,8000936c <xsh_help+0x18c>
80009380:	00150513          	addi	a0,a0,1
80009384:	00168693          	addi	a3,a3,1
80009388:	fd5ff06f          	j	8000935c <xsh_help+0x17c>
8000938c:	00c00693          	li	a3,12
80009390:	02d787b3          	mul	a5,a5,a3
80009394:	56c48493          	addi	s1,s1,1388
80009398:	00c12423          	sw	a2,8(sp)
8000939c:	00912623          	sw	s1,12(sp)
800093a0:	00810593          	addi	a1,sp,8
800093a4:	00200513          	li	a0,2
800093a8:	00f70733          	add	a4,a4,a5
800093ac:	00872783          	lw	a5,8(a4)
800093b0:	000780e7          	jalr	a5
800093b4:	ef9ff06f          	j	800092ac <xsh_help+0xcc>
800093b8:	8000b537          	lui	a0,0x8000b
800093bc:	8000c937          	lui	s2,0x8000c
800093c0:	6c450513          	addi	a0,a0,1732 # 8000b6c4 <start+0xa44>
800093c4:	5b490a93          	addi	s5,s2,1460 # 8000c5b4 <cmdtab>
800093c8:	b39fa0ef          	jal	80003f00 <printf>
800093cc:	00000493          	li	s1,0
800093d0:	00000a13          	li	s4,0
800093d4:	5b490913          	addi	s2,s2,1460
800093d8:	8000e9b7          	lui	s3,0x8000e
800093dc:	9c09a403          	lw	s0,-1600(s3) # 8000d9c0 <ncmd>
800093e0:	048a6863          	bltu	s4,s0,80009430 <xsh_help+0x250>
800093e4:	00148493          	addi	s1,s1,1
800093e8:	05000793          	li	a5,80
800093ec:	0297c7b3          	div	a5,a5,s1
800093f0:	00600713          	li	a4,6
800093f4:	00f75463          	bge	a4,a5,800093fc <xsh_help+0x21c>
800093f8:	00600793          	li	a5,6
800093fc:	fff40413          	addi	s0,s0,-1
80009400:	05000a93          	li	s5,80
80009404:	00f40433          	add	s0,s0,a5
80009408:	02facab3          	div	s5,s5,a5
8000940c:	00000a13          	li	s4,0
80009410:	00c00b93          	li	s7,12
80009414:	8000bc37          	lui	s8,0x8000b
80009418:	8000bcb7          	lui	s9,0x8000b
8000941c:	8000cd37          	lui	s10,0x8000c
80009420:	02f45433          	divu	s0,s0,a5
80009424:	e88a54e3          	bge	s4,s0,800092ac <xsh_help+0xcc>
80009428:	000a0d93          	mv	s11,s4
8000942c:	0540006f          	j	80009480 <xsh_help+0x2a0>
80009430:	000aa503          	lw	a0,0(s5)
80009434:	05000593          	li	a1,80
80009438:	de8fb0ef          	jal	80004a20 <strnlen>
8000943c:	00a4d463          	bge	s1,a0,80009444 <xsh_help+0x264>
80009440:	00050493          	mv	s1,a0
80009444:	001a0a13          	addi	s4,s4,1
80009448:	00ca8a93          	addi	s5,s5,12
8000944c:	f91ff06f          	j	800093dc <xsh_help+0x1fc>
80009450:	037d87b3          	mul	a5,s11,s7
80009454:	05000593          	li	a1,80
80009458:	00f907b3          	add	a5,s2,a5
8000945c:	0007ab03          	lw	s6,0(a5)
80009460:	000b0513          	mv	a0,s6
80009464:	dbcfb0ef          	jal	80004a20 <strnlen>
80009468:	00050493          	mv	s1,a0
8000946c:	000b0593          	mv	a1,s6
80009470:	1d0c0513          	addi	a0,s8,464 # 8000b1d0 <start+0x550>
80009474:	a8dfa0ef          	jal	80003f00 <printf>
80009478:	0354c063          	blt	s1,s5,80009498 <xsh_help+0x2b8>
8000947c:	008d8db3          	add	s11,s11,s0
80009480:	9c09a783          	lw	a5,-1600(s3)
80009484:	fcfde6e3          	bltu	s11,a5,80009450 <xsh_help+0x270>
80009488:	8dcd0513          	addi	a0,s10,-1828 # 8000b8dc <start+0xc5c>
8000948c:	a75fa0ef          	jal	80003f00 <printf>
80009490:	001a0a13          	addi	s4,s4,1
80009494:	f91ff06f          	j	80009424 <xsh_help+0x244>
80009498:	368c8513          	addi	a0,s9,872 # 8000b368 <start+0x6e8>
8000949c:	a65fa0ef          	jal	80003f00 <printf>
800094a0:	00148493          	addi	s1,s1,1
800094a4:	fd5ff06f          	j	80009478 <xsh_help+0x298>

800094a8 <xsh_kill>:
800094a8:	fe010113          	addi	sp,sp,-32
800094ac:	00812c23          	sw	s0,24(sp)
800094b0:	00112e23          	sw	ra,28(sp)
800094b4:	00200793          	li	a5,2
800094b8:	00058413          	mv	s0,a1
800094bc:	06f51863          	bne	a0,a5,8000952c <xsh_kill+0x84>
800094c0:	00442503          	lw	a0,4(s0)
800094c4:	8000b5b7          	lui	a1,0x8000b
800094c8:	00700613          	li	a2,7
800094cc:	56c58593          	addi	a1,a1,1388 # 8000b56c <start+0x8ec>
800094d0:	b4cfb0ef          	jal	8000481c <strncmp>
800094d4:	08051c63          	bnez	a0,8000956c <xsh_kill+0xc4>
800094d8:	00042583          	lw	a1,0(s0)
800094dc:	8000b537          	lui	a0,0x8000b
800094e0:	6dc50513          	addi	a0,a0,1756 # 8000b6dc <start+0xa5c>
800094e4:	a1dfa0ef          	jal	80003f00 <printf>
800094e8:	8000b537          	lui	a0,0x8000b
800094ec:	58c50513          	addi	a0,a0,1420 # 8000b58c <start+0x90c>
800094f0:	a11fa0ef          	jal	80003f00 <printf>
800094f4:	8000b537          	lui	a0,0x8000b
800094f8:	6ec50513          	addi	a0,a0,1772 # 8000b6ec <start+0xa6c>
800094fc:	a05fa0ef          	jal	80003f00 <printf>
80009500:	8000b537          	lui	a0,0x8000b
80009504:	5f050513          	addi	a0,a0,1520 # 8000b5f0 <start+0x970>
80009508:	9f9fa0ef          	jal	80003f00 <printf>
8000950c:	8000b537          	lui	a0,0x8000b
80009510:	70450513          	addi	a0,a0,1796 # 8000b704 <start+0xa84>
80009514:	9edfa0ef          	jal	80003f00 <printf>
80009518:	8000b537          	lui	a0,0x8000b
8000951c:	64050513          	addi	a0,a0,1600 # 8000b640 <start+0x9c0>
80009520:	9e1fa0ef          	jal	80003f00 <printf>
80009524:	00100793          	li	a5,1
80009528:	0300006f          	j	80009558 <xsh_kill+0xb0>
8000952c:	0005a603          	lw	a2,0(a1)
80009530:	8000b5b7          	lui	a1,0x8000b
80009534:	72c58593          	addi	a1,a1,1836 # 8000b72c <start+0xaac>
80009538:	00000513          	li	a0,0
8000953c:	a44f90ef          	jal	80002780 <fprintf>
80009540:	00042603          	lw	a2,0(s0)
80009544:	8000b5b7          	lui	a1,0x8000b
80009548:	67c58593          	addi	a1,a1,1660 # 8000b67c <start+0x9fc>
8000954c:	00000513          	li	a0,0
80009550:	a30f90ef          	jal	80002780 <fprintf>
80009554:	fff00793          	li	a5,-1
80009558:	01c12083          	lw	ra,28(sp)
8000955c:	01812403          	lw	s0,24(sp)
80009560:	00078513          	mv	a0,a5
80009564:	02010113          	addi	sp,sp,32
80009568:	00008067          	ret
8000956c:	00442783          	lw	a5,4(s0)
80009570:	00000693          	li	a3,0
80009574:	00900613          	li	a2,9
80009578:	00178713          	addi	a4,a5,1
8000957c:	0007c783          	lbu	a5,0(a5)
80009580:	00a00593          	li	a1,10
80009584:	00079c63          	bnez	a5,8000959c <xsh_kill+0xf4>
80009588:	04069663          	bnez	a3,800095d4 <xsh_kill+0x12c>
8000958c:	8000b5b7          	lui	a1,0x8000b
80009590:	00042603          	lw	a2,0(s0)
80009594:	76458593          	addi	a1,a1,1892 # 8000b764 <start+0xae4>
80009598:	01c0006f          	j	800095b4 <xsh_kill+0x10c>
8000959c:	fd078793          	addi	a5,a5,-48
800095a0:	0ff7f513          	zext.b	a0,a5
800095a4:	00a67e63          	bgeu	a2,a0,800095c0 <xsh_kill+0x118>
800095a8:	00042603          	lw	a2,0(s0)
800095ac:	8000b5b7          	lui	a1,0x8000b
800095b0:	74458593          	addi	a1,a1,1860 # 8000b744 <start+0xac4>
800095b4:	00000513          	li	a0,0
800095b8:	9c8f90ef          	jal	80002780 <fprintf>
800095bc:	f69ff06f          	j	80009524 <xsh_kill+0x7c>
800095c0:	02b686b3          	mul	a3,a3,a1
800095c4:	00170713          	addi	a4,a4,1
800095c8:	00d786b3          	add	a3,a5,a3
800095cc:	fff74783          	lbu	a5,-1(a4)
800095d0:	fb5ff06f          	j	80009584 <xsh_kill+0xdc>
800095d4:	00068513          	mv	a0,a3
800095d8:	00d12623          	sw	a3,12(sp)
800095dc:	ef0fd0ef          	jal	80006ccc <kill>
800095e0:	fff00713          	li	a4,-1
800095e4:	00c12683          	lw	a3,12(sp)
800095e8:	00000793          	li	a5,0
800095ec:	f6e516e3          	bne	a0,a4,80009558 <xsh_kill+0xb0>
800095f0:	00042603          	lw	a2,0(s0)
800095f4:	8000b5b7          	lui	a1,0x8000b
800095f8:	78858593          	addi	a1,a1,1928 # 8000b788 <start+0xb08>
800095fc:	00000513          	li	a0,0
80009600:	980f90ef          	jal	80002780 <fprintf>
80009604:	f21ff06f          	j	80009524 <xsh_kill+0x7c>

80009608 <xsh_ls>:
80009608:	00000513          	li	a0,0
8000960c:	00008067          	ret

80009610 <xsh_memdump>:
80009610:	00200793          	li	a5,2
80009614:	02f50063          	beq	a0,a5,80009634 <xsh_memdump+0x24>
80009618:	00000513          	li	a0,0
8000961c:	00008067          	ret
80009620:	00000513          	li	a0,0
80009624:	00c12083          	lw	ra,12(sp)
80009628:	00812403          	lw	s0,8(sp)
8000962c:	01010113          	addi	sp,sp,16
80009630:	00008067          	ret
80009634:	ff010113          	addi	sp,sp,-16
80009638:	00812423          	sw	s0,8(sp)
8000963c:	00058413          	mv	s0,a1
80009640:	00442503          	lw	a0,4(s0)
80009644:	8000b5b7          	lui	a1,0x8000b
80009648:	00700613          	li	a2,7
8000964c:	56c58593          	addi	a1,a1,1388 # 8000b56c <start+0x8ec>
80009650:	00112623          	sw	ra,12(sp)
80009654:	9c8fb0ef          	jal	8000481c <strncmp>
80009658:	fc0514e3          	bnez	a0,80009620 <xsh_memdump+0x10>
8000965c:	00042583          	lw	a1,0(s0)
80009660:	8000b537          	lui	a0,0x8000b
80009664:	7a450513          	addi	a0,a0,1956 # 8000b7a4 <start+0xb24>
80009668:	899fa0ef          	jal	80003f00 <printf>
8000966c:	8000b537          	lui	a0,0x8000b
80009670:	58c50513          	addi	a0,a0,1420 # 8000b58c <start+0x90c>
80009674:	88dfa0ef          	jal	80003f00 <printf>
80009678:	00100513          	li	a0,1
8000967c:	fa9ff06f          	j	80009624 <xsh_memdump+0x14>

80009680 <xsh_memstat>:
80009680:	ff010113          	addi	sp,sp,-16
80009684:	00112623          	sw	ra,12(sp)
80009688:	00812423          	sw	s0,8(sp)
8000968c:	00912223          	sw	s1,4(sp)
80009690:	00058413          	mv	s0,a1
80009694:	00050493          	mv	s1,a0
80009698:	970f90ef          	jal	80002808 <heap_free>
8000969c:	00050593          	mv	a1,a0
800096a0:	8000b537          	lui	a0,0x8000b
800096a4:	7c850513          	addi	a0,a0,1992 # 8000b7c8 <start+0xb48>
800096a8:	548010ef          	jal	8000abf0 <kprintf>
800096ac:	00200793          	li	a5,2
800096b0:	0af49463          	bne	s1,a5,80009758 <xsh_memstat+0xd8>
800096b4:	00442503          	lw	a0,4(s0)
800096b8:	8000b5b7          	lui	a1,0x8000b
800096bc:	00700613          	li	a2,7
800096c0:	56c58593          	addi	a1,a1,1388 # 8000b56c <start+0x8ec>
800096c4:	958fb0ef          	jal	8000481c <strncmp>
800096c8:	02050e63          	beqz	a0,80009704 <xsh_memstat+0x84>
800096cc:	00042583          	lw	a1,0(s0)
800096d0:	8000b537          	lui	a0,0x8000b
800096d4:	66450513          	addi	a0,a0,1636 # 8000b664 <start+0x9e4>
800096d8:	829fa0ef          	jal	80003f00 <printf>
800096dc:	00042583          	lw	a1,0(s0)
800096e0:	8000b537          	lui	a0,0x8000b
800096e4:	67c50513          	addi	a0,a0,1660 # 8000b67c <start+0x9fc>
800096e8:	819fa0ef          	jal	80003f00 <printf>
800096ec:	00100513          	li	a0,1
800096f0:	00c12083          	lw	ra,12(sp)
800096f4:	00812403          	lw	s0,8(sp)
800096f8:	00412483          	lw	s1,4(sp)
800096fc:	01010113          	addi	sp,sp,16
80009700:	00008067          	ret
80009704:	00042583          	lw	a1,0(s0)
80009708:	8000b537          	lui	a0,0x8000b
8000970c:	7dc50513          	addi	a0,a0,2012 # 8000b7dc <start+0xb5c>
80009710:	ff0fa0ef          	jal	80003f00 <printf>
80009714:	8000b537          	lui	a0,0x8000b
80009718:	58c50513          	addi	a0,a0,1420 # 8000b58c <start+0x90c>
8000971c:	fe4fa0ef          	jal	80003f00 <printf>
80009720:	8000b537          	lui	a0,0x8000b
80009724:	7e850513          	addi	a0,a0,2024 # 8000b7e8 <start+0xb68>
80009728:	fd8fa0ef          	jal	80003f00 <printf>
8000972c:	8000c537          	lui	a0,0x8000c
80009730:	81c50513          	addi	a0,a0,-2020 # 8000b81c <start+0xb9c>
80009734:	fccfa0ef          	jal	80003f00 <printf>
80009738:	8000b537          	lui	a0,0x8000b
8000973c:	5f050513          	addi	a0,a0,1520 # 8000b5f0 <start+0x970>
80009740:	fc0fa0ef          	jal	80003f00 <printf>
80009744:	8000c537          	lui	a0,0x8000c
80009748:	82c50513          	addi	a0,a0,-2004 # 8000b82c <start+0xbac>
8000974c:	fb4fa0ef          	jal	80003f00 <printf>
80009750:	00000513          	li	a0,0
80009754:	f9dff06f          	j	800096f0 <xsh_memstat+0x70>
80009758:	00100793          	li	a5,1
8000975c:	f697c8e3          	blt	a5,s1,800096cc <xsh_memstat+0x4c>
80009760:	8000c537          	lui	a0,0x8000c
80009764:	85450513          	addi	a0,a0,-1964 # 8000b854 <start+0xbd4>
80009768:	f98fa0ef          	jal	80003f00 <printf>
8000976c:	8000c537          	lui	a0,0x8000c
80009770:	86050513          	addi	a0,a0,-1952 # 8000b860 <start+0xbe0>
80009774:	f8cfa0ef          	jal	80003f00 <printf>
80009778:	8000c537          	lui	a0,0x8000c
8000977c:	88c50513          	addi	a0,a0,-1908 # 8000b88c <start+0xc0c>
80009780:	f80fa0ef          	jal	80003f00 <printf>
80009784:	8005f7b7          	lui	a5,0x8005f
80009788:	0407a403          	lw	s0,64(a5) # 8005f040 <memlist>
8000978c:	8000c4b7          	lui	s1,0x8000c
80009790:	00041863          	bnez	s0,800097a0 <xsh_memstat+0x120>
80009794:	8000c537          	lui	a0,0x8000c
80009798:	8dc50513          	addi	a0,a0,-1828 # 8000b8dc <start+0xc5c>
8000979c:	fb1ff06f          	j	8000974c <xsh_memstat+0xcc>
800097a0:	00442683          	lw	a3,4(s0)
800097a4:	00040593          	mv	a1,s0
800097a8:	8b848513          	addi	a0,s1,-1864 # 8000b8b8 <start+0xc38>
800097ac:	00068613          	mv	a2,a3
800097b0:	f50fa0ef          	jal	80003f00 <printf>
800097b4:	00042403          	lw	s0,0(s0)
800097b8:	fd9ff06f          	j	80009790 <xsh_memstat+0x110>

800097bc <xsh_mkdir>:
800097bc:	00000513          	li	a0,0
800097c0:	00008067          	ret

800097c4 <xsh_ps>:
800097c4:	fc010113          	addi	sp,sp,-64
800097c8:	02812c23          	sw	s0,56(sp)
800097cc:	00058413          	mv	s0,a1
800097d0:	8000c5b7          	lui	a1,0x8000c
800097d4:	02912a23          	sw	s1,52(sp)
800097d8:	02000613          	li	a2,32
800097dc:	00050493          	mv	s1,a0
800097e0:	6ec58593          	addi	a1,a1,1772 # 8000c6ec <cmdtab+0x138>
800097e4:	00010513          	mv	a0,sp
800097e8:	02112e23          	sw	ra,60(sp)
800097ec:	03212823          	sw	s2,48(sp)
800097f0:	03312623          	sw	s3,44(sp)
800097f4:	f05fa0ef          	jal	800046f8 <memcpy>
800097f8:	00200793          	li	a5,2
800097fc:	0af49663          	bne	s1,a5,800098a8 <xsh_ps+0xe4>
80009800:	00442503          	lw	a0,4(s0)
80009804:	8000b5b7          	lui	a1,0x8000b
80009808:	00700613          	li	a2,7
8000980c:	56c58593          	addi	a1,a1,1388 # 8000b56c <start+0x8ec>
80009810:	80cfb0ef          	jal	8000481c <strncmp>
80009814:	04050663          	beqz	a0,80009860 <xsh_ps+0x9c>
80009818:	00042603          	lw	a2,0(s0)
8000981c:	8000b5b7          	lui	a1,0x8000b
80009820:	66458593          	addi	a1,a1,1636 # 8000b664 <start+0x9e4>
80009824:	00000513          	li	a0,0
80009828:	f59f80ef          	jal	80002780 <fprintf>
8000982c:	00042603          	lw	a2,0(s0)
80009830:	8000b5b7          	lui	a1,0x8000b
80009834:	67c58593          	addi	a1,a1,1660 # 8000b67c <start+0x9fc>
80009838:	00000513          	li	a0,0
8000983c:	f45f80ef          	jal	80002780 <fprintf>
80009840:	00100513          	li	a0,1
80009844:	03c12083          	lw	ra,60(sp)
80009848:	03812403          	lw	s0,56(sp)
8000984c:	03412483          	lw	s1,52(sp)
80009850:	03012903          	lw	s2,48(sp)
80009854:	02c12983          	lw	s3,44(sp)
80009858:	04010113          	addi	sp,sp,64
8000985c:	00008067          	ret
80009860:	00042583          	lw	a1,0(s0)
80009864:	8000c537          	lui	a0,0x8000c
80009868:	8d450513          	addi	a0,a0,-1836 # 8000b8d4 <start+0xc54>
8000986c:	e94fa0ef          	jal	80003f00 <printf>
80009870:	8000b537          	lui	a0,0x8000b
80009874:	58c50513          	addi	a0,a0,1420 # 8000b58c <start+0x90c>
80009878:	e88fa0ef          	jal	80003f00 <printf>
8000987c:	8000c537          	lui	a0,0x8000c
80009880:	8e050513          	addi	a0,a0,-1824 # 8000b8e0 <start+0xc60>
80009884:	e7cfa0ef          	jal	80003f00 <printf>
80009888:	8000b537          	lui	a0,0x8000b
8000988c:	5f050513          	addi	a0,a0,1520 # 8000b5f0 <start+0x970>
80009890:	e70fa0ef          	jal	80003f00 <printf>
80009894:	8000c537          	lui	a0,0x8000c
80009898:	91050513          	addi	a0,a0,-1776 # 8000b910 <start+0xc90>
8000989c:	e64fa0ef          	jal	80003f00 <printf>
800098a0:	00000513          	li	a0,0
800098a4:	fa1ff06f          	j	80009844 <xsh_ps+0x80>
800098a8:	00100793          	li	a5,1
800098ac:	f697c6e3          	blt	a5,s1,80009818 <xsh_ps+0x54>
800098b0:	8000c437          	lui	s0,0x8000c
800098b4:	8000c837          	lui	a6,0x8000c
800098b8:	8000c7b7          	lui	a5,0x8000c
800098bc:	8000c737          	lui	a4,0x8000c
800098c0:	8000c6b7          	lui	a3,0x8000c
800098c4:	8000c637          	lui	a2,0x8000c
800098c8:	8000c5b7          	lui	a1,0x8000c
800098cc:	93880813          	addi	a6,a6,-1736 # 8000b938 <start+0xcb8>
800098d0:	94478793          	addi	a5,a5,-1724 # 8000b944 <start+0xcc4>
800098d4:	95070713          	addi	a4,a4,-1712 # 8000b950 <start+0xcd0>
800098d8:	95c68693          	addi	a3,a3,-1700 # 8000b95c <start+0xcdc>
800098dc:	96460613          	addi	a2,a2,-1692 # 8000b964 <start+0xce4>
800098e0:	96c58593          	addi	a1,a1,-1684 # 8000b96c <start+0xcec>
800098e4:	97040513          	addi	a0,s0,-1680 # 8000b970 <start+0xcf0>
800098e8:	e18fa0ef          	jal	80003f00 <printf>
800098ec:	8000b737          	lui	a4,0x8000b
800098f0:	8000c6b7          	lui	a3,0x8000c
800098f4:	8000c637          	lui	a2,0x8000c
800098f8:	8000c5b7          	lui	a1,0x8000c
800098fc:	2f870813          	addi	a6,a4,760 # 8000b2f8 <start+0x678>
80009900:	2f870793          	addi	a5,a4,760
80009904:	97040513          	addi	a0,s0,-1680
80009908:	2f870713          	addi	a4,a4,760
8000990c:	99068693          	addi	a3,a3,-1648 # 8000b990 <start+0xd10>
80009910:	99860613          	addi	a2,a2,-1640 # 8000b998 <start+0xd18>
80009914:	9ac58593          	addi	a1,a1,-1620 # 8000b9ac <start+0xd2c>
80009918:	8000e437          	lui	s0,0x8000e
8000991c:	de4fa0ef          	jal	80003f00 <printf>
80009920:	a6040413          	addi	s0,s0,-1440 # 8000da60 <proctab>
80009924:	00000493          	li	s1,0
80009928:	8000c9b7          	lui	s3,0x8000c
8000992c:	00800913          	li	s2,8
80009930:	00045783          	lhu	a5,0(s0)
80009934:	02078863          	beqz	a5,80009964 <xsh_ps+0x1a0>
80009938:	00279793          	slli	a5,a5,0x2
8000993c:	02078793          	addi	a5,a5,32
80009940:	002786b3          	add	a3,a5,sp
80009944:	00c42803          	lw	a6,12(s0)
80009948:	00442783          	lw	a5,4(s0)
8000994c:	00842703          	lw	a4,8(s0)
80009950:	fe06a683          	lw	a3,-32(a3)
80009954:	01040613          	addi	a2,s0,16
80009958:	00048593          	mv	a1,s1
8000995c:	9b098513          	addi	a0,s3,-1616 # 8000b9b0 <start+0xd30>
80009960:	da0fa0ef          	jal	80003f00 <printf>
80009964:	00148493          	addi	s1,s1,1
80009968:	06440413          	addi	s0,s0,100
8000996c:	fd2492e3          	bne	s1,s2,80009930 <xsh_ps+0x16c>
80009970:	f31ff06f          	j	800098a0 <xsh_ps+0xdc>

80009974 <xsh_pwd>:
80009974:	00000513          	li	a0,0
80009978:	00008067          	ret

8000997c <xsh_reboot>:
8000997c:	000077b7          	lui	a5,0x7
80009980:	77778793          	addi	a5,a5,1911 # 7777 <_start-0x7fff8889>
80009984:	111002b7          	lui	t0,0x11100
80009988:	00f2a023          	sw	a5,0(t0) # 11100000 <_start-0x6ef00000>
8000998c:	00000513          	li	a0,0
80009990:	00008067          	ret

80009994 <xsh_rm>:
80009994:	00000513          	li	a0,0
80009998:	00008067          	ret

8000999c <xsh_run>:
8000999c:	00000513          	li	a0,0
800099a0:	00008067          	ret

800099a4 <ex0>:
800099a4:	0005a803          	lw	a6,0(a1)
800099a8:	8000c7b7          	lui	a5,0x8000c
800099ac:	8000c6b7          	lui	a3,0x8000c
800099b0:	8000a537          	lui	a0,0x8000a
800099b4:	ff010113          	addi	sp,sp,-16
800099b8:	a1078793          	addi	a5,a5,-1520 # 8000ba10 <start+0xd90>
800099bc:	00200713          	li	a4,2
800099c0:	a2068693          	addi	a3,a3,-1504 # 8000ba20 <start+0xda0>
800099c4:	00100613          	li	a2,1
800099c8:	000025b7          	lui	a1,0x2
800099cc:	a8450513          	addi	a0,a0,-1404 # 80009a84 <ex1>
800099d0:	00112623          	sw	ra,12(sp)
800099d4:	e39fc0ef          	jal	8000680c <create>
800099d8:	85dfd0ef          	jal	80007234 <resume>
800099dc:	00c12083          	lw	ra,12(sp)
800099e0:	00100513          	li	a0,1
800099e4:	01010113          	addi	sp,sp,16
800099e8:	00008067          	ret

800099ec <fibonacci_recursivo>:
800099ec:	ff010113          	addi	sp,sp,-16
800099f0:	00812423          	sw	s0,8(sp)
800099f4:	00912223          	sw	s1,4(sp)
800099f8:	01212023          	sw	s2,0(sp)
800099fc:	00112623          	sw	ra,12(sp)
80009a00:	00050413          	mv	s0,a0
80009a04:	00000493          	li	s1,0
80009a08:	00100913          	li	s2,1
80009a0c:	00805e63          	blez	s0,80009a28 <fibonacci_recursivo+0x3c>
80009a10:	03240c63          	beq	s0,s2,80009a48 <fibonacci_recursivo+0x5c>
80009a14:	fff40513          	addi	a0,s0,-1
80009a18:	fd5ff0ef          	jal	800099ec <fibonacci_recursivo>
80009a1c:	ffe40413          	addi	s0,s0,-2
80009a20:	00a484b3          	add	s1,s1,a0
80009a24:	fe9ff06f          	j	80009a0c <fibonacci_recursivo+0x20>
80009a28:	00000513          	li	a0,0
80009a2c:	00c12083          	lw	ra,12(sp)
80009a30:	00812403          	lw	s0,8(sp)
80009a34:	00012903          	lw	s2,0(sp)
80009a38:	00950533          	add	a0,a0,s1
80009a3c:	00412483          	lw	s1,4(sp)
80009a40:	01010113          	addi	sp,sp,16
80009a44:	00008067          	ret
80009a48:	00100513          	li	a0,1
80009a4c:	fe1ff06f          	j	80009a2c <fibonacci_recursivo+0x40>

80009a50 <factorial_recursivo>:
80009a50:	00100793          	li	a5,1
80009a54:	00100693          	li	a3,1
80009a58:	00054c63          	bltz	a0,80009a70 <factorial_recursivo+0x20>
80009a5c:	00050713          	mv	a4,a0
80009a60:	00a6fe63          	bgeu	a3,a0,80009a7c <factorial_recursivo+0x2c>
80009a64:	02e787b3          	mul	a5,a5,a4
80009a68:	fff50513          	addi	a0,a0,-1
80009a6c:	fedff06f          	j	80009a58 <factorial_recursivo+0x8>
80009a70:	00000513          	li	a0,0
80009a74:	02f50533          	mul	a0,a0,a5
80009a78:	00008067          	ret
80009a7c:	00100513          	li	a0,1
80009a80:	ff5ff06f          	j	80009a74 <factorial_recursivo+0x24>

80009a84 <ex1>:
80009a84:	fe010113          	addi	sp,sp,-32
80009a88:	00812c23          	sw	s0,24(sp)
80009a8c:	00058413          	mv	s0,a1
80009a90:	00442503          	lw	a0,4(s0)
80009a94:	0005a583          	lw	a1,0(a1) # 2000 <_start-0x7fffe000>
80009a98:	00112e23          	sw	ra,28(sp)
80009a9c:	00b12623          	sw	a1,12(sp)
80009aa0:	a0dfa0ef          	jal	800044ac <atoi>
80009aa4:	00c12583          	lw	a1,12(sp)
80009aa8:	00050613          	mv	a2,a0
80009aac:	8000c537          	lui	a0,0x8000c
80009ab0:	a2850513          	addi	a0,a0,-1496 # 8000ba28 <start+0xda8>
80009ab4:	c4cfa0ef          	jal	80003f00 <printf>
80009ab8:	00442503          	lw	a0,4(s0)
80009abc:	9f1fa0ef          	jal	800044ac <atoi>
80009ac0:	f91ff0ef          	jal	80009a50 <factorial_recursivo>
80009ac4:	00050593          	mv	a1,a0
80009ac8:	8000c537          	lui	a0,0x8000c
80009acc:	a3050513          	addi	a0,a0,-1488 # 8000ba30 <start+0xdb0>
80009ad0:	c30fa0ef          	jal	80003f00 <printf>
80009ad4:	8000c537          	lui	a0,0x8000c
80009ad8:	a4050513          	addi	a0,a0,-1472 # 8000ba40 <start+0xdc0>
80009adc:	c24fa0ef          	jal	80003f00 <printf>
80009ae0:	01c12083          	lw	ra,28(sp)
80009ae4:	01812403          	lw	s0,24(sp)
80009ae8:	00100513          	li	a0,1
80009aec:	02010113          	addi	sp,sp,32
80009af0:	00008067          	ret

80009af4 <xsh_test2>:
80009af4:	fd010113          	addi	sp,sp,-48
80009af8:	02812423          	sw	s0,40(sp)
80009afc:	02912223          	sw	s1,36(sp)
80009b00:	03212023          	sw	s2,32(sp)
80009b04:	01312e23          	sw	s3,28(sp)
80009b08:	01412c23          	sw	s4,24(sp)
80009b0c:	02112623          	sw	ra,44(sp)
80009b10:	00000413          	li	s0,0
80009b14:	8000ba37          	lui	s4,0x8000b
80009b18:	8000c9b7          	lui	s3,0x8000c
80009b1c:	8000a937          	lui	s2,0x8000a
80009b20:	3e800493          	li	s1,1000
80009b24:	00a00693          	li	a3,10
80009b28:	00a00613          	li	a2,10
80009b2c:	00410593          	addi	a1,sp,4
80009b30:	00040513          	mv	a0,s0
80009b34:	af1fa0ef          	jal	80004624 <itoa>
80009b38:	01041613          	slli	a2,s0,0x10
80009b3c:	1c0a0813          	addi	a6,s4,448 # 8000b1c0 <start+0x540>
80009b40:	00410793          	addi	a5,sp,4
80009b44:	00200713          	li	a4,2
80009b48:	a7098693          	addi	a3,s3,-1424 # 8000ba70 <start+0xdf0>
80009b4c:	41065613          	srai	a2,a2,0x10
80009b50:	000015b7          	lui	a1,0x1
80009b54:	9a490513          	addi	a0,s2,-1628 # 800099a4 <ex0>
80009b58:	cb5fc0ef          	jal	8000680c <create>
80009b5c:	ed8fd0ef          	jal	80007234 <resume>
80009b60:	00140413          	addi	s0,s0,1
80009b64:	9dcfe0ef          	jal	80007d40 <receive>
80009b68:	fa941ee3          	bne	s0,s1,80009b24 <xsh_test2+0x30>
80009b6c:	02c12083          	lw	ra,44(sp)
80009b70:	02812403          	lw	s0,40(sp)
80009b74:	02412483          	lw	s1,36(sp)
80009b78:	02012903          	lw	s2,32(sp)
80009b7c:	01c12983          	lw	s3,28(sp)
80009b80:	01812a03          	lw	s4,24(sp)
80009b84:	00000513          	li	a0,0
80009b88:	03010113          	addi	sp,sp,48
80009b8c:	00008067          	ret

80009b90 <xsh_test>:
80009b90:	fb010113          	addi	sp,sp,-80
80009b94:	8000c5b7          	lui	a1,0x8000c
80009b98:	01000613          	li	a2,16
80009b9c:	a9c58593          	addi	a1,a1,-1380 # 8000ba9c <start+0xe1c>
80009ba0:	00010513          	mv	a0,sp
80009ba4:	04112623          	sw	ra,76(sp)
80009ba8:	04812423          	sw	s0,72(sp)
80009bac:	04912223          	sw	s1,68(sp)
80009bb0:	05212023          	sw	s2,64(sp)
80009bb4:	b45fa0ef          	jal	800046f8 <memcpy>
80009bb8:	01000613          	li	a2,16
80009bbc:	00010593          	mv	a1,sp
80009bc0:	01010513          	addi	a0,sp,16
80009bc4:	b35fa0ef          	jal	800046f8 <memcpy>
80009bc8:	8000c5b7          	lui	a1,0x8000c
80009bcc:	02000613          	li	a2,32
80009bd0:	70c58593          	addi	a1,a1,1804 # 8000c70c <cmdtab+0x158>
80009bd4:	02010513          	addi	a0,sp,32
80009bd8:	b21fa0ef          	jal	800046f8 <memcpy>
80009bdc:	02010513          	addi	a0,sp,32
80009be0:	910f70ef          	jal	80000cf0 <AES_setKey>
80009be4:	00010513          	mv	a0,sp
80009be8:	a90f70ef          	jal	80000e78 <AES256_encrypt>
80009bec:	00010413          	mv	s0,sp
80009bf0:	00410493          	addi	s1,sp,4
80009bf4:	8000c937          	lui	s2,0x8000c
80009bf8:	00c44703          	lbu	a4,12(s0)
80009bfc:	00844683          	lbu	a3,8(s0)
80009c00:	00444603          	lbu	a2,4(s0)
80009c04:	00044583          	lbu	a1,0(s0)
80009c08:	a7890513          	addi	a0,s2,-1416 # 8000ba78 <start+0xdf8>
80009c0c:	00140413          	addi	s0,s0,1
80009c10:	af0fa0ef          	jal	80003f00 <printf>
80009c14:	fe9412e3          	bne	s0,s1,80009bf8 <xsh_test+0x68>
80009c18:	8000c537          	lui	a0,0x8000c
80009c1c:	8dc50513          	addi	a0,a0,-1828 # 8000b8dc <start+0xc5c>
80009c20:	ae0fa0ef          	jal	80003f00 <printf>
80009c24:	00010513          	mv	a0,sp
80009c28:	b0cf70ef          	jal	80000f34 <AES256_decrypt>
80009c2c:	00000793          	li	a5,0
80009c30:	01000693          	li	a3,16
80009c34:	00f10733          	add	a4,sp,a5
80009c38:	00074603          	lbu	a2,0(a4)
80009c3c:	01010713          	addi	a4,sp,16
80009c40:	00f70733          	add	a4,a4,a5
80009c44:	00074703          	lbu	a4,0(a4)
80009c48:	02e60663          	beq	a2,a4,80009c74 <xsh_test+0xe4>
80009c4c:	8000c537          	lui	a0,0x8000c
80009c50:	a8c50513          	addi	a0,a0,-1396 # 8000ba8c <start+0xe0c>
80009c54:	aacfa0ef          	jal	80003f00 <printf>
80009c58:	00100513          	li	a0,1
80009c5c:	04c12083          	lw	ra,76(sp)
80009c60:	04812403          	lw	s0,72(sp)
80009c64:	04412483          	lw	s1,68(sp)
80009c68:	04012903          	lw	s2,64(sp)
80009c6c:	05010113          	addi	sp,sp,80
80009c70:	00008067          	ret
80009c74:	00178793          	addi	a5,a5,1
80009c78:	fad79ee3          	bne	a5,a3,80009c34 <xsh_test+0xa4>
80009c7c:	8000c537          	lui	a0,0x8000c
80009c80:	a9450513          	addi	a0,a0,-1388 # 8000ba94 <start+0xe14>
80009c84:	a7cfa0ef          	jal	80003f00 <printf>
80009c88:	00000513          	li	a0,0
80009c8c:	fd1ff06f          	j	80009c5c <xsh_test+0xcc>

80009c90 <xsh_touch>:
80009c90:	00000513          	li	a0,0
80009c94:	00008067          	ret

80009c98 <xsh_tt>:
80009c98:	fe010113          	addi	sp,sp,-32
80009c9c:	00812c23          	sw	s0,24(sp)
80009ca0:	00112e23          	sw	ra,28(sp)
80009ca4:	971f60ef          	jal	80000614 <timer_get_mtime>
80009ca8:	05f5e737          	lui	a4,0x5f5e
80009cac:	00050413          	mv	s0,a0
80009cb0:	00100793          	li	a5,1
80009cb4:	00000613          	li	a2,0
80009cb8:	10170713          	addi	a4,a4,257 # 5f5e101 <_start-0x7a0a1eff>
80009cbc:	00f60633          	add	a2,a2,a5
80009cc0:	00178793          	addi	a5,a5,1
80009cc4:	fee79ce3          	bne	a5,a4,80009cbc <xsh_tt+0x24>
80009cc8:	00c12623          	sw	a2,12(sp)
80009ccc:	949f60ef          	jal	80000614 <timer_get_mtime>
80009cd0:	00c12603          	lw	a2,12(sp)
80009cd4:	40850433          	sub	s0,a0,s0
80009cd8:	05f5e5b7          	lui	a1,0x5f5e
80009cdc:	8000c537          	lui	a0,0x8000c
80009ce0:	10058593          	addi	a1,a1,256 # 5f5e100 <_start-0x7a0a1f00>
80009ce4:	ab050513          	addi	a0,a0,-1360 # 8000bab0 <start+0xe30>
80009ce8:	a18fa0ef          	jal	80003f00 <printf>
80009cec:	8000c537          	lui	a0,0x8000c
80009cf0:	00040593          	mv	a1,s0
80009cf4:	adc50513          	addi	a0,a0,-1316 # 8000badc <start+0xe5c>
80009cf8:	a08fa0ef          	jal	80003f00 <printf>
80009cfc:	01c12083          	lw	ra,28(sp)
80009d00:	01812403          	lw	s0,24(sp)
80009d04:	00000513          	li	a0,0
80009d08:	02010113          	addi	sp,sp,32
80009d0c:	00008067          	ret

80009d10 <namlen>:
80009d10:	00050793          	mv	a5,a0
80009d14:	00000513          	li	a0,0
80009d18:	00b54663          	blt	a0,a1,80009d24 <namlen+0x14>
80009d1c:	fff00513          	li	a0,-1
80009d20:	00008067          	ret
80009d24:	00a78733          	add	a4,a5,a0
80009d28:	00074703          	lbu	a4,0(a4)
80009d2c:	00150513          	addi	a0,a0,1
80009d30:	fe0714e3          	bnez	a4,80009d18 <namlen+0x8>
80009d34:	00008067          	ret

80009d38 <mount2>:
80009d38:	fe010113          	addi	sp,sp,-32
80009d3c:	00112e23          	sw	ra,28(sp)
80009d40:	00812c23          	sw	s0,24(sp)
80009d44:	00912a23          	sw	s1,20(sp)
80009d48:	01212823          	sw	s2,16(sp)
80009d4c:	00060493          	mv	s1,a2
80009d50:	00058913          	mv	s2,a1
80009d54:	01312623          	sw	s3,12(sp)
80009d58:	01412423          	sw	s4,8(sp)
80009d5c:	00050a13          	mv	s4,a0
80009d60:	d2cf60ef          	jal	8000028c <disable>
80009d64:	01000593          	li	a1,16
80009d68:	00050413          	mv	s0,a0
80009d6c:	000a0513          	mv	a0,s4
80009d70:	fa1ff0ef          	jal	80009d10 <namlen>
80009d74:	00050993          	mv	s3,a0
80009d78:	00100593          	li	a1,1
80009d7c:	00090513          	mv	a0,s2
80009d80:	f91ff0ef          	jal	80009d10 <namlen>
80009d84:	fff00793          	li	a5,-1
80009d88:	06f98e63          	beq	s3,a5,80009e04 <mount2+0xcc>
80009d8c:	00050613          	mv	a2,a0
80009d90:	06f50a63          	beq	a0,a5,80009e04 <mount2+0xcc>
80009d94:	00200793          	li	a5,2
80009d98:	0697e663          	bltu	a5,s1,80009e04 <mount2+0xcc>
80009d9c:	8005f837          	lui	a6,0x8005f
80009da0:	05482783          	lw	a5,84(a6) # 8005f054 <nnames>
80009da4:	00400713          	li	a4,4
80009da8:	04f74e63          	blt	a4,a5,80009e04 <mount2+0xcc>
80009dac:	01800593          	li	a1,24
80009db0:	02b785b3          	mul	a1,a5,a1
80009db4:	8000e737          	lui	a4,0x8000e
80009db8:	00000693          	li	a3,0
80009dbc:	fc070713          	addi	a4,a4,-64 # 8000dfc0 <nametab>
80009dc0:	0736c863          	blt	a3,s3,80009e30 <mount2+0xf8>
80009dc4:	00c05c63          	blez	a2,80009ddc <mount2+0xa4>
80009dc8:	01800693          	li	a3,24
80009dcc:	00094603          	lbu	a2,0(s2)
80009dd0:	02d786b3          	mul	a3,a5,a3
80009dd4:	00d706b3          	add	a3,a4,a3
80009dd8:	00c68823          	sb	a2,16(a3)
80009ddc:	01800693          	li	a3,24
80009de0:	02d786b3          	mul	a3,a5,a3
80009de4:	00040513          	mv	a0,s0
80009de8:	00178793          	addi	a5,a5,1
80009dec:	00d70733          	add	a4,a4,a3
80009df0:	00972a23          	sw	s1,20(a4)
80009df4:	04f82a23          	sw	a5,84(a6)
80009df8:	c9cf60ef          	jal	80000294 <restore>
80009dfc:	00100513          	li	a0,1
80009e00:	0100006f          	j	80009e10 <mount2+0xd8>
80009e04:	00040513          	mv	a0,s0
80009e08:	c8cf60ef          	jal	80000294 <restore>
80009e0c:	fff00513          	li	a0,-1
80009e10:	01c12083          	lw	ra,28(sp)
80009e14:	01812403          	lw	s0,24(sp)
80009e18:	01412483          	lw	s1,20(sp)
80009e1c:	01012903          	lw	s2,16(sp)
80009e20:	00c12983          	lw	s3,12(sp)
80009e24:	00812a03          	lw	s4,8(sp)
80009e28:	02010113          	addi	sp,sp,32
80009e2c:	00008067          	ret
80009e30:	00da0533          	add	a0,s4,a3
80009e34:	00054883          	lbu	a7,0(a0)
80009e38:	00b68533          	add	a0,a3,a1
80009e3c:	00a70533          	add	a0,a4,a0
80009e40:	01150023          	sb	a7,0(a0)
80009e44:	00168693          	addi	a3,a3,1
80009e48:	f79ff06f          	j	80009dc0 <mount2+0x88>

80009e4c <naminit>:
80009e4c:	766567b7          	lui	a5,0x76656
80009e50:	fb010113          	addi	sp,sp,-80
80009e54:	42f78793          	addi	a5,a5,1071 # 7665642f <_start-0x99a9bd1>
80009e58:	04812423          	sw	s0,72(sp)
80009e5c:	00f12423          	sw	a5,8(sp)
80009e60:	8000e437          	lui	s0,0x8000e
80009e64:	02f00793          	li	a5,47
80009e68:	00f11623          	sh	a5,12(sp)
80009e6c:	8f440413          	addi	s0,s0,-1804 # 8000d8f4 <devtab>
80009e70:	8005f7b7          	lui	a5,0x8005f
80009e74:	03312e23          	sw	s3,60(sp)
80009e78:	03412c23          	sw	s4,56(sp)
80009e7c:	03512a23          	sw	s5,52(sp)
80009e80:	03612823          	sw	s6,48(sp)
80009e84:	03712623          	sw	s7,44(sp)
80009e88:	03812423          	sw	s8,40(sp)
80009e8c:	03912223          	sw	s9,36(sp)
80009e90:	04112623          	sw	ra,76(sp)
80009e94:	04912223          	sw	s1,68(sp)
80009e98:	05212023          	sw	s2,64(sp)
80009e9c:	0407aa23          	sw	zero,84(a5) # 8005f054 <nnames>
80009ea0:	0b440993          	addi	s3,s0,180
80009ea4:	00f00b13          	li	s6,15
80009ea8:	01900b93          	li	s7,25
80009eac:	8000ca37          	lui	s4,0x8000c
80009eb0:	01000a93          	li	s5,16
80009eb4:	8000bc37          	lui	s8,0x8000b
80009eb8:	fff00c93          	li	s9,-1
80009ebc:	01010793          	addi	a5,sp,16
80009ec0:	00000713          	li	a4,0
80009ec4:	00078913          	mv	s2,a5
80009ec8:	00810693          	addi	a3,sp,8
80009ecc:	00e686b3          	add	a3,a3,a4
80009ed0:	0006c683          	lbu	a3,0(a3)
80009ed4:	00078613          	mv	a2,a5
80009ed8:	00070493          	mv	s1,a4
80009edc:	00d78023          	sb	a3,0(a5)
80009ee0:	00178793          	addi	a5,a5,1
80009ee4:	00170713          	addi	a4,a4,1
80009ee8:	fe0690e3          	bnez	a3,80009ec8 <naminit+0x7c>
80009eec:	00842583          	lw	a1,8(s0)
80009ef0:	00000713          	li	a4,0
80009ef4:	00148493          	addi	s1,s1,1
80009ef8:	029b4863          	blt	s6,s1,80009f28 <naminit+0xdc>
80009efc:	00e587b3          	add	a5,a1,a4
80009f00:	0007c783          	lbu	a5,0(a5)
80009f04:	fbf78693          	addi	a3,a5,-65
80009f08:	0ff6f693          	zext.b	a3,a3
80009f0c:	00dbe663          	bltu	s7,a3,80009f18 <naminit+0xcc>
80009f10:	02078793          	addi	a5,a5,32
80009f14:	0ff7f793          	zext.b	a5,a5
80009f18:	00e606b3          	add	a3,a2,a4
80009f1c:	00f68023          	sb	a5,0(a3)
80009f20:	00170713          	addi	a4,a4,1
80009f24:	fc0798e3          	bnez	a5,80009ef4 <naminit+0xa8>
80009f28:	00042603          	lw	a2,0(s0)
80009f2c:	00090593          	mv	a1,s2
80009f30:	b00a0513          	addi	a0,s4,-1280 # 8000bb00 <start+0xe80>
80009f34:	4bd000ef          	jal	8000abf0 <kprintf>
80009f38:	069ad663          	bge	s5,s1,80009fa4 <naminit+0x158>
80009f3c:	00842583          	lw	a1,8(s0)
80009f40:	8000c537          	lui	a0,0x8000c
80009f44:	b1050513          	addi	a0,a0,-1264 # 8000bb10 <start+0xe90>
80009f48:	4a9000ef          	jal	8000abf0 <kprintf>
80009f4c:	03c40413          	addi	s0,s0,60
80009f50:	f73416e3          	bne	s0,s3,80009ebc <naminit+0x70>
80009f54:	8000b5b7          	lui	a1,0x8000b
80009f58:	8000c537          	lui	a0,0x8000c
80009f5c:	00100613          	li	a2,1
80009f60:	3dc58593          	addi	a1,a1,988 # 8000b3dc <start+0x75c>
80009f64:	b5c50513          	addi	a0,a0,-1188 # 8000bb5c <start+0xedc>
80009f68:	dd1ff0ef          	jal	80009d38 <mount2>
80009f6c:	04c12083          	lw	ra,76(sp)
80009f70:	04812403          	lw	s0,72(sp)
80009f74:	04412483          	lw	s1,68(sp)
80009f78:	04012903          	lw	s2,64(sp)
80009f7c:	03c12983          	lw	s3,60(sp)
80009f80:	03812a03          	lw	s4,56(sp)
80009f84:	03412a83          	lw	s5,52(sp)
80009f88:	03012b03          	lw	s6,48(sp)
80009f8c:	02c12b83          	lw	s7,44(sp)
80009f90:	02812c03          	lw	s8,40(sp)
80009f94:	02412c83          	lw	s9,36(sp)
80009f98:	00100513          	li	a0,1
80009f9c:	05010113          	addi	sp,sp,80
80009fa0:	00008067          	ret
80009fa4:	00042603          	lw	a2,0(s0)
80009fa8:	3dcc0593          	addi	a1,s8,988 # 8000b3dc <start+0x75c>
80009fac:	00090513          	mv	a0,s2
80009fb0:	d89ff0ef          	jal	80009d38 <mount2>
80009fb4:	f9951ce3          	bne	a0,s9,80009f4c <naminit+0x100>
80009fb8:	8000c537          	lui	a0,0x8000c
80009fbc:	00842583          	lw	a1,8(s0)
80009fc0:	b3850513          	addi	a0,a0,-1224 # 8000bb38 <start+0xeb8>
80009fc4:	f85ff06f          	j	80009f48 <naminit+0xfc>

80009fc8 <namrepl>:
80009fc8:	fe010113          	addi	sp,sp,-32
80009fcc:	8005f7b7          	lui	a5,0x8005f
80009fd0:	01412423          	sw	s4,8(sp)
80009fd4:	8000ea37          	lui	s4,0x8000e
80009fd8:	0547a683          	lw	a3,84(a5) # 8005f054 <nnames>
80009fdc:	01312623          	sw	s3,12(sp)
80009fe0:	01512223          	sw	s5,4(sp)
80009fe4:	01612023          	sw	s6,0(sp)
80009fe8:	fc0a0793          	addi	a5,s4,-64 # 8000dfc0 <nametab>
80009fec:	00112e23          	sw	ra,28(sp)
80009ff0:	00812c23          	sw	s0,24(sp)
80009ff4:	00912a23          	sw	s1,20(sp)
80009ff8:	01212823          	sw	s2,16(sp)
80009ffc:	00050a93          	mv	s5,a0
8000a000:	00058b13          	mv	s6,a1
8000a004:	00000993          	li	s3,0
8000a008:	fc0a0a13          	addi	s4,s4,-64
8000a00c:	04d9de63          	bge	s3,a3,8000a068 <namrepl+0xa0>
8000a010:	00000493          	li	s1,0
8000a014:	00978733          	add	a4,a5,s1
8000a018:	00074703          	lbu	a4,0(a4)
8000a01c:	06071c63          	bnez	a4,8000a094 <namrepl+0xcc>
8000a020:	01800913          	li	s2,24
8000a024:	03298933          	mul	s2,s3,s2
8000a028:	01000593          	li	a1,16
8000a02c:	000a8513          	mv	a0,s5
8000a030:	ce1ff0ef          	jal	80009d10 <namlen>
8000a034:	00050413          	mv	s0,a0
8000a038:	01000593          	li	a1,16
8000a03c:	01090913          	addi	s2,s2,16
8000a040:	012a0933          	add	s2,s4,s2
8000a044:	00090513          	mv	a0,s2
8000a048:	cc9ff0ef          	jal	80009d10 <namlen>
8000a04c:	0ff47793          	zext.b	a5,s0
8000a050:	409787b3          	sub	a5,a5,s1
8000a054:	fff50693          	addi	a3,a0,-1
8000a058:	00f685b3          	add	a1,a3,a5
8000a05c:	01000613          	li	a2,16
8000a060:	00000713          	li	a4,0
8000a064:	06b65263          	bge	a2,a1,8000a0c8 <namrepl+0x100>
8000a068:	fff00513          	li	a0,-1
8000a06c:	01c12083          	lw	ra,28(sp)
8000a070:	01812403          	lw	s0,24(sp)
8000a074:	01412483          	lw	s1,20(sp)
8000a078:	01012903          	lw	s2,16(sp)
8000a07c:	00c12983          	lw	s3,12(sp)
8000a080:	00812a03          	lw	s4,8(sp)
8000a084:	00412a83          	lw	s5,4(sp)
8000a088:	00012b03          	lw	s6,0(sp)
8000a08c:	02010113          	addi	sp,sp,32
8000a090:	00008067          	ret
8000a094:	009a8633          	add	a2,s5,s1
8000a098:	00064603          	lbu	a2,0(a2)
8000a09c:	00e61663          	bne	a2,a4,8000a0a8 <namrepl+0xe0>
8000a0a0:	00148493          	addi	s1,s1,1
8000a0a4:	f71ff06f          	j	8000a014 <namrepl+0x4c>
8000a0a8:	00198993          	addi	s3,s3,1
8000a0ac:	01878793          	addi	a5,a5,24
8000a0b0:	f5dff06f          	j	8000a00c <namrepl+0x44>
8000a0b4:	00e90633          	add	a2,s2,a4
8000a0b8:	00064583          	lbu	a1,0(a2)
8000a0bc:	00eb0633          	add	a2,s6,a4
8000a0c0:	00170713          	addi	a4,a4,1
8000a0c4:	00b60023          	sb	a1,0(a2)
8000a0c8:	40e68633          	sub	a2,a3,a4
8000a0cc:	fec044e3          	bgtz	a2,8000a0b4 <namrepl+0xec>
8000a0d0:	009a84b3          	add	s1,s5,s1
8000a0d4:	00000613          	li	a2,0
8000a0d8:	00a05463          	blez	a0,8000a0e0 <namrepl+0x118>
8000a0dc:	00068613          	mv	a2,a3
8000a0e0:	00000713          	li	a4,0
8000a0e4:	40e786b3          	sub	a3,a5,a4
8000a0e8:	00d04c63          	bgtz	a3,8000a100 <namrepl+0x138>
8000a0ec:	01800793          	li	a5,24
8000a0f0:	02f987b3          	mul	a5,s3,a5
8000a0f4:	00fa07b3          	add	a5,s4,a5
8000a0f8:	0147a503          	lw	a0,20(a5)
8000a0fc:	f71ff06f          	j	8000a06c <namrepl+0xa4>
8000a100:	00e486b3          	add	a3,s1,a4
8000a104:	0006c583          	lbu	a1,0(a3)
8000a108:	00e606b3          	add	a3,a2,a4
8000a10c:	00db06b3          	add	a3,s6,a3
8000a110:	00b68023          	sb	a1,0(a3)
8000a114:	00170713          	addi	a4,a4,1
8000a118:	fcdff06f          	j	8000a0e4 <namrepl+0x11c>

8000a11c <namcpy>:
8000a11c:	00000793          	li	a5,0
8000a120:	00c7c663          	blt	a5,a2,8000a12c <namcpy+0x10>
8000a124:	fff00513          	li	a0,-1
8000a128:	00008067          	ret
8000a12c:	00f58733          	add	a4,a1,a5
8000a130:	00074703          	lbu	a4,0(a4)
8000a134:	00f506b3          	add	a3,a0,a5
8000a138:	00e68023          	sb	a4,0(a3)
8000a13c:	00070663          	beqz	a4,8000a148 <namcpy+0x2c>
8000a140:	00178793          	addi	a5,a5,1
8000a144:	fddff06f          	j	8000a120 <namcpy+0x4>
8000a148:	00100513          	li	a0,1
8000a14c:	00008067          	ret

8000a150 <nammap>:
8000a150:	fd010113          	addi	sp,sp,-48
8000a154:	02812423          	sw	s0,40(sp)
8000a158:	03212023          	sw	s2,32(sp)
8000a15c:	00058413          	mv	s0,a1
8000a160:	00060913          	mv	s2,a2
8000a164:	00050593          	mv	a1,a0
8000a168:	01000613          	li	a2,16
8000a16c:	00010513          	mv	a0,sp
8000a170:	02112623          	sw	ra,44(sp)
8000a174:	02912223          	sw	s1,36(sp)
8000a178:	01312e23          	sw	s3,28(sp)
8000a17c:	fa1ff0ef          	jal	8000a11c <namcpy>
8000a180:	fff00793          	li	a5,-1
8000a184:	00f50a63          	beq	a0,a5,8000a198 <nammap+0x48>
8000a188:	00000493          	li	s1,0
8000a18c:	8005f9b7          	lui	s3,0x8005f
8000a190:	0549a783          	lw	a5,84(s3) # 8005f054 <nnames>
8000a194:	02f4c263          	blt	s1,a5,8000a1b8 <nammap+0x68>
8000a198:	fff00513          	li	a0,-1
8000a19c:	02c12083          	lw	ra,44(sp)
8000a1a0:	02812403          	lw	s0,40(sp)
8000a1a4:	02412483          	lw	s1,36(sp)
8000a1a8:	02012903          	lw	s2,32(sp)
8000a1ac:	01c12983          	lw	s3,28(sp)
8000a1b0:	03010113          	addi	sp,sp,48
8000a1b4:	00008067          	ret
8000a1b8:	00040593          	mv	a1,s0
8000a1bc:	00010513          	mv	a0,sp
8000a1c0:	e09ff0ef          	jal	80009fc8 <namrepl>
8000a1c4:	fd251ce3          	bne	a0,s2,8000a19c <nammap+0x4c>
8000a1c8:	01000613          	li	a2,16
8000a1cc:	00040593          	mv	a1,s0
8000a1d0:	00010513          	mv	a0,sp
8000a1d4:	f49ff0ef          	jal	8000a11c <namcpy>
8000a1d8:	00148493          	addi	s1,s1,1
8000a1dc:	fb5ff06f          	j	8000a190 <nammap+0x40>

8000a1e0 <namopen>:
8000a1e0:	fe010113          	addi	sp,sp,-32
8000a1e4:	00812c23          	sw	s0,24(sp)
8000a1e8:	00060413          	mv	s0,a2
8000a1ec:	00052603          	lw	a2,0(a0)
8000a1f0:	00058793          	mv	a5,a1
8000a1f4:	00078513          	mv	a0,a5
8000a1f8:	00010593          	mv	a1,sp
8000a1fc:	00112e23          	sw	ra,28(sp)
8000a200:	f51ff0ef          	jal	8000a150 <nammap>
8000a204:	fff00713          	li	a4,-1
8000a208:	00e50863          	beq	a0,a4,8000a218 <namopen+0x38>
8000a20c:	00040613          	mv	a2,s0
8000a210:	00010593          	mv	a1,sp
8000a214:	a0cfd0ef          	jal	80007420 <open>
8000a218:	01c12083          	lw	ra,28(sp)
8000a21c:	01812403          	lw	s0,24(sp)
8000a220:	02010113          	addi	sp,sp,32
8000a224:	00008067          	ret

8000a228 <ttycontrol>:
8000a228:	ffd58593          	addi	a1,a1,-3
8000a22c:	00700713          	li	a4,7
8000a230:	00452783          	lw	a5,4(a0)
8000a234:	12b76263          	bltu	a4,a1,8000a358 <ttycontrol+0x130>
8000a238:	8000c737          	lui	a4,0x8000c
8000a23c:	72c70713          	addi	a4,a4,1836 # 8000c72c <cmdtab+0x178>
8000a240:	00259593          	slli	a1,a1,0x2
8000a244:	00e585b3          	add	a1,a1,a4
8000a248:	0005a703          	lw	a4,0(a1)
8000a24c:	00070067          	jr	a4
8000a250:	09c00713          	li	a4,156
8000a254:	02e787b3          	mul	a5,a5,a4
8000a258:	ff010113          	addi	sp,sp,-16
8000a25c:	00812423          	sw	s0,8(sp)
8000a260:	8000e437          	lui	s0,0x8000e
8000a264:	03840413          	addi	s0,s0,56 # 8000e038 <ttytab>
8000a268:	00112623          	sw	ra,12(sp)
8000a26c:	00912223          	sw	s1,4(sp)
8000a270:	00f40433          	add	s0,s0,a5
8000a274:	02842503          	lw	a0,40(s0)
8000a278:	bf1fc0ef          	jal	80006e68 <wait>
8000a27c:	00442783          	lw	a5,4(s0)
8000a280:	02842503          	lw	a0,40(s0)
8000a284:	0007c483          	lbu	s1,0(a5)
8000a288:	ca4fe0ef          	jal	8000872c <signal>
8000a28c:	00c12083          	lw	ra,12(sp)
8000a290:	00812403          	lw	s0,8(sp)
8000a294:	00048513          	mv	a0,s1
8000a298:	00412483          	lw	s1,4(sp)
8000a29c:	01010113          	addi	sp,sp,16
8000a2a0:	00008067          	ret
8000a2a4:	09c00693          	li	a3,156
8000a2a8:	02d787b3          	mul	a5,a5,a3
8000a2ac:	8000e737          	lui	a4,0x8000e
8000a2b0:	03870713          	addi	a4,a4,56 # 8000e038 <ttytab>
8000a2b4:	00f707b3          	add	a5,a4,a5
8000a2b8:	05200713          	li	a4,82
8000a2bc:	08e78023          	sb	a4,128(a5)
8000a2c0:	00100513          	li	a0,1
8000a2c4:	00008067          	ret
8000a2c8:	09c00693          	li	a3,156
8000a2cc:	02d787b3          	mul	a5,a5,a3
8000a2d0:	8000e737          	lui	a4,0x8000e
8000a2d4:	03870713          	addi	a4,a4,56 # 8000e038 <ttytab>
8000a2d8:	00f707b3          	add	a5,a4,a5
8000a2dc:	04300713          	li	a4,67
8000a2e0:	fddff06f          	j	8000a2bc <ttycontrol+0x94>
8000a2e4:	09c00693          	li	a3,156
8000a2e8:	02d787b3          	mul	a5,a5,a3
8000a2ec:	8000e737          	lui	a4,0x8000e
8000a2f0:	03870713          	addi	a4,a4,56 # 8000e038 <ttytab>
8000a2f4:	00f707b3          	add	a5,a4,a5
8000a2f8:	04b00713          	li	a4,75
8000a2fc:	fc1ff06f          	j	8000a2bc <ttycontrol+0x94>
8000a300:	09c00693          	li	a3,156
8000a304:	02d787b3          	mul	a5,a5,a3
8000a308:	8000e737          	lui	a4,0x8000e
8000a30c:	03870713          	addi	a4,a4,56 # 8000e038 <ttytab>
8000a310:	00f707b3          	add	a5,a4,a5
8000a314:	0287a503          	lw	a0,40(a5)
8000a318:	8fcfe06f          	j	80008414 <semcount>
8000a31c:	09c00693          	li	a3,156
8000a320:	02d787b3          	mul	a5,a5,a3
8000a324:	8000e737          	lui	a4,0x8000e
8000a328:	03870713          	addi	a4,a4,56 # 8000e038 <ttytab>
8000a32c:	00f707b3          	add	a5,a4,a5
8000a330:	00100713          	li	a4,1
8000a334:	08e780a3          	sb	a4,129(a5)
8000a338:	f89ff06f          	j	8000a2c0 <ttycontrol+0x98>
8000a33c:	09c00693          	li	a3,156
8000a340:	02d787b3          	mul	a5,a5,a3
8000a344:	8000e737          	lui	a4,0x8000e
8000a348:	03870713          	addi	a4,a4,56 # 8000e038 <ttytab>
8000a34c:	00f707b3          	add	a5,a4,a5
8000a350:	080780a3          	sb	zero,129(a5)
8000a354:	f6dff06f          	j	8000a2c0 <ttycontrol+0x98>
8000a358:	fff00513          	li	a0,-1
8000a35c:	00008067          	ret

8000a360 <ttygetc>:
8000a360:	fe010113          	addi	sp,sp,-32
8000a364:	01212823          	sw	s2,16(sp)
8000a368:	00452903          	lw	s2,4(a0)
8000a36c:	00912a23          	sw	s1,20(sp)
8000a370:	09c00493          	li	s1,156
8000a374:	029904b3          	mul	s1,s2,s1
8000a378:	00812c23          	sw	s0,24(sp)
8000a37c:	8000e437          	lui	s0,0x8000e
8000a380:	01412423          	sw	s4,8(sp)
8000a384:	03840a13          	addi	s4,s0,56 # 8000e038 <ttytab>
8000a388:	01312623          	sw	s3,12(sp)
8000a38c:	00112e23          	sw	ra,28(sp)
8000a390:	009a09b3          	add	s3,s4,s1
8000a394:	0289a503          	lw	a0,40(s3)
8000a398:	ad1fc0ef          	jal	80006e68 <wait>
8000a39c:	0009a783          	lw	a5,0(s3)
8000a3a0:	02848713          	addi	a4,s1,40
8000a3a4:	01470733          	add	a4,a4,s4
8000a3a8:	00178613          	addi	a2,a5,1
8000a3ac:	00c9a023          	sw	a2,0(s3)
8000a3b0:	0007c683          	lbu	a3,0(a5)
8000a3b4:	03840793          	addi	a5,s0,56
8000a3b8:	00e66863          	bltu	a2,a4,8000a3c8 <ttygetc+0x68>
8000a3bc:	00848493          	addi	s1,s1,8
8000a3c0:	00f484b3          	add	s1,s1,a5
8000a3c4:	0099a023          	sw	s1,0(s3)
8000a3c8:	09c00713          	li	a4,156
8000a3cc:	02e90933          	mul	s2,s2,a4
8000a3d0:	04300713          	li	a4,67
8000a3d4:	012787b3          	add	a5,a5,s2
8000a3d8:	0807c603          	lbu	a2,128(a5)
8000a3dc:	00e61c63          	bne	a2,a4,8000a3f4 <ttygetc+0x94>
8000a3e0:	0897c703          	lbu	a4,137(a5)
8000a3e4:	00070863          	beqz	a4,8000a3f4 <ttygetc+0x94>
8000a3e8:	08a7c783          	lbu	a5,138(a5)
8000a3ec:	ffe00513          	li	a0,-2
8000a3f0:	00d78463          	beq	a5,a3,8000a3f8 <ttygetc+0x98>
8000a3f4:	00068513          	mv	a0,a3
8000a3f8:	01c12083          	lw	ra,28(sp)
8000a3fc:	01812403          	lw	s0,24(sp)
8000a400:	01412483          	lw	s1,20(sp)
8000a404:	01012903          	lw	s2,16(sp)
8000a408:	00c12983          	lw	s3,12(sp)
8000a40c:	00812a03          	lw	s4,8(sp)
8000a410:	02010113          	addi	sp,sp,32
8000a414:	00008067          	ret

8000a418 <echoch>:
8000a418:	ff010113          	addi	sp,sp,-16
8000a41c:	00812423          	sw	s0,8(sp)
8000a420:	00112623          	sw	ra,12(sp)
8000a424:	00a00793          	li	a5,10
8000a428:	00050413          	mv	s0,a0
8000a42c:	00f50663          	beq	a0,a5,8000a438 <echoch+0x20>
8000a430:	00d00793          	li	a5,13
8000a434:	02f51463          	bne	a0,a5,8000a45c <echoch+0x44>
8000a438:	0845c783          	lbu	a5,132(a1)
8000a43c:	02078863          	beqz	a5,8000a46c <echoch+0x54>
8000a440:	00d00513          	li	a0,13
8000a444:	774000ef          	jal	8000abb8 <kputc>
8000a448:	00a00513          	li	a0,10
8000a44c:	00812403          	lw	s0,8(sp)
8000a450:	00c12083          	lw	ra,12(sp)
8000a454:	01010113          	addi	sp,sp,16
8000a458:	7600006f          	j	8000abb8 <kputc>
8000a45c:	01f00793          	li	a5,31
8000a460:	00a7f663          	bgeu	a5,a0,8000a46c <echoch+0x54>
8000a464:	07f00793          	li	a5,127
8000a468:	02f51063          	bne	a0,a5,8000a488 <echoch+0x70>
8000a46c:	0835c783          	lbu	a5,131(a1)
8000a470:	00078c63          	beqz	a5,8000a488 <echoch+0x70>
8000a474:	05e00513          	li	a0,94
8000a478:	740000ef          	jal	8000abb8 <kputc>
8000a47c:	04040513          	addi	a0,s0,64
8000a480:	0ff57513          	zext.b	a0,a0
8000a484:	fc9ff06f          	j	8000a44c <echoch+0x34>
8000a488:	00040513          	mv	a0,s0
8000a48c:	fc1ff06f          	j	8000a44c <echoch+0x34>

8000a490 <ttyhandle_in>:
8000a490:	ff010113          	addi	sp,sp,-16
8000a494:	00812423          	sw	s0,8(sp)
8000a498:	00050413          	mv	s0,a0
8000a49c:	02852503          	lw	a0,40(a0)
8000a4a0:	00912223          	sw	s1,4(sp)
8000a4a4:	00112623          	sw	ra,12(sp)
8000a4a8:	00058493          	mv	s1,a1
8000a4ac:	f69fd0ef          	jal	80008414 <semcount>
8000a4b0:	08044783          	lbu	a5,128(s0)
8000a4b4:	05200713          	li	a4,82
8000a4b8:	04e79463          	bne	a5,a4,8000a500 <ttyhandle_in+0x70>
8000a4bc:	01f00793          	li	a5,31
8000a4c0:	1ea7ce63          	blt	a5,a0,8000a6bc <ttyhandle_in+0x22c>
8000a4c4:	00442783          	lw	a5,4(s0)
8000a4c8:	00178713          	addi	a4,a5,1
8000a4cc:	00e42223          	sw	a4,4(s0)
8000a4d0:	00978023          	sb	s1,0(a5)
8000a4d4:	00442703          	lw	a4,4(s0)
8000a4d8:	02840793          	addi	a5,s0,40
8000a4dc:	00f76663          	bltu	a4,a5,8000a4e8 <ttyhandle_in+0x58>
8000a4e0:	00840793          	addi	a5,s0,8
8000a4e4:	00f42223          	sw	a5,4(s0)
8000a4e8:	02842503          	lw	a0,40(s0)
8000a4ec:	00812403          	lw	s0,8(sp)
8000a4f0:	00c12083          	lw	ra,12(sp)
8000a4f4:	00412483          	lw	s1,4(sp)
8000a4f8:	01010113          	addi	sp,sp,16
8000a4fc:	a30fe06f          	j	8000872c <signal>
8000a500:	00d00713          	li	a4,13
8000a504:	00e49863          	bne	s1,a4,8000a514 <ttyhandle_in+0x84>
8000a508:	08544703          	lbu	a4,133(s0)
8000a50c:	00070463          	beqz	a4,8000a514 <ttyhandle_in+0x84>
8000a510:	00a00493          	li	s1,10
8000a514:	08040aa3          	sb	zero,149(s0)
8000a518:	04b00713          	li	a4,75
8000a51c:	04e79863          	bne	a5,a4,8000a56c <ttyhandle_in+0xdc>
8000a520:	01f00793          	li	a5,31
8000a524:	00a7d663          	bge	a5,a0,8000a530 <ttyhandle_in+0xa0>
8000a528:	09944503          	lbu	a0,153(s0)
8000a52c:	07c0006f          	j	8000a5a8 <ttyhandle_in+0x118>
8000a530:	00442783          	lw	a5,4(s0)
8000a534:	00178713          	addi	a4,a5,1
8000a538:	00e42223          	sw	a4,4(s0)
8000a53c:	00978023          	sb	s1,0(a5)
8000a540:	00442703          	lw	a4,4(s0)
8000a544:	02840793          	addi	a5,s0,40
8000a548:	00f76663          	bltu	a4,a5,8000a554 <ttyhandle_in+0xc4>
8000a54c:	00840793          	addi	a5,s0,8
8000a550:	00f42223          	sw	a5,4(s0)
8000a554:	08144783          	lbu	a5,129(s0)
8000a558:	f80788e3          	beqz	a5,8000a4e8 <ttyhandle_in+0x58>
8000a55c:	00040593          	mv	a1,s0
8000a560:	00048513          	mv	a0,s1
8000a564:	eb5ff0ef          	jal	8000a418 <echoch>
8000a568:	f81ff06f          	j	8000a4e8 <ttyhandle_in+0x58>
8000a56c:	08c44783          	lbu	a5,140(s0)
8000a570:	04979663          	bne	a5,s1,8000a5bc <ttyhandle_in+0x12c>
8000a574:	08b44783          	lbu	a5,139(s0)
8000a578:	04078263          	beqz	a5,8000a5bc <ttyhandle_in+0x12c>
8000a57c:	09042703          	lw	a4,144(s0)
8000a580:	00442783          	lw	a5,4(s0)
8000a584:	40e787b3          	sub	a5,a5,a4
8000a588:	00840713          	addi	a4,s0,8
8000a58c:	00e7f463          	bgeu	a5,a4,8000a594 <ttyhandle_in+0x104>
8000a590:	02078793          	addi	a5,a5,32
8000a594:	00f42223          	sw	a5,4(s0)
8000a598:	08042823          	sw	zero,144(s0)
8000a59c:	00d00513          	li	a0,13
8000a5a0:	618000ef          	jal	8000abb8 <kputc>
8000a5a4:	00a00513          	li	a0,10
8000a5a8:	00812403          	lw	s0,8(sp)
8000a5ac:	00c12083          	lw	ra,12(sp)
8000a5b0:	00412483          	lw	s1,4(sp)
8000a5b4:	01010113          	addi	sp,sp,16
8000a5b8:	6000006f          	j	8000abb8 <kputc>
8000a5bc:	08744783          	lbu	a5,135(s0)
8000a5c0:	00978663          	beq	a5,s1,8000a5cc <ttyhandle_in+0x13c>
8000a5c4:	08844783          	lbu	a5,136(s0)
8000a5c8:	08979c63          	bne	a5,s1,8000a660 <ttyhandle_in+0x1d0>
8000a5cc:	08644783          	lbu	a5,134(s0)
8000a5d0:	08078863          	beqz	a5,8000a660 <ttyhandle_in+0x1d0>
8000a5d4:	09042783          	lw	a5,144(s0)
8000a5d8:	0ef05263          	blez	a5,8000a6bc <ttyhandle_in+0x22c>
8000a5dc:	00442703          	lw	a4,4(s0)
8000a5e0:	fff78793          	addi	a5,a5,-1
8000a5e4:	08f42823          	sw	a5,144(s0)
8000a5e8:	00840693          	addi	a3,s0,8
8000a5ec:	fff70793          	addi	a5,a4,-1
8000a5f0:	00d7f463          	bgeu	a5,a3,8000a5f8 <ttyhandle_in+0x168>
8000a5f4:	01f70793          	addi	a5,a4,31
8000a5f8:	08144703          	lbu	a4,129(s0)
8000a5fc:	00f42223          	sw	a5,4(s0)
8000a600:	0007c783          	lbu	a5,0(a5)
8000a604:	0a070c63          	beqz	a4,8000a6bc <ttyhandle_in+0x22c>
8000a608:	01f00713          	li	a4,31
8000a60c:	00f77663          	bgeu	a4,a5,8000a618 <ttyhandle_in+0x188>
8000a610:	07f00713          	li	a4,127
8000a614:	02e79663          	bne	a5,a4,8000a640 <ttyhandle_in+0x1b0>
8000a618:	08344783          	lbu	a5,131(s0)
8000a61c:	02078263          	beqz	a5,8000a640 <ttyhandle_in+0x1b0>
8000a620:	00800513          	li	a0,8
8000a624:	594000ef          	jal	8000abb8 <kputc>
8000a628:	08244783          	lbu	a5,130(s0)
8000a62c:	00078a63          	beqz	a5,8000a640 <ttyhandle_in+0x1b0>
8000a630:	02000513          	li	a0,32
8000a634:	584000ef          	jal	8000abb8 <kputc>
8000a638:	00800513          	li	a0,8
8000a63c:	57c000ef          	jal	8000abb8 <kputc>
8000a640:	00800513          	li	a0,8
8000a644:	574000ef          	jal	8000abb8 <kputc>
8000a648:	08244783          	lbu	a5,130(s0)
8000a64c:	06078863          	beqz	a5,8000a6bc <ttyhandle_in+0x22c>
8000a650:	02000513          	li	a0,32
8000a654:	564000ef          	jal	8000abb8 <kputc>
8000a658:	00800513          	li	a0,8
8000a65c:	f4dff06f          	j	8000a5a8 <ttyhandle_in+0x118>
8000a660:	00a00793          	li	a5,10
8000a664:	00f48663          	beq	s1,a5,8000a670 <ttyhandle_in+0x1e0>
8000a668:	00d00793          	li	a5,13
8000a66c:	06f49263          	bne	s1,a5,8000a6d0 <ttyhandle_in+0x240>
8000a670:	08144783          	lbu	a5,129(s0)
8000a674:	00078863          	beqz	a5,8000a684 <ttyhandle_in+0x1f4>
8000a678:	00040593          	mv	a1,s0
8000a67c:	00048513          	mv	a0,s1
8000a680:	d99ff0ef          	jal	8000a418 <echoch>
8000a684:	00442783          	lw	a5,4(s0)
8000a688:	00178713          	addi	a4,a5,1
8000a68c:	00e42223          	sw	a4,4(s0)
8000a690:	00978023          	sb	s1,0(a5)
8000a694:	00442703          	lw	a4,4(s0)
8000a698:	02840793          	addi	a5,s0,40
8000a69c:	00f76663          	bltu	a4,a5,8000a6a8 <ttyhandle_in+0x218>
8000a6a0:	00840793          	addi	a5,s0,8
8000a6a4:	00f42223          	sw	a5,4(s0)
8000a6a8:	09042583          	lw	a1,144(s0)
8000a6ac:	02842503          	lw	a0,40(s0)
8000a6b0:	00158593          	addi	a1,a1,1
8000a6b4:	900fe0ef          	jal	800087b4 <signaln>
8000a6b8:	08042823          	sw	zero,144(s0)
8000a6bc:	00c12083          	lw	ra,12(sp)
8000a6c0:	00812403          	lw	s0,8(sp)
8000a6c4:	00412483          	lw	s1,4(sp)
8000a6c8:	01010113          	addi	sp,sp,16
8000a6cc:	00008067          	ret
8000a6d0:	02842503          	lw	a0,40(s0)
8000a6d4:	d41fd0ef          	jal	80008414 <semcount>
8000a6d8:	00055463          	bgez	a0,8000a6e0 <ttyhandle_in+0x250>
8000a6dc:	00000513          	li	a0,0
8000a6e0:	09042783          	lw	a5,144(s0)
8000a6e4:	00f50533          	add	a0,a0,a5
8000a6e8:	01e00793          	li	a5,30
8000a6ec:	e2a7cee3          	blt	a5,a0,8000a528 <ttyhandle_in+0x98>
8000a6f0:	08a44703          	lbu	a4,138(s0)
8000a6f4:	08144783          	lbu	a5,129(s0)
8000a6f8:	02971c63          	bne	a4,s1,8000a730 <ttyhandle_in+0x2a0>
8000a6fc:	08944703          	lbu	a4,137(s0)
8000a700:	02070863          	beqz	a4,8000a730 <ttyhandle_in+0x2a0>
8000a704:	00078863          	beqz	a5,8000a714 <ttyhandle_in+0x284>
8000a708:	00040593          	mv	a1,s0
8000a70c:	00048513          	mv	a0,s1
8000a710:	d09ff0ef          	jal	8000a418 <echoch>
8000a714:	09042783          	lw	a5,144(s0)
8000a718:	fa0792e3          	bnez	a5,8000a6bc <ttyhandle_in+0x22c>
8000a71c:	00442783          	lw	a5,4(s0)
8000a720:	00178713          	addi	a4,a5,1
8000a724:	00e42223          	sw	a4,4(s0)
8000a728:	00978023          	sb	s1,0(a5)
8000a72c:	dbdff06f          	j	8000a4e8 <ttyhandle_in+0x58>
8000a730:	00078863          	beqz	a5,8000a740 <ttyhandle_in+0x2b0>
8000a734:	00040593          	mv	a1,s0
8000a738:	00048513          	mv	a0,s1
8000a73c:	cddff0ef          	jal	8000a418 <echoch>
8000a740:	09042783          	lw	a5,144(s0)
8000a744:	00178793          	addi	a5,a5,1
8000a748:	08f42823          	sw	a5,144(s0)
8000a74c:	00442783          	lw	a5,4(s0)
8000a750:	00178713          	addi	a4,a5,1
8000a754:	00e42223          	sw	a4,4(s0)
8000a758:	00978023          	sb	s1,0(a5)
8000a75c:	00442703          	lw	a4,4(s0)
8000a760:	02840793          	addi	a5,s0,40
8000a764:	f4f76ce3          	bltu	a4,a5,8000a6bc <ttyhandle_in+0x22c>
8000a768:	00840793          	addi	a5,s0,8
8000a76c:	00f42223          	sw	a5,4(s0)
8000a770:	f4dff06f          	j	8000a6bc <ttyhandle_in+0x22c>

8000a774 <ttyhandle_out>:
8000a774:	09554783          	lbu	a5,149(a0)
8000a778:	0e079c63          	bnez	a5,8000a870 <ttyhandle_out+0xfc>
8000a77c:	05852703          	lw	a4,88(a0)
8000a780:	05c52783          	lw	a5,92(a0)
8000a784:	ff010113          	addi	sp,sp,-16
8000a788:	00812423          	sw	s0,8(sp)
8000a78c:	00112623          	sw	ra,12(sp)
8000a790:	00912223          	sw	s1,4(sp)
8000a794:	00050413          	mv	s0,a0
8000a798:	06f70c63          	beq	a4,a5,8000a810 <ttyhandle_out+0x9c>
8000a79c:	05842703          	lw	a4,88(s0)
8000a7a0:	05c42783          	lw	a5,92(s0)
8000a7a4:	00100493          	li	s1,1
8000a7a8:	02f70863          	beq	a4,a5,8000a7d8 <ttyhandle_out+0x64>
8000a7ac:	02c42783          	lw	a5,44(s0)
8000a7b0:	00178713          	addi	a4,a5,1
8000a7b4:	02e42623          	sw	a4,44(s0)
8000a7b8:	0007c503          	lbu	a0,0(a5)
8000a7bc:	3fc000ef          	jal	8000abb8 <kputc>
8000a7c0:	05842703          	lw	a4,88(s0)
8000a7c4:	08040793          	addi	a5,s0,128
8000a7c8:	00f76663          	bltu	a4,a5,8000a7d4 <ttyhandle_out+0x60>
8000a7cc:	06040793          	addi	a5,s0,96
8000a7d0:	04f42c23          	sw	a5,88(s0)
8000a7d4:	00000493          	li	s1,0
8000a7d8:	05442503          	lw	a0,84(s0)
8000a7dc:	c39fd0ef          	jal	80008414 <semcount>
8000a7e0:	02000793          	li	a5,32
8000a7e4:	40a787b3          	sub	a5,a5,a0
8000a7e8:	04049663          	bnez	s1,8000a834 <ttyhandle_out+0xc0>
8000a7ec:	05842703          	lw	a4,88(s0)
8000a7f0:	05c42783          	lw	a5,92(s0)
8000a7f4:	02f71663          	bne	a4,a5,8000a820 <ttyhandle_out+0xac>
8000a7f8:	05442503          	lw	a0,84(s0)
8000a7fc:	00812403          	lw	s0,8(sp)
8000a800:	00c12083          	lw	ra,12(sp)
8000a804:	00412483          	lw	s1,4(sp)
8000a808:	01010113          	addi	sp,sp,16
8000a80c:	c09fd06f          	j	80008414 <semcount>
8000a810:	05452503          	lw	a0,84(a0)
8000a814:	c01fd0ef          	jal	80008414 <semcount>
8000a818:	01f00793          	li	a5,31
8000a81c:	f8a7d0e3          	bge	a5,a0,8000a79c <ttyhandle_out+0x28>
8000a820:	00c12083          	lw	ra,12(sp)
8000a824:	00812403          	lw	s0,8(sp)
8000a828:	00412483          	lw	s1,4(sp)
8000a82c:	01010113          	addi	sp,sp,16
8000a830:	00008067          	ret
8000a834:	faf05ce3          	blez	a5,8000a7ec <ttyhandle_out+0x78>
8000a838:	02c42783          	lw	a5,44(s0)
8000a83c:	00178713          	addi	a4,a5,1
8000a840:	02e42623          	sw	a4,44(s0)
8000a844:	0007c503          	lbu	a0,0(a5)
8000a848:	370000ef          	jal	8000abb8 <kputc>
8000a84c:	02c42703          	lw	a4,44(s0)
8000a850:	05440793          	addi	a5,s0,84
8000a854:	00f76663          	bltu	a4,a5,8000a860 <ttyhandle_out+0xec>
8000a858:	03440793          	addi	a5,s0,52
8000a85c:	02f42623          	sw	a5,44(s0)
8000a860:	05442503          	lw	a0,84(s0)
8000a864:	00100593          	li	a1,1
8000a868:	f4dfd0ef          	jal	800087b4 <signaln>
8000a86c:	f81ff06f          	j	8000a7ec <ttyhandle_out+0x78>
8000a870:	00008067          	ret

8000a874 <ttyhandler>:
8000a874:	8000e7b7          	lui	a5,0x8000e
8000a878:	8f87a783          	lw	a5,-1800(a5) # 8000d8f8 <devtab+0x4>
8000a87c:	09c00513          	li	a0,156
8000a880:	02f50533          	mul	a0,a0,a5
8000a884:	8000e7b7          	lui	a5,0x8000e
8000a888:	03878793          	addi	a5,a5,56 # 8000e038 <ttytab>
8000a88c:	00f50533          	add	a0,a0,a5
8000a890:	00060463          	beqz	a2,8000a898 <ttyhandler+0x24>
8000a894:	ee1ff06f          	j	8000a774 <ttyhandle_out>
8000a898:	bf9ff06f          	j	8000a490 <ttyhandle_in>

8000a89c <ttyinit>:
8000a89c:	ff010113          	addi	sp,sp,-16
8000a8a0:	01212023          	sw	s2,0(sp)
8000a8a4:	00452903          	lw	s2,4(a0)
8000a8a8:	09c00793          	li	a5,156
8000a8ac:	00912223          	sw	s1,4(sp)
8000a8b0:	02f90933          	mul	s2,s2,a5
8000a8b4:	8000e4b7          	lui	s1,0x8000e
8000a8b8:	03848493          	addi	s1,s1,56 # 8000e038 <ttytab>
8000a8bc:	00112623          	sw	ra,12(sp)
8000a8c0:	00812423          	sw	s0,8(sp)
8000a8c4:	00100513          	li	a0,1
8000a8c8:	00890793          	addi	a5,s2,8
8000a8cc:	01248433          	add	s0,s1,s2
8000a8d0:	00f487b3          	add	a5,s1,a5
8000a8d4:	00f42223          	sw	a5,4(s0)
8000a8d8:	00f42023          	sw	a5,0(s0)
8000a8dc:	a8dfd0ef          	jal	80008368 <semcreate>
8000a8e0:	03490793          	addi	a5,s2,52
8000a8e4:	00f487b3          	add	a5,s1,a5
8000a8e8:	02a42423          	sw	a0,40(s0)
8000a8ec:	02000513          	li	a0,32
8000a8f0:	02f42823          	sw	a5,48(s0)
8000a8f4:	02f42623          	sw	a5,44(s0)
8000a8f8:	a71fd0ef          	jal	80008368 <semcreate>
8000a8fc:	010107b7          	lui	a5,0x1010
8000a900:	14378793          	addi	a5,a5,323 # 1010143 <_start-0x7efefebd>
8000a904:	08f42023          	sw	a5,128(s0)
8000a908:	080107b7          	lui	a5,0x8010
8000a90c:	10178793          	addi	a5,a5,257 # 8010101 <_start-0x77fefeff>
8000a910:	08f42223          	sw	a5,132(s0)
8000a914:	010407b7          	lui	a5,0x1040
8000a918:	17f78793          	addi	a5,a5,383 # 104017f <_start-0x7efbfe81>
8000a91c:	08f42423          	sw	a5,136(s0)
8000a920:	01500793          	li	a5,21
8000a924:	08f40623          	sb	a5,140(s0)
8000a928:	111307b7          	lui	a5,0x11130
8000a92c:	06090913          	addi	s2,s2,96
8000a930:	00178793          	addi	a5,a5,1 # 11130001 <_start-0x6eecffff>
8000a934:	012484b3          	add	s1,s1,s2
8000a938:	08f42a23          	sw	a5,148(s0)
8000a93c:	70100793          	li	a5,1793
8000a940:	04a42a23          	sw	a0,84(s0)
8000a944:	04942e23          	sw	s1,92(s0)
8000a948:	04942c23          	sw	s1,88(s0)
8000a94c:	00c12083          	lw	ra,12(sp)
8000a950:	08042823          	sw	zero,144(s0)
8000a954:	08f41c23          	sh	a5,152(s0)
8000a958:	00812403          	lw	s0,8(sp)
8000a95c:	00412483          	lw	s1,4(sp)
8000a960:	00012903          	lw	s2,0(sp)
8000a964:	00100513          	li	a0,1
8000a968:	01010113          	addi	sp,sp,16
8000a96c:	00008067          	ret

8000a970 <ttykickout>:
8000a970:	ff010113          	addi	sp,sp,-16
8000a974:	00112623          	sw	ra,12(sp)
8000a978:	915f50ef          	jal	8000028c <disable>
8000a97c:	00100613          	li	a2,1
8000a980:	05800593          	li	a1,88
8000a984:	00100513          	li	a0,1
8000a988:	eedff0ef          	jal	8000a874 <ttyhandler>
8000a98c:	00c12083          	lw	ra,12(sp)
8000a990:	01010113          	addi	sp,sp,16
8000a994:	8f1f506f          	j	80000284 <enable>

8000a998 <ttyputc>:
8000a998:	fe010113          	addi	sp,sp,-32
8000a99c:	00812c23          	sw	s0,24(sp)
8000a9a0:	00912a23          	sw	s1,20(sp)
8000a9a4:	01312623          	sw	s3,12(sp)
8000a9a8:	8000e437          	lui	s0,0x8000e
8000a9ac:	00112e23          	sw	ra,28(sp)
8000a9b0:	01212823          	sw	s2,16(sp)
8000a9b4:	00a00793          	li	a5,10
8000a9b8:	00452483          	lw	s1,4(a0)
8000a9bc:	00058993          	mv	s3,a1
8000a9c0:	03840413          	addi	s0,s0,56 # 8000e038 <ttytab>
8000a9c4:	02f59063          	bne	a1,a5,8000a9e4 <ttyputc+0x4c>
8000a9c8:	09c00793          	li	a5,156
8000a9cc:	02f487b3          	mul	a5,s1,a5
8000a9d0:	00f407b3          	add	a5,s0,a5
8000a9d4:	0987c783          	lbu	a5,152(a5)
8000a9d8:	00078663          	beqz	a5,8000a9e4 <ttyputc+0x4c>
8000a9dc:	00d00593          	li	a1,13
8000a9e0:	fb9ff0ef          	jal	8000a998 <ttyputc>
8000a9e4:	09c00793          	li	a5,156
8000a9e8:	02f484b3          	mul	s1,s1,a5
8000a9ec:	00940933          	add	s2,s0,s1
8000a9f0:	05492503          	lw	a0,84(s2)
8000a9f4:	c74fc0ef          	jal	80006e68 <wait>
8000a9f8:	03092783          	lw	a5,48(s2)
8000a9fc:	00178713          	addi	a4,a5,1
8000aa00:	02e92823          	sw	a4,48(s2)
8000aa04:	01378023          	sb	s3,0(a5)
8000aa08:	03092703          	lw	a4,48(s2)
8000aa0c:	05448793          	addi	a5,s1,84
8000aa10:	00f407b3          	add	a5,s0,a5
8000aa14:	00f76863          	bltu	a4,a5,8000aa24 <ttyputc+0x8c>
8000aa18:	03448493          	addi	s1,s1,52
8000aa1c:	00940433          	add	s0,s0,s1
8000aa20:	02892823          	sw	s0,48(s2)
8000aa24:	f4dff0ef          	jal	8000a970 <ttykickout>
8000aa28:	01c12083          	lw	ra,28(sp)
8000aa2c:	01812403          	lw	s0,24(sp)
8000aa30:	01412483          	lw	s1,20(sp)
8000aa34:	01012903          	lw	s2,16(sp)
8000aa38:	00c12983          	lw	s3,12(sp)
8000aa3c:	00100513          	li	a0,1
8000aa40:	02010113          	addi	sp,sp,32
8000aa44:	00008067          	ret

8000aa48 <ttyread>:
8000aa48:	fe010113          	addi	sp,sp,-32
8000aa4c:	00812c23          	sw	s0,24(sp)
8000aa50:	00112e23          	sw	ra,28(sp)
8000aa54:	00912a23          	sw	s1,20(sp)
8000aa58:	01212823          	sw	s2,16(sp)
8000aa5c:	01312623          	sw	s3,12(sp)
8000aa60:	01412423          	sw	s4,8(sp)
8000aa64:	01512223          	sw	s5,4(sp)
8000aa68:	fff00413          	li	s0,-1
8000aa6c:	04064e63          	bltz	a2,8000aac8 <ttyread+0x80>
8000aa70:	00452703          	lw	a4,4(a0)
8000aa74:	09c00693          	li	a3,156
8000aa78:	8000e7b7          	lui	a5,0x8000e
8000aa7c:	02d70733          	mul	a4,a4,a3
8000aa80:	03878793          	addi	a5,a5,56 # 8000e038 <ttytab>
8000aa84:	00050493          	mv	s1,a0
8000aa88:	00058913          	mv	s2,a1
8000aa8c:	00060993          	mv	s3,a2
8000aa90:	00e787b3          	add	a5,a5,a4
8000aa94:	0807c683          	lbu	a3,128(a5)
8000aa98:	04300713          	li	a4,67
8000aa9c:	06e68663          	beq	a3,a4,8000ab08 <ttyread+0xc0>
8000aaa0:	00060413          	mv	s0,a2
8000aaa4:	00061a63          	bnez	a2,8000aab8 <ttyread+0x70>
8000aaa8:	0287a503          	lw	a0,40(a5)
8000aaac:	969fd0ef          	jal	80008414 <semcount>
8000aab0:	00050413          	mv	s0,a0
8000aab4:	00050a63          	beqz	a0,8000aac8 <ttyread+0x80>
8000aab8:	00000993          	li	s3,0
8000aabc:	0289ca63          	blt	s3,s0,8000aaf0 <ttyread+0xa8>
8000aac0:	00045463          	bgez	s0,8000aac8 <ttyread+0x80>
8000aac4:	00000413          	li	s0,0
8000aac8:	01c12083          	lw	ra,28(sp)
8000aacc:	00040513          	mv	a0,s0
8000aad0:	01812403          	lw	s0,24(sp)
8000aad4:	01412483          	lw	s1,20(sp)
8000aad8:	01012903          	lw	s2,16(sp)
8000aadc:	00c12983          	lw	s3,12(sp)
8000aae0:	00812a03          	lw	s4,8(sp)
8000aae4:	00412a83          	lw	s5,4(sp)
8000aae8:	02010113          	addi	sp,sp,32
8000aaec:	00008067          	ret
8000aaf0:	00048513          	mv	a0,s1
8000aaf4:	86dff0ef          	jal	8000a360 <ttygetc>
8000aaf8:	013907b3          	add	a5,s2,s3
8000aafc:	00a78023          	sb	a0,0(a5)
8000ab00:	00198993          	addi	s3,s3,1
8000ab04:	fb9ff06f          	j	8000aabc <ttyread+0x74>
8000ab08:	859ff0ef          	jal	8000a360 <ttygetc>
8000ab0c:	ffe00793          	li	a5,-2
8000ab10:	00050413          	mv	s0,a0
8000ab14:	faf50ae3          	beq	a0,a5,8000aac8 <ttyread+0x80>
8000ab18:	0ff57793          	zext.b	a5,a0
8000ab1c:	00f90023          	sb	a5,0(s2)
8000ab20:	00100413          	li	s0,1
8000ab24:	00a00a93          	li	s5,10
8000ab28:	00d00a13          	li	s4,13
8000ab2c:	f9345ee3          	bge	s0,s3,8000aac8 <ttyread+0x80>
8000ab30:	f9578ce3          	beq	a5,s5,8000aac8 <ttyread+0x80>
8000ab34:	f9478ae3          	beq	a5,s4,8000aac8 <ttyread+0x80>
8000ab38:	00048513          	mv	a0,s1
8000ab3c:	825ff0ef          	jal	8000a360 <ttygetc>
8000ab40:	00890733          	add	a4,s2,s0
8000ab44:	0ff57793          	zext.b	a5,a0
8000ab48:	00f70023          	sb	a5,0(a4)
8000ab4c:	00140413          	addi	s0,s0,1
8000ab50:	fddff06f          	j	8000ab2c <ttyread+0xe4>

8000ab54 <ttywrite>:
8000ab54:	04064e63          	bltz	a2,8000abb0 <ttywrite+0x5c>
8000ab58:	ff010113          	addi	sp,sp,-16
8000ab5c:	00812423          	sw	s0,8(sp)
8000ab60:	00912223          	sw	s1,4(sp)
8000ab64:	01212023          	sw	s2,0(sp)
8000ab68:	00112623          	sw	ra,12(sp)
8000ab6c:	00050493          	mv	s1,a0
8000ab70:	00058413          	mv	s0,a1
8000ab74:	00c58933          	add	s2,a1,a2
8000ab78:	02061063          	bnez	a2,8000ab98 <ttywrite+0x44>
8000ab7c:	00c12083          	lw	ra,12(sp)
8000ab80:	00812403          	lw	s0,8(sp)
8000ab84:	00412483          	lw	s1,4(sp)
8000ab88:	00012903          	lw	s2,0(sp)
8000ab8c:	00100513          	li	a0,1
8000ab90:	01010113          	addi	sp,sp,16
8000ab94:	00008067          	ret
8000ab98:	00044583          	lbu	a1,0(s0)
8000ab9c:	00140413          	addi	s0,s0,1
8000aba0:	00048513          	mv	a0,s1
8000aba4:	df5ff0ef          	jal	8000a998 <ttyputc>
8000aba8:	fe8918e3          	bne	s2,s0,8000ab98 <ttywrite+0x44>
8000abac:	fd1ff06f          	j	8000ab7c <ttywrite+0x28>
8000abb0:	fff00513          	li	a0,-1
8000abb4:	00008067          	ret

8000abb8 <kputc>:
8000abb8:	40251073          	csrw	0x402,a0
8000abbc:	00000513          	li	a0,0
8000abc0:	00008067          	ret

8000abc4 <console_init>:
8000abc4:	00008067          	ret

8000abc8 <console_putchar>:
8000abc8:	40251073          	csrw	0x402,a0
8000abcc:	00008067          	ret

8000abd0 <console_getchar>:
8000abd0:	fff00513          	li	a0,-1
8000abd4:	00008067          	ret

8000abd8 <console_putstr>:
8000abd8:	00054783          	lbu	a5,0(a0)
8000abdc:	00079463          	bnez	a5,8000abe4 <console_putstr+0xc>
8000abe0:	00008067          	ret
8000abe4:	00150513          	addi	a0,a0,1
8000abe8:	40279073          	csrw	0x402,a5
8000abec:	fedff06f          	j	8000abd8 <console_putstr>

8000abf0 <kprintf>:
8000abf0:	fc010113          	addi	sp,sp,-64
8000abf4:	02c12423          	sw	a2,40(sp)
8000abf8:	8000b637          	lui	a2,0x8000b
8000abfc:	02b12223          	sw	a1,36(sp)
8000ac00:	bb860613          	addi	a2,a2,-1096 # 8000abb8 <kputc>
8000ac04:	02410593          	addi	a1,sp,36
8000ac08:	00112e23          	sw	ra,28(sp)
8000ac0c:	02d12623          	sw	a3,44(sp)
8000ac10:	02e12823          	sw	a4,48(sp)
8000ac14:	02f12a23          	sw	a5,52(sp)
8000ac18:	03012c23          	sw	a6,56(sp)
8000ac1c:	03112e23          	sw	a7,60(sp)
8000ac20:	00b12623          	sw	a1,12(sp)
8000ac24:	ea8f60ef          	jal	800012cc <_doprnt>
8000ac28:	01c12083          	lw	ra,28(sp)
8000ac2c:	04010113          	addi	sp,sp,64
8000ac30:	00008067          	ret

8000ac34 <main>:
8000ac34:	fe010113          	addi	sp,sp,-32
8000ac38:	00812c23          	sw	s0,24(sp)
8000ac3c:	00912a23          	sw	s1,20(sp)
8000ac40:	00112e23          	sw	ra,28(sp)
8000ac44:	8000c437          	lui	s0,0x8000c
8000ac48:	7d000493          	li	s1,2000
8000ac4c:	b6840513          	addi	a0,s0,-1176 # 8000bb68 <start+0xee8>
8000ac50:	fa1ff0ef          	jal	8000abf0 <kprintf>
8000ac54:	1f400793          	li	a5,500
8000ac58:	00912623          	sw	s1,12(sp)
8000ac5c:	00c12703          	lw	a4,12(sp)
8000ac60:	00e04863          	bgtz	a4,8000ac70 <main+0x3c>
8000ac64:	fff78793          	addi	a5,a5,-1
8000ac68:	fe0798e3          	bnez	a5,8000ac58 <main+0x24>
8000ac6c:	fe1ff06f          	j	8000ac4c <main+0x18>
8000ac70:	00c12703          	lw	a4,12(sp)
8000ac74:	fff70713          	addi	a4,a4,-1
8000ac78:	00e12623          	sw	a4,12(sp)
8000ac7c:	fe1ff06f          	j	8000ac5c <main+0x28>

8000ac80 <start>:
8000ac80:	ff010113          	addi	sp,sp,-16
8000ac84:	00112623          	sw	ra,12(sp)
8000ac88:	00812423          	sw	s0,8(sp)
8000ac8c:	00912223          	sw	s1,4(sp)
8000ac90:	f35ff0ef          	jal	8000abc4 <console_init>
8000ac94:	8000c537          	lui	a0,0x8000c
8000ac98:	b7050513          	addi	a0,a0,-1168 # 8000bb70 <start+0xef0>
8000ac9c:	f3dff0ef          	jal	8000abd8 <console_putstr>
8000aca0:	8000e537          	lui	a0,0x8000e
8000aca4:	10050513          	addi	a0,a0,256 # 8000e100 <_end>
8000aca8:	b29f70ef          	jal	800027d0 <heap_init>
8000acac:	b5df70ef          	jal	80002808 <heap_free>
8000acb0:	00050413          	mv	s0,a0
8000acb4:	8005d5b7          	lui	a1,0x8005d
8000acb8:	8000c537          	lui	a0,0x8000c
8000acbc:	c6058593          	addi	a1,a1,-928 # 8005cc60 <__global_pointer$+0x4deb8>
8000acc0:	b7c50513          	addi	a0,a0,-1156 # 8000bb7c <start+0xefc>
8000acc4:	f2dff0ef          	jal	8000abf0 <kprintf>
8000acc8:	8000b537          	lui	a0,0x8000b
8000accc:	00040593          	mv	a1,s0
8000acd0:	7c850513          	addi	a0,a0,1992 # 8000b7c8 <start+0xb48>
8000acd4:	f1dff0ef          	jal	8000abf0 <kprintf>
8000acd8:	800004b7          	lui	s1,0x80000
8000acdc:	8000c437          	lui	s0,0x8000c
8000ace0:	74c40413          	addi	s0,s0,1868 # 8000c74c <_etext>
8000ace4:	00048593          	mv	a1,s1
8000ace8:	8000c537          	lui	a0,0x8000c
8000acec:	40b405b3          	sub	a1,s0,a1
8000acf0:	b8c50513          	addi	a0,a0,-1140 # 8000bb8c <start+0xf0c>
8000acf4:	efdff0ef          	jal	8000abf0 <kprintf>
8000acf8:	8000c537          	lui	a0,0x8000c
8000acfc:	fff40613          	addi	a2,s0,-1
8000ad00:	00048593          	mv	a1,s1
8000ad04:	ba850513          	addi	a0,a0,-1112 # 8000bba8 <start+0xf28>
8000ad08:	ee9ff0ef          	jal	8000abf0 <kprintf>
8000ad0c:	8000d4b7          	lui	s1,0x8000d
8000ad10:	8000e437          	lui	s0,0x8000e
8000ad14:	0d440413          	addi	s0,s0,212 # 8000e0d4 <_ebss>
8000ad18:	84048593          	addi	a1,s1,-1984 # 8000c840 <_sdata>
8000ad1c:	8000c537          	lui	a0,0x8000c
8000ad20:	40b405b3          	sub	a1,s0,a1
8000ad24:	bc850513          	addi	a0,a0,-1080 # 8000bbc8 <start+0xf48>
8000ad28:	ec9ff0ef          	jal	8000abf0 <kprintf>
8000ad2c:	8000c537          	lui	a0,0x8000c
8000ad30:	fff40613          	addi	a2,s0,-1
8000ad34:	84048593          	addi	a1,s1,-1984
8000ad38:	be050513          	addi	a0,a0,-1056 # 8000bbe0 <start+0xf60>
8000ad3c:	eb5ff0ef          	jal	8000abf0 <kprintf>
8000ad40:	d4cf50ef          	jal	8000028c <disable>
8000ad44:	865f50ef          	jal	800005a8 <timer_init>
8000ad48:	00812403          	lw	s0,8(sp)
8000ad4c:	00c12083          	lw	ra,12(sp)
8000ad50:	00412483          	lw	s1,4(sp)
8000ad54:	01010113          	addi	sp,sp,16
8000ad58:	eadfc06f          	j	80007c04 <nulluser>
8000ad5c:	7845                	.insn	2, 0x7845
8000ad5e:	74706563          	bltu	zero,t2,8000b4a8 <start+0x828>
8000ad62:	6f69                	.insn	2, 0x6f69
8000ad64:	3a6e                	.insn	2, 0x3a6e
8000ad66:	5020                	.insn	2, 0x5020
8000ad68:	30253d43          	.insn	4, 0x30253d43
8000ad6c:	7838                	.insn	2, 0x7838
8000ad6e:	4320                	.insn	2, 0x4320
8000ad70:	7561                	.insn	2, 0x7561
8000ad72:	253d6573          	.insn	4, 0x253d6573
8000ad76:	2078                	.insn	2, 0x2078
8000ad78:	74617453          	.insn	4, 0x74617453
8000ad7c:	7375                	.insn	2, 0x7375
8000ad7e:	253d                	.insn	2, 0x253d
8000ad80:	3830                	.insn	2, 0x3830
8000ad82:	0a78                	.insn	2, 0x0a78
8000ad84:	0000                	.insn	2, 0x
8000ad86:	0000                	.insn	2, 0x
8000ad88:	4552                	.insn	2, 0x4552
8000ad8a:	2e252047          	.insn	4, 0x2e252047
8000ad8e:	6432                	.insn	2, 0x6432
8000ad90:	203a                	.insn	2, 0x203a
8000ad92:	3025                	.insn	2, 0x3025
8000ad94:	7838                	.insn	2, 0x7838
8000ad96:	000a                	.insn	2, 0x000a
8000ad98:	6e55                	.insn	2, 0x6e55
8000ad9a:	6168                	.insn	2, 0x6168
8000ad9c:	646e                	.insn	2, 0x646e
8000ad9e:	656c                	.insn	2, 0x656c
8000ada0:	2064                	.insn	2, 0x2064
8000ada2:	5249                	.insn	2, 0x5249
8000ada4:	2151                	.insn	2, 0x2151
8000ada6:	000a                	.insn	2, 0x000a
8000ada8:	5245                	.insn	2, 0x5245
8000adaa:	4f52                	.insn	2, 0x4f52
8000adac:	3a52                	.insn	2, 0x3a52
8000adae:	4c20                	.insn	2, 0x4c20
8000adb0:	2064616f          	jal	sp,80050fb6 <__global_pointer$+0x4220e>
8000adb4:	6166                	.insn	2, 0x6166
8000adb6:	6c75                	.insn	2, 0x6c75
8000adb8:	2074                	.insn	2, 0x2074
8000adba:	6f66                	.insn	2, 0x6f66
8000adbc:	2072                	.insn	2, 0x2072
8000adbe:	6361                	.insn	2, 0x6361
8000adc0:	73736563          	bltu	t1,s7,8000b4ea <start+0x86a>
8000adc4:	7420                	.insn	2, 0x7420
8000adc6:	6461206f          	j	8001d40c <__global_pointer$+0xe664>
8000adca:	7264                	.insn	2, 0x7264
8000adcc:	3020                	.insn	2, 0x3020
8000adce:	2578                	.insn	2, 0x2578
8000add0:	3830                	.insn	2, 0x3830
8000add2:	0a78                	.insn	2, 0x0a78
8000add4:	0000                	.insn	2, 0x
8000add6:	0000                	.insn	2, 0x
8000add8:	5245                	.insn	2, 0x5245
8000adda:	4f52                	.insn	2, 0x4f52
8000addc:	3a52                	.insn	2, 0x3a52
8000adde:	5320                	.insn	2, 0x5320
8000ade0:	6f74                	.insn	2, 0x6f74
8000ade2:	6572                	.insn	2, 0x6572
8000ade4:	6620                	.insn	2, 0x6620
8000ade6:	7561                	.insn	2, 0x7561
8000ade8:	746c                	.insn	2, 0x746c
8000adea:	6620                	.insn	2, 0x6620
8000adec:	6120726f          	jal	tp,800123fe <__global_pointer$+0x3656>
8000adf0:	73656363          	bltu	a0,s6,8000b516 <start+0x896>
8000adf4:	6f742073          	.insn	4, 0x6f742073
8000adf8:	6120                	.insn	2, 0x6120
8000adfa:	6464                	.insn	2, 0x6464
8000adfc:	2072                	.insn	2, 0x2072
8000adfe:	7830                	.insn	2, 0x7830
8000ae00:	3025                	.insn	2, 0x3025
8000ae02:	7838                	.insn	2, 0x7838
8000ae04:	000a                	.insn	2, 0x000a
8000ae06:	0000                	.insn	2, 0x
8000ae08:	5245                	.insn	2, 0x5245
8000ae0a:	4f52                	.insn	2, 0x4f52
8000ae0c:	3a52                	.insn	2, 0x3a52
8000ae0e:	4d20                	.insn	2, 0x4d20
8000ae10:	7369                	.insn	2, 0x7369
8000ae12:	6c61                	.insn	2, 0x6c61
8000ae14:	6769                	.insn	2, 0x6769
8000ae16:	656e                	.insn	2, 0x656e
8000ae18:	2064                	.insn	2, 0x2064
8000ae1a:	6f6c                	.insn	2, 0x6f6c
8000ae1c:	6461                	.insn	2, 0x6461
8000ae1e:	6620                	.insn	2, 0x6620
8000ae20:	6120726f          	jal	tp,80012432 <__global_pointer$+0x368a>
8000ae24:	73656363          	bltu	a0,s6,8000b54a <start+0x8ca>
8000ae28:	6f742073          	.insn	4, 0x6f742073
8000ae2c:	6120                	.insn	2, 0x6120
8000ae2e:	6464                	.insn	2, 0x6464
8000ae30:	2072                	.insn	2, 0x2072
8000ae32:	7830                	.insn	2, 0x7830
8000ae34:	3025                	.insn	2, 0x3025
8000ae36:	7838                	.insn	2, 0x7838
8000ae38:	000a                	.insn	2, 0x000a
8000ae3a:	0000                	.insn	2, 0x
8000ae3c:	5245                	.insn	2, 0x5245
8000ae3e:	4f52                	.insn	2, 0x4f52
8000ae40:	3a52                	.insn	2, 0x3a52
8000ae42:	4d20                	.insn	2, 0x4d20
8000ae44:	7369                	.insn	2, 0x7369
8000ae46:	6c61                	.insn	2, 0x6c61
8000ae48:	6769                	.insn	2, 0x6769
8000ae4a:	656e                	.insn	2, 0x656e
8000ae4c:	2064                	.insn	2, 0x2064
8000ae4e:	726f7473          	.insn	4, 0x726f7473
8000ae52:	2065                	.insn	2, 0x2065
8000ae54:	6f66                	.insn	2, 0x6f66
8000ae56:	2072                	.insn	2, 0x2072
8000ae58:	6361                	.insn	2, 0x6361
8000ae5a:	73736563          	bltu	t1,s7,8000b584 <start+0x904>
8000ae5e:	7420                	.insn	2, 0x7420
8000ae60:	6461206f          	j	8001d4a6 <__global_pointer$+0xe6fe>
8000ae64:	7264                	.insn	2, 0x7264
8000ae66:	3020                	.insn	2, 0x3020
8000ae68:	2578                	.insn	2, 0x2578
8000ae6a:	3830                	.insn	2, 0x3830
8000ae6c:	0a78                	.insn	2, 0x0a78
8000ae6e:	0000                	.insn	2, 0x
8000ae70:	5245                	.insn	2, 0x5245
8000ae72:	4f52                	.insn	2, 0x4f52
8000ae74:	3a52                	.insn	2, 0x3a52
8000ae76:	6620                	.insn	2, 0x6620
8000ae78:	7561                	.insn	2, 0x7561
8000ae7a:	746c                	.insn	2, 0x746c
8000ae7c:	6620                	.insn	2, 0x6620
8000ae7e:	7465                	.insn	2, 0x7465
8000ae80:	61206863          	bltu	zero,s2,8000b490 <start+0x810>
8000ae84:	73656363          	bltu	a0,s6,8000b5aa <start+0x92a>
8000ae88:	6f742073          	.insn	4, 0x6f742073
8000ae8c:	6120                	.insn	2, 0x6120
8000ae8e:	6464                	.insn	2, 0x6464
8000ae90:	2072                	.insn	2, 0x2072
8000ae92:	7830                	.insn	2, 0x7830
8000ae94:	3025                	.insn	2, 0x3025
8000ae96:	7838                	.insn	2, 0x7838
8000ae98:	000a                	.insn	2, 0x000a
8000ae9a:	0000                	.insn	2, 0x
8000ae9c:	5245                	.insn	2, 0x5245
8000ae9e:	4f52                	.insn	2, 0x4f52
8000aea0:	3a52                	.insn	2, 0x3a52
8000aea2:	6920                	.insn	2, 0x6920
8000aea4:	656c                	.insn	2, 0x656c
8000aea6:	206c6167          	.insn	4, 0x206c6167
8000aeaa:	6e69                	.insn	2, 0x6e69
8000aeac:	75727473          	.insn	4, 0x75727473
8000aeb0:	6f697463          	bgeu	s2,s6,8000b598 <start+0x918>
8000aeb4:	206e                	.insn	2, 0x206e
8000aeb6:	6361                	.insn	2, 0x6361
8000aeb8:	73736563          	bltu	t1,s7,8000b5e2 <start+0x962>
8000aebc:	7420                	.insn	2, 0x7420
8000aebe:	6461206f          	j	8001d504 <__global_pointer$+0xe75c>
8000aec2:	7264                	.insn	2, 0x7264
8000aec4:	3020                	.insn	2, 0x3020
8000aec6:	2578                	.insn	2, 0x2578
8000aec8:	3830                	.insn	2, 0x3830
8000aeca:	0a78                	.insn	2, 0x0a78
8000aecc:	0000                	.insn	2, 0x
8000aece:	0000                	.insn	2, 0x
8000aed0:	5245                	.insn	2, 0x5245
8000aed2:	4f52                	.insn	2, 0x4f52
8000aed4:	3a52                	.insn	2, 0x3a52
8000aed6:	4d20                	.insn	2, 0x4d20
8000aed8:	7369                	.insn	2, 0x7369
8000aeda:	6c61                	.insn	2, 0x6c61
8000aedc:	6769                	.insn	2, 0x6769
8000aede:	656e                	.insn	2, 0x656e
8000aee0:	2064                	.insn	2, 0x2064
8000aee2:	6620                	.insn	2, 0x6620
8000aee4:	7465                	.insn	2, 0x7465
8000aee6:	61206863          	bltu	zero,s2,8000b4f6 <start+0x876>
8000aeea:	73656363          	bltu	a0,s6,8000b610 <start+0x990>
8000aeee:	6f742073          	.insn	4, 0x6f742073
8000aef2:	6120                	.insn	2, 0x6120
8000aef4:	6464                	.insn	2, 0x6464
8000aef6:	2072                	.insn	2, 0x2072
8000aef8:	7830                	.insn	2, 0x7830
8000aefa:	3025                	.insn	2, 0x3025
8000aefc:	7838                	.insn	2, 0x7838
8000aefe:	000a                	.insn	2, 0x000a
8000af00:	6e55                	.insn	2, 0x6e55
8000af02:	6168                	.insn	2, 0x6168
8000af04:	646e                	.insn	2, 0x646e
8000af06:	656c                	.insn	2, 0x656c
8000af08:	2064                	.insn	2, 0x2064
8000af0a:	7865                	.insn	2, 0x7865
8000af0c:	74706563          	bltu	zero,t2,8000b656 <start+0x9d6>
8000af10:	6f69                	.insn	2, 0x6f69
8000af12:	3a6e                	.insn	2, 0x3a6e
8000af14:	5020                	.insn	2, 0x5020
8000af16:	78302043          	.insn	4, 0x78302043
8000af1a:	3025                	.insn	2, 0x3025
8000af1c:	7838                	.insn	2, 0x7838
8000af1e:	4320                	.insn	2, 0x4320
8000af20:	7561                	.insn	2, 0x7561
8000af22:	25206573          	.insn	4, 0x25206573
8000af26:	2164                	.insn	2, 0x2164
8000af28:	000a                	.insn	2, 0x000a
8000af2a:	0000                	.insn	2, 0x
8000af2c:	7865                	.insn	2, 0x7865
8000af2e:	6574                	.insn	2, 0x6574
8000af30:	6e72                	.insn	2, 0x6e72
8000af32:	6c61                	.insn	2, 0x6c61
8000af34:	6920                	.insn	2, 0x6920
8000af36:	746e                	.insn	2, 0x746e
8000af38:	7265                	.insn	2, 0x7265
8000af3a:	7572                	.insn	2, 0x7572
8000af3c:	7470                	.insn	2, 0x7470
8000af3e:	6f69                	.insn	2, 0x6f69
8000af40:	216e                	.insn	2, 0x216e
8000af42:	000a                	.insn	2, 0x000a
8000af44:	6e75                	.insn	2, 0x6e75
8000af46:	776f6e6b          	.insn	4, 0x776f6e6b
8000af4a:	206e                	.insn	2, 0x206e
8000af4c:	7361                	.insn	2, 0x7361
8000af4e:	6e79                	.insn	2, 0x6e79
8000af50:	78652063          	.insn	4, 0x78652063
8000af54:	74706563          	bltu	zero,t2,8000b69e <start+0xa1e>
8000af58:	6f69                	.insn	2, 0x6f69
8000af5a:	216e                	.insn	2, 0x216e
8000af5c:	000a                	.insn	2, 0x000a
8000af5e:	0000                	.insn	2, 0x
8000af60:	3130                	.insn	2, 0x3130
8000af62:	3332                	.insn	2, 0x3332
8000af64:	3534                	.insn	2, 0x3534
8000af66:	3736                	.insn	2, 0x3736
8000af68:	3938                	.insn	2, 0x3938
8000af6a:	6261                	.insn	2, 0x6261
8000af6c:	66656463          	bltu	a0,t1,8000b5d4 <start+0x954>
8000af70:	0000                	.insn	2, 0x
8000af72:	0000                	.insn	2, 0x
8000af74:	3130                	.insn	2, 0x3130
8000af76:	3332                	.insn	2, 0x3332
8000af78:	3534                	.insn	2, 0x3534
8000af7a:	3736                	.insn	2, 0x3736
8000af7c:	3938                	.insn	2, 0x3938
8000af7e:	4241                	.insn	2, 0x4241
8000af80:	46454443          	.insn	4, 0x46454443
8000af84:	0000                	.insn	2, 0x
8000af86:	0000                	.insn	2, 0x
8000af88:	6e28                	.insn	2, 0x6e28
8000af8a:	6c75                	.insn	2, 0x6c75
8000af8c:	296c                	.insn	2, 0x296c
8000af8e:	0000                	.insn	2, 0x
8000af90:	2020                	.insn	2, 0x2020
8000af92:	7325                	.insn	2, 0x7325
8000af94:	000a                	.insn	2, 0x000a
8000af96:	0000                	.insn	2, 0x
8000af98:	2020                	.insn	2, 0x2020
8000af9a:	3025                	.insn	2, 0x3025
8000af9c:	7834                	.insn	2, 0x7834
8000af9e:	0020                	.insn	2, 0x0020
8000afa0:	2520                	.insn	2, 0x2520
8000afa2:	3230                	.insn	2, 0x3230
8000afa4:	0078                	.insn	2, 0x0078
8000afa6:	0000                	.insn	2, 0x
8000afa8:	2020                	.insn	2, 0x2020
8000afaa:	0020                	.insn	2, 0x0020
8000afac:	0920                	.insn	2, 0x0920
8000afae:	0a0d                	.insn	2, 0x0a0d
8000afb0:	0000                	.insn	2, 0x
8000afb2:	0000                	.insn	2, 0x
8000afb4:	3130                	.insn	2, 0x3130
8000afb6:	3332                	.insn	2, 0x3332
8000afb8:	3534                	.insn	2, 0x3534
8000afba:	3736                	.insn	2, 0x3736
8000afbc:	3938                	.insn	2, 0x3938
8000afbe:	4241                	.insn	2, 0x4241
8000afc0:	46454443          	.insn	4, 0x46454443
8000afc4:	4a494847          	.insn	4, 0x4a494847
8000afc8:	4e4d4c4b          	.insn	4, 0x4e4d4c4b
8000afcc:	5251504f          	.insn	4, 0x5251504f
8000afd0:	56555453          	.insn	4, 0x56555453
8000afd4:	00595857          	.insn	4, 0x00595857
8000afd8:	534e4f43          	.insn	4, 0x534e4f43
8000afdc:	00454c4f          	.insn	4, 0x00454c4f
8000afe0:	554e                	.insn	2, 0x554e
8000afe2:	4c4c                	.insn	2, 0x4c4c
8000afe4:	4544                	.insn	2, 0x4544
8000afe6:	0056                	.insn	2, 0x0056
8000afe8:	414e                	.insn	2, 0x414e
8000afea:	454d                	.insn	2, 0x454d
8000afec:	43415053          	.insn	4, 0x43415053
8000aff0:	0045                	.insn	2, 0x0045
8000aff2:	0000                	.insn	2, 0x
8000aff4:	61657263          	bgeu	a0,s6,8000b5f8 <start+0x978>
8000aff8:	6574                	.insn	2, 0x6574
8000affa:	6520                	.insn	2, 0x6520
8000affc:	7272                	.insn	2, 0x7272
8000affe:	2520726f          	jal	tp,80012250 <__global_pointer$+0x34a8>
8000b002:	00000a73          	.insn	4, 0x0a73
8000b006:	0000                	.insn	2, 0x
8000b008:	7265                	.insn	2, 0x7265
8000b00a:	6f72                	.insn	2, 0x6f72
8000b00c:	2072                	.insn	2, 0x2072
8000b00e:	6874                	.insn	2, 0x6874
8000b010:	6e72                	.insn	2, 0x6e72
8000b012:	7765                	.insn	2, 0x7765
8000b014:	2520                	.insn	2, 0x2520
8000b016:	00000a73          	.insn	4, 0x0a73
8000b01a:	0000                	.insn	2, 0x
8000b01c:	6e69                	.insn	2, 0x6e69
8000b01e:	7469                	.insn	2, 0x7469
8000b020:	7020                	.insn	2, 0x7020
8000b022:	6f72                	.insn	2, 0x6f72
8000b024:	73736563          	bltu	t1,s7,8000b74e <start+0xace>
8000b028:	2e2e                	.insn	2, 0x2e2e
8000b02a:	2e2e                	.insn	2, 0x2e2e
8000b02c:	000a                	.insn	2, 0x000a
8000b02e:	0000                	.insn	2, 0x
8000b030:	6c69                	.insn	2, 0x6c69
8000b032:	6564                	.insn	2, 0x6564
8000b034:	0032                	.insn	2, 0x0032
8000b036:	0000                	.insn	2, 0x
8000b038:	6c656873          	.insn	4, 0x6c656873
8000b03c:	006c                	.insn	2, 0x006c
8000b03e:	0000                	.insn	2, 0x
8000b040:	6946                	.insn	2, 0x6946
8000b042:	6f62                	.insn	2, 0x6f62
8000b044:	616e                	.insn	2, 0x616e
8000b046:	28696363          	bltu	s2,t1,8000b2cc <start+0x64c>
8000b04a:	2930                	.insn	2, 0x2930
8000b04c:	3d20                	.insn	2, 0x3d20
8000b04e:	2520                	.insn	2, 0x2520
8000b050:	0a64                	.insn	2, 0x0a64
8000b052:	0000                	.insn	2, 0x
8000b054:	6946                	.insn	2, 0x6946
8000b056:	6f62                	.insn	2, 0x6f62
8000b058:	616e                	.insn	2, 0x616e
8000b05a:	28696363          	bltu	s2,t1,8000b2e0 <start+0x660>
8000b05e:	2931                	.insn	2, 0x2931
8000b060:	3d20                	.insn	2, 0x3d20
8000b062:	2520                	.insn	2, 0x2520
8000b064:	0a64                	.insn	2, 0x0a64
8000b066:	0000                	.insn	2, 0x
8000b068:	6946                	.insn	2, 0x6946
8000b06a:	6f62                	.insn	2, 0x6f62
8000b06c:	616e                	.insn	2, 0x616e
8000b06e:	28696363          	bltu	s2,t1,8000b2f4 <start+0x674>
8000b072:	6425                	.insn	2, 0x6425
8000b074:	2029                	.insn	2, 0x2029
8000b076:	203d                	.insn	2, 0x203d
8000b078:	6425                	.insn	2, 0x6425
8000b07a:	000a                	.insn	2, 0x000a
8000b07c:	0909                	.insn	2, 0x0909
8000b07e:	6c69                	.insn	2, 0x6c69
8000b080:	6564                	.insn	2, 0x6564
8000b082:	0a32                	.insn	2, 0x0a32
8000b084:	0000                	.insn	2, 0x
8000b086:	0000                	.insn	2, 0x
8000b088:	6946                	.insn	2, 0x6946
8000b08a:	6f62                	.insn	2, 0x6f62
8000b08c:	616e                	.insn	2, 0x616e
8000b08e:	28696363          	bltu	s2,t1,8000b314 <start+0x694>
8000b092:	2930                	.insn	2, 0x2930
8000b094:	3d20                	.insn	2, 0x3d20
8000b096:	3020                	.insn	2, 0x3020
8000b098:	000a                	.insn	2, 0x000a
8000b09a:	0000                	.insn	2, 0x
8000b09c:	6c636943          	.insn	4, 0x6c636943
8000b0a0:	7520736f          	jal	t1,800127f2 <__global_pointer$+0x3a4a>
8000b0a4:	6f646173          	.insn	4, 0x6f646173
8000b0a8:	25203a73          	.insn	4, 0x25203a73
8000b0ac:	0a64                	.insn	2, 0x0a64
8000b0ae:	0000                	.insn	2, 0x
8000b0b0:	c30a                	.insn	2, 0xc30a
8000b0b2:	6c9a                	.insn	2, 0x6c9a
8000b0b4:	6974                	.insn	2, 0x6974
8000b0b6:	6f6d                	.insn	2, 0x6f6d
8000b0b8:	4620                	.insn	2, 0x4620
8000b0ba:	6269                	.insn	2, 0x6269
8000b0bc:	63616e6f          	jal	t3,800216f2 <__global_pointer$+0x1294a>
8000b0c0:	25286963          	bltu	a6,s2,8000b312 <start+0x692>
8000b0c4:	2964                	.insn	2, 0x2964
8000b0c6:	3d20                	.insn	2, 0x3d20
8000b0c8:	2520                	.insn	2, 0x2520
8000b0ca:	0a64                	.insn	2, 0x0a64
8000b0cc:	0000                	.insn	2, 0x
8000b0ce:	0000                	.insn	2, 0x
8000b0d0:	6e49                	.insn	2, 0x6e49
8000b0d2:	6369                	.insn	2, 0x6369
8000b0d4:	6169                	.insn	2, 0x6169
8000b0d6:	646e                	.insn	2, 0x646e
8000b0d8:	6574206f          	j	8004df2e <__global_pointer$+0x3f186>
8000b0dc:	64207473          	.insn	4, 0x64207473
8000b0e0:	2065                	.insn	2, 0x2065
8000b0e2:	20555043          	.insn	4, 0x20555043
8000b0e6:	206e6f63          	bltu	t3,t1,8000b304 <start+0x684>
8000b0ea:	6425                	.insn	2, 0x6425
8000b0ec:	6920                	.insn	2, 0x6920
8000b0ee:	6574                	.insn	2, 0x6574
8000b0f0:	6172                	.insn	2, 0x6172
8000b0f2:	6e6f6963          	bltu	t5,t1,8000b7e4 <start+0xb64>
8000b0f6:	7365                	.insn	2, 0x7365
8000b0f8:	2e2e                	.insn	2, 0x2e2e
8000b0fa:	0a2e                	.insn	2, 0x0a2e
8000b0fc:	0000                	.insn	2, 0x
8000b0fe:	0000                	.insn	2, 0x
8000b100:	7250                	.insn	2, 0x7250
8000b102:	6572676f          	jal	a4,80031f58 <__global_pointer$+0x231b0>
8000b106:	203a6f73          	.insn	4, 0x203a6f73
8000b10a:	6425                	.insn	2, 0x6425
8000b10c:	2064252f          	amoxor.w	a0,t1,(s0)
8000b110:	7469                	.insn	2, 0x7469
8000b112:	7265                	.insn	2, 0x7265
8000b114:	6361                	.insn	2, 0x6361
8000b116:	6f69                	.insn	2, 0x6f69
8000b118:	656e                	.insn	2, 0x656e
8000b11a:	6f632073          	.insn	4, 0x6f632073
8000b11e:	706d                	.insn	2, 0x706d
8000b120:	656c                	.insn	2, 0x656c
8000b122:	6174                	.insn	2, 0x6174
8000b124:	6164                	.insn	2, 0x6164
8000b126:	00000a73          	.insn	4, 0x0a73
8000b12a:	0000                	.insn	2, 0x
8000b12c:	540a                	.insn	2, 0x540a
8000b12e:	7365                	.insn	2, 0x7365
8000b130:	2074                	.insn	2, 0x2074
8000b132:	6564                	.insn	2, 0x6564
8000b134:	4320                	.insn	2, 0x4320
8000b136:	5550                	.insn	2, 0x5550
8000b138:	6320                	.insn	2, 0x6320
8000b13a:	6c706d6f          	jal	s10,80012000 <__global_pointer$+0x3258>
8000b13e:	7465                	.insn	2, 0x7465
8000b140:	6461                	.insn	2, 0x6461
8000b142:	000a2e6f          	jal	t3,800ad142 <nnames+0x4e0ee>
8000b146:	0000                	.insn	2, 0x
8000b148:	6c636943          	.insn	4, 0x6c636943
8000b14c:	7020736f          	jal	t1,8001284e <__global_pointer$+0x3aa6>
8000b150:	6920726f          	jal	tp,800127e2 <__global_pointer$+0x3a3a>
8000b154:	6574                	.insn	2, 0x6574
8000b156:	6172                	.insn	2, 0x6172
8000b158:	b3c36963          	bltu	t1,t3,8000a48a <echoch+0x72>
8000b15c:	3a6e                	.insn	2, 0x3a6e
8000b15e:	2520                	.insn	2, 0x2520
8000b160:	0a64                	.insn	2, 0x0a64
8000b162:	0000                	.insn	2, 0x
8000b164:	3030                	.insn	2, 0x3030
8000b166:	353a                	.insn	2, 0x353a
8000b168:	39323a33          	.insn	4, 0x39323a33
8000b16c:	0000                	.insn	2, 0x
8000b16e:	0000                	.insn	2, 0x
8000b170:	754a                	.insn	2, 0x754a
8000b172:	206e                	.insn	2, 0x206e
8000b174:	3131                	.insn	2, 0x3131
8000b176:	3220                	.insn	2, 0x3220
8000b178:	3230                	.insn	2, 0x3230
8000b17a:	0035                	.insn	2, 0x0035
8000b17c:	7542                	.insn	2, 0x7542
8000b17e:	6c69                	.insn	2, 0x6c69
8000b180:	2064                	.insn	2, 0x2064
8000b182:	6164                	.insn	2, 0x6164
8000b184:	6574                	.insn	2, 0x6574
8000b186:	203a                	.insn	2, 0x203a
8000b188:	7325                	.insn	2, 0x7325
8000b18a:	2520                	.insn	2, 0x2520
8000b18c:	000a0a73          	.insn	4, 0x000a0a73
8000b190:	6c69                	.insn	2, 0x6c69
8000b192:	6564                	.insn	2, 0x6564
8000b194:	0000                	.insn	2, 0x
8000b196:	0000                	.insn	2, 0x
8000b198:	72617473          	.insn	4, 0x72617473
8000b19c:	2074                	.insn	2, 0x2074
8000b19e:	7270                	.insn	2, 0x7270
8000b1a0:	7365636f          	jal	t1,800618d6 <nnames+0x2882>
8000b1a4:	00000073          	ecall
8000b1a8:	0a0a                	.insn	2, 0x0a0a
8000b1aa:	700d                	.insn	2, 0x700d
8000b1ac:	6e61                	.insn	2, 0x6e61
8000b1ae:	6369                	.insn	2, 0x6369
8000b1b0:	203a                	.insn	2, 0x203a
8000b1b2:	7325                	.insn	2, 0x7325
8000b1b4:	0a0a                	.insn	2, 0x0a0a
8000b1b6:	0000                	.insn	2, 0x
8000b1b8:	6f68                	.insn	2, 0x6f68
8000b1ba:	616c                	.insn	2, 0x616c
8000b1bc:	0000                	.insn	2, 0x
8000b1be:	0000                	.insn	2, 0x
8000b1c0:	6164                	.insn	2, 0x6164
8000b1c2:	696e                	.insn	2, 0x696e
8000b1c4:	6c65                	.insn	2, 0x6c65
8000b1c6:	0000                	.insn	2, 0x
8000b1c8:	616d                	.insn	2, 0x616d
8000b1ca:	6c6c                	.insn	2, 0x6c6c
8000b1cc:	000a636f          	jal	t1,800b11cc <nnames+0x52178>
8000b1d0:	7325                	.insn	2, 0x7325
8000b1d2:	0000                	.insn	2, 0x
8000b1d4:	63737973          	.insn	4, 0x63737973
8000b1d8:	6c61                	.insn	2, 0x6c61
8000b1da:	206c                	.insn	2, 0x206c
8000b1dc:	6f6e                	.insn	2, 0x6f6e
8000b1de:	6920                	.insn	2, 0x6920
8000b1e0:	706d                	.insn	2, 0x706d
8000b1e2:	656c                	.insn	2, 0x656c
8000b1e4:	656d                	.insn	2, 0x656d
8000b1e6:	746e                	.insn	2, 0x746e
8000b1e8:	2520                	.insn	2, 0x2520
8000b1ea:	2c78                	.insn	2, 0x2c78
8000b1ec:	2520                	.insn	2, 0x2520
8000b1ee:	0a64                	.insn	2, 0x0a64
8000b1f0:	0000                	.insn	2, 0x
8000b1f2:	0000                	.insn	2, 0x
8000b1f4:	0a0a                	.insn	2, 0x0a0a
8000b1f6:	6c41                	.insn	2, 0x6c41
8000b1f8:	206c                	.insn	2, 0x206c
8000b1fa:	7375                	.insn	2, 0x7375
8000b1fc:	7265                	.insn	2, 0x7265
8000b1fe:	7020                	.insn	2, 0x7020
8000b200:	6f72                	.insn	2, 0x6f72
8000b202:	73736563          	bltu	t1,s7,8000b92c <start+0xcac>
8000b206:	7365                	.insn	2, 0x7365
8000b208:	6820                	.insn	2, 0x6820
8000b20a:	7661                	.insn	2, 0x7661
8000b20c:	2065                	.insn	2, 0x2065
8000b20e:	706d6f63          	bltu	s10,t1,8000b92c <start+0xcac>
8000b212:	656c                	.insn	2, 0x656c
8000b214:	6574                	.insn	2, 0x6574
8000b216:	2e64                	.insn	2, 0x2e64
8000b218:	0a0a                	.insn	2, 0x0a0a
8000b21a:	0000                	.insn	2, 0x
8000b21c:	2f2e                	.insn	2, 0x2f2e
8000b21e:	0000                	.insn	2, 0x
8000b220:	2e2e                	.insn	2, 0x2e2e
8000b222:	002f002f          	.insn	4, 0x002f002f
8000b226:	0000                	.insn	2, 0x
8000b228:	2020                	.insn	2, 0x2020
8000b22a:	2020                	.insn	2, 0x2020
8000b22c:	5c2f202f          	.insn	4, 0x5c2f202f
8000b230:	5c20                	.insn	2, 0x5c20
8000b232:	2020                	.insn	2, 0x2020
8000b234:	2020                	.insn	2, 0x2020
8000b236:	7c5f 7c20 205f      	.insn	6, 0x205f7c207c5f
8000b23c:	2020                	.insn	2, 0x2020
8000b23e:	207c                	.insn	2, 0x207c
8000b240:	205c                	.insn	2, 0x205c
8000b242:	2020                	.insn	2, 0x2020
8000b244:	207c                	.insn	2, 0x207c
8000b246:	7c20                	.insn	2, 0x7c20
8000b248:	7c20                	.insn	2, 0x7c20
8000b24a:	2020                	.insn	2, 0x2020
8000b24c:	207c                	.insn	2, 0x207c
8000b24e:	207c                	.insn	2, 0x207c
8000b250:	2020                	.insn	2, 0x2020
8000b252:	0000                	.insn	2, 0x
8000b254:	2020                	.insn	2, 0x2020
8000b256:	2020                	.insn	2, 0x2020
8000b258:	205c                	.insn	2, 0x205c
8000b25a:	2f5c                	.insn	2, 0x2f5c
8000b25c:	2f20                	.insn	2, 0x2f20
8000b25e:	2020                	.insn	2, 0x2020
8000b260:	2020                	.insn	2, 0x2020
8000b262:	7c20                	.insn	2, 0x7c20
8000b264:	7c20                	.insn	2, 0x7c20
8000b266:	2020                	.insn	2, 0x2020
8000b268:	2020                	.insn	2, 0x2020
8000b26a:	207c                	.insn	2, 0x207c
8000b26c:	5c20                	.insn	2, 0x5c20
8000b26e:	207c                	.insn	2, 0x207c
8000b270:	207c                	.insn	2, 0x207c
8000b272:	7c20                	.insn	2, 0x7c20
8000b274:	7c20                	.insn	2, 0x7c20
8000b276:	2020                	.insn	2, 0x2020
8000b278:	207c                	.insn	2, 0x207c
8000b27a:	207c                	.insn	2, 0x207c
8000b27c:	2020                	.insn	2, 0x2020
8000b27e:	0000                	.insn	2, 0x
8000b280:	2020                	.insn	2, 0x2020
8000b282:	5c20                	.insn	2, 0x5c20
8000b284:	5c20                	.insn	2, 0x5c20
8000b286:	2020                	.insn	2, 0x2020
8000b288:	202f202f          	amoxor.w	zero,sp,(t5)
8000b28c:	7c20                	.insn	2, 0x7c20
8000b28e:	5f5f 5f20 7c5f      	.insn	6, 0x7c5f5f205f5f
8000b294:	2020                	.insn	2, 0x2020
8000b296:	207c                	.insn	2, 0x207c
8000b298:	205c                	.insn	2, 0x205c
8000b29a:	207c                	.insn	2, 0x207c
8000b29c:	207c                	.insn	2, 0x207c
8000b29e:	7c20                	.insn	2, 0x7c20
8000b2a0:	7c20                	.insn	2, 0x7c20
8000b2a2:	2020                	.insn	2, 0x2020
8000b2a4:	207c                	.insn	2, 0x207c
8000b2a6:	207c                	.insn	2, 0x207c
8000b2a8:	2020                	.insn	2, 0x2020
8000b2aa:	0000                	.insn	2, 0x
8000b2ac:	2020                	.insn	2, 0x2020
8000b2ae:	5f20                	.insn	2, 0x5f20
8000b2b0:	205f 2020 5f20      	.insn	6, 0x5f202020205f
8000b2b6:	205f 2020 5f5f      	.insn	6, 0x5f5f2020205f
8000b2bc:	5f5f 205f 2020      	.insn	6, 0x2020205f5f5f
8000b2c2:	5f20                	.insn	2, 0x5f20
8000b2c4:	2020                	.insn	2, 0x2020
8000b2c6:	5f20                	.insn	2, 0x5f20
8000b2c8:	2020                	.insn	2, 0x2020
8000b2ca:	2020                	.insn	2, 0x2020
8000b2cc:	205f 2020 5f20      	.insn	6, 0x5f202020205f
8000b2d2:	2020                	.insn	2, 0x2020
8000b2d4:	2020                	.insn	2, 0x2020
8000b2d6:	0000                	.insn	2, 0x
8000b2d8:	2d2d                	.insn	2, 0x2d2d
8000b2da:	2d2d                	.insn	2, 0x2d2d
8000b2dc:	2d2d                	.insn	2, 0x2d2d
8000b2de:	2d2d                	.insn	2, 0x2d2d
8000b2e0:	2d2d                	.insn	2, 0x2d2d
8000b2e2:	2d2d                	.insn	2, 0x2d2d
8000b2e4:	2d2d                	.insn	2, 0x2d2d
8000b2e6:	2d2d                	.insn	2, 0x2d2d
8000b2e8:	2d2d                	.insn	2, 0x2d2d
8000b2ea:	2d2d                	.insn	2, 0x2d2d
8000b2ec:	2d2d                	.insn	2, 0x2d2d
8000b2ee:	2d2d                	.insn	2, 0x2d2d
8000b2f0:	2d2d                	.insn	2, 0x2d2d
8000b2f2:	2d2d                	.insn	2, 0x2d2d
8000b2f4:	2d2d                	.insn	2, 0x2d2d
8000b2f6:	2d2d                	.insn	2, 0x2d2d
8000b2f8:	2d2d                	.insn	2, 0x2d2d
8000b2fa:	2d2d                	.insn	2, 0x2d2d
8000b2fc:	2d2d                	.insn	2, 0x2d2d
8000b2fe:	2d2d                	.insn	2, 0x2d2d
8000b300:	2d2d                	.insn	2, 0x2d2d
8000b302:	0000                	.insn	2, 0x
8000b304:	31335b1b          	.insn	4, 0x31335b1b
8000b308:	006d313b          	.insn	4, 0x006d313b
8000b30c:	0a0a                	.insn	2, 0x0a0a
8000b30e:	7325                	.insn	2, 0x7325
8000b310:	7325                	.insn	2, 0x7325
8000b312:	250a                	.insn	2, 0x250a
8000b314:	73250a73          	.insn	4, 0x73250a73
8000b318:	250a                	.insn	2, 0x250a
8000b31a:	73250a73          	.insn	4, 0x73250a73
8000b31e:	250a                	.insn	2, 0x250a
8000b320:	73250a73          	.insn	4, 0x73250a73
8000b324:	250a                	.insn	2, 0x250a
8000b326:	73250a73          	.insn	4, 0x73250a73
8000b32a:	250a                	.insn	2, 0x250a
8000b32c:	00000a73          	.insn	4, 0x0a73
8000b330:	6d305b1b          	.insn	4, 0x6d305b1b
8000b334:	000a                	.insn	2, 0x000a
8000b336:	0000                	.insn	2, 0x
8000b338:	2020                	.insn	2, 0x2020
8000b33a:	2020                	.insn	2, 0x2020
8000b33c:	2020                	.insn	2, 0x2020
8000b33e:	5220                	.insn	2, 0x5220
8000b340:	5349                	.insn	2, 0x5349
8000b342:	32335643          	.insn	4, 0x32335643
8000b346:	4d49                	.insn	2, 0x4d49
8000b348:	4341                	.insn	2, 0x4341
8000b34a:	5620                	.insn	2, 0x5620
8000b34c:	7265                	.insn	2, 0x7265
8000b34e:	6e6f6973          	.insn	4, 0x6e6f6973
8000b352:	6220                	.insn	2, 0x6220
8000b354:	2079                	.insn	2, 0x2079
8000b356:	6144                	.insn	2, 0x6144
8000b358:	696e                	.insn	2, 0x696e
8000b35a:	6c65                	.insn	2, 0x6c65
8000b35c:	5120                	.insn	2, 0x5120
8000b35e:	6975                	.insn	2, 0x6975
8000b360:	746e                	.insn	2, 0x746e
8000b362:	7265                	.insn	2, 0x7265
8000b364:	2020096f          	jal	s2,8000b566 <start+0x8e6>
8000b368:	0020                	.insn	2, 0x0020
8000b36a:	0000                	.insn	2, 0x
8000b36c:	2020                	.insn	2, 0x2020
8000b36e:	2d20                	.insn	2, 0x2d20
8000b370:	202d                	.insn	2, 0x202d
8000b372:	2020                	.insn	2, 0x2020
8000b374:	2d20                	.insn	2, 0x2d20
8000b376:	202d                	.insn	2, 0x202d
8000b378:	2020                	.insn	2, 0x2020
8000b37a:	2d2d                	.insn	2, 0x2d2d
8000b37c:	2d2d                	.insn	2, 0x2d2d
8000b37e:	202d                	.insn	2, 0x202d
8000b380:	2020                	.insn	2, 0x2020
8000b382:	2d20                	.insn	2, 0x2d20
8000b384:	2020                	.insn	2, 0x2020
8000b386:	2d20                	.insn	2, 0x2d20
8000b388:	2020                	.insn	2, 0x2020
8000b38a:	2020                	.insn	2, 0x2020
8000b38c:	2d20                	.insn	2, 0x2d20
8000b38e:	2d2d                	.insn	2, 0x2d2d
8000b390:	202d                	.insn	2, 0x202d
8000b392:	2020                	.insn	2, 0x2020
8000b394:	2020                	.insn	2, 0x2020
8000b396:	0000                	.insn	2, 0x
8000b398:	2020                	.insn	2, 0x2020
8000b39a:	2f20                	.insn	2, 0x2f20
8000b39c:	2f20                	.insn	2, 0x2f20
8000b39e:	2020                	.insn	2, 0x2020
8000b3a0:	205c                	.insn	2, 0x205c
8000b3a2:	205c                	.insn	2, 0x205c
8000b3a4:	7c20                	.insn	2, 0x7c20
8000b3a6:	2020                	.insn	2, 0x2020
8000b3a8:	2020                	.insn	2, 0x2020
8000b3aa:	7c20                	.insn	2, 0x7c20
8000b3ac:	2020                	.insn	2, 0x2020
8000b3ae:	207c                	.insn	2, 0x207c
8000b3b0:	207c                	.insn	2, 0x207c
8000b3b2:	205c                	.insn	2, 0x205c
8000b3b4:	207c                	.insn	2, 0x207c
8000b3b6:	5c20                	.insn	2, 0x5c20
8000b3b8:	2020                	.insn	2, 0x2020
8000b3ba:	2d2d                	.insn	2, 0x2d2d
8000b3bc:	2020                	.insn	2, 0x2020
8000b3be:	2020202f          	amoxor.w	zero,sp,(zero)
8000b3c2:	0000                	.insn	2, 0x
8000b3c4:	636c6557          	.insn	4, 0x636c6557
8000b3c8:	20656d6f          	jal	s10,800615ce <nnames+0x257a>
8000b3cc:	6f74                	.insn	2, 0x6f74
8000b3ce:	5820                	.insn	2, 0x5820
8000b3d0:	6e69                	.insn	2, 0x6e69
8000b3d2:	2175                	.insn	2, 0x2175
8000b3d4:	000a                	.insn	2, 0x000a
8000b3d6:	0000                	.insn	2, 0x
8000b3d8:	7325                	.insn	2, 0x7325
8000b3da:	0a0a                	.insn	2, 0x0a0a
8000b3dc:	0000                	.insn	2, 0x
8000b3de:	0000                	.insn	2, 0x
8000b3e0:	7378                	.insn	2, 0x7378
8000b3e2:	2068                	.insn	2, 0x2068
8000b3e4:	2024                	.insn	2, 0x2024
8000b3e6:	0000                	.insn	2, 0x
8000b3e8:	746e7953          	.insn	4, 0x746e7953
8000b3ec:	7861                	.insn	2, 0x7861
8000b3ee:	6520                	.insn	2, 0x6520
8000b3f0:	7272                	.insn	2, 0x7272
8000b3f2:	000a726f          	jal	tp,800b23f2 <nnames+0x5339e>
8000b3f6:	0000                	.insn	2, 0x
8000b3f8:	7325                	.insn	2, 0x7325
8000b3fa:	000a                	.insn	2, 0x000a
8000b3fc:	6d6d6f63          	bltu	s10,s6,8000bada <start+0xe5a>
8000b400:	6e61                	.insn	2, 0x6e61
8000b402:	2064                	.insn	2, 0x2064
8000b404:	7325                	.insn	2, 0x7325
8000b406:	6e20                	.insn	2, 0x6e20
8000b408:	6620746f          	jal	s0,80012a6a <__global_pointer$+0x3cc2>
8000b40c:	646e756f          	jal	a0,800f2a52 <nnames+0x939fe>
8000b410:	000a                	.insn	2, 0x000a
8000b412:	0000                	.insn	2, 0x
8000b414:	6e6e6143          	.insn	4, 0x6e6e6143
8000b418:	7220746f          	jal	s0,80012b3a <__global_pointer$+0x3d92>
8000b41c:	6465                	.insn	2, 0x6465
8000b41e:	7269                	.insn	2, 0x7269
8000b420:	6365                	.insn	2, 0x6365
8000b422:	2074                	.insn	2, 0x2074
8000b424:	2f49                	.insn	2, 0x2f49
8000b426:	726f204f          	.insn	4, 0x726f204f
8000b42a:	6220                	.insn	2, 0x6220
8000b42c:	6361                	.insn	2, 0x6361
8000b42e:	6f72676b          	.insn	4, 0x6f72676b
8000b432:	6e75                	.insn	2, 0x6e75
8000b434:	2064                	.insn	2, 0x2064
8000b436:	2061                	.insn	2, 0x2061
8000b438:	7562                	.insn	2, 0x7562
8000b43a:	6c69                	.insn	2, 0x6c69
8000b43c:	6974                	.insn	2, 0x6974
8000b43e:	0a6e                	.insn	2, 0x0a6e
8000b440:	0000                	.insn	2, 0x
8000b442:	0000                	.insn	2, 0x
8000b444:	6e6e6143          	.insn	4, 0x6e6e6143
8000b448:	6320746f          	jal	s0,80012a7a <__global_pointer$+0x3cd2>
8000b44c:	6572                	.insn	2, 0x6572
8000b44e:	7461                	.insn	2, 0x7461
8000b450:	2065                	.insn	2, 0x2065
8000b452:	7270                	.insn	2, 0x7270
8000b454:	7365636f          	jal	t1,80061b8a <nnames+0x2b36>
8000b458:	00000a73          	.insn	4, 0x0a73
8000b45c:	6c656853          	.insn	4, 0x6c656853
8000b460:	206c                	.insn	2, 0x206c
8000b462:	736f6c63          	bltu	t5,s6,8000bb9a <start+0xf1a>
8000b466:	6465                	.insn	2, 0x6465
8000b468:	000a                	.insn	2, 0x000a
8000b46a:	0000                	.insn	2, 0x
8000b46c:	6572                	.insn	2, 0x6572
8000b46e:	6f62                	.insn	2, 0x6f62
8000b470:	0000746f          	jal	s0,80012470 <__global_pointer$+0x36c8>
8000b474:	6564                	.insn	2, 0x6564
8000b476:	6476                	.insn	2, 0x6476
8000b478:	6d75                	.insn	2, 0x6d75
8000b47a:	0070                	.insn	2, 0x0070
8000b47c:	6365                	.insn	2, 0x6365
8000b47e:	6f68                	.insn	2, 0x6f68
8000b480:	0000                	.insn	2, 0x
8000b482:	0000                	.insn	2, 0x
8000b484:	7865                	.insn	2, 0x7865
8000b486:	7469                	.insn	2, 0x7469
8000b488:	0000                	.insn	2, 0x
8000b48a:	0000                	.insn	2, 0x
8000b48c:	6568                	.insn	2, 0x6568
8000b48e:	706c                	.insn	2, 0x706c
8000b490:	0000                	.insn	2, 0x
8000b492:	0000                	.insn	2, 0x
8000b494:	6c6c696b          	.insn	4, 0x6c6c696b
8000b498:	0000                	.insn	2, 0x
8000b49a:	0000                	.insn	2, 0x
8000b49c:	656d                	.insn	2, 0x656d
8000b49e:	646d                	.insn	2, 0x646d
8000b4a0:	6d75                	.insn	2, 0x6d75
8000b4a2:	0070                	.insn	2, 0x0070
8000b4a4:	656d                	.insn	2, 0x656d
8000b4a6:	736d                	.insn	2, 0x736d
8000b4a8:	6174                	.insn	2, 0x6174
8000b4aa:	0074                	.insn	2, 0x0074
8000b4ac:	7370                	.insn	2, 0x7370
8000b4ae:	0000                	.insn	2, 0x
8000b4b0:	0000003f 6e696c62 	.insn	8, 0x6e696c620000003f
8000b4b8:	0000006b          	.insn	4, 0x006b
8000b4bc:	7474                	.insn	2, 0x7474
8000b4be:	0000                	.insn	2, 0x
8000b4c0:	00006463          	bltu	zero,zero,8000b4c8 <start+0x848>
8000b4c4:	736c                	.insn	2, 0x736c
8000b4c6:	0000                	.insn	2, 0x
8000b4c8:	00746163          	bltu	s0,t2,8000b4ca <start+0x84a>
8000b4cc:	7564                	.insn	2, 0x7564
8000b4ce:	706d                	.insn	2, 0x706d
8000b4d0:	0000                	.insn	2, 0x
8000b4d2:	0000                	.insn	2, 0x
8000b4d4:	6b6d                	.insn	2, 0x6b6d
8000b4d6:	6964                	.insn	2, 0x6964
8000b4d8:	0072                	.insn	2, 0x0072
8000b4da:	0000                	.insn	2, 0x
8000b4dc:	7770                	.insn	2, 0x7770
8000b4de:	0064                	.insn	2, 0x0064
8000b4e0:	6d72                	.insn	2, 0x6d72
8000b4e2:	0000                	.insn	2, 0x
8000b4e4:	6f74                	.insn	2, 0x6f74
8000b4e6:	6375                	.insn	2, 0x6375
8000b4e8:	0068                	.insn	2, 0x0068
8000b4ea:	0000                	.insn	2, 0x
8000b4ec:	7572                	.insn	2, 0x7572
8000b4ee:	006e                	.insn	2, 0x006e
8000b4f0:	6f66                	.insn	2, 0x6f66
8000b4f2:	6d72                	.insn	2, 0x6d72
8000b4f4:	7461                	.insn	2, 0x7461
8000b4f6:	0000                	.insn	2, 0x
8000b4f8:	6574                	.insn	2, 0x6574
8000b4fa:	00007473          	.insn	4, 0x7473
8000b4fe:	0000                	.insn	2, 0x
8000b500:	6561                	.insn	2, 0x6561
8000b502:	72660073          	.insn	4, 0x72660073
8000b506:	7165                	.insn	2, 0x7165
8000b508:	0000                	.insn	2, 0x
8000b50a:	0000                	.insn	2, 0x
8000b50c:	6574                	.insn	2, 0x6574
8000b50e:	00327473          	.insn	4, 0x00327473
8000b512:	0000                	.insn	2, 0x
8000b514:	6544                	.insn	2, 0x6544
8000b516:	6976                	.insn	2, 0x6976
8000b518:	20206563          	bltu	zero,sp,8000b722 <start+0xaa2>
8000b51c:	2020                	.insn	2, 0x2020
8000b51e:	4e20                	.insn	2, 0x4e20
8000b520:	6d61                	.insn	2, 0x6d61
8000b522:	2065                	.insn	2, 0x2065
8000b524:	2020                	.insn	2, 0x2020
8000b526:	2020                	.insn	2, 0x2020
8000b528:	694d                	.insn	2, 0x694d
8000b52a:	6f6e                	.insn	2, 0x6f6e
8000b52c:	0a72                	.insn	2, 0x0a72
8000b52e:	0000                	.insn	2, 0x
8000b530:	2d2d                	.insn	2, 0x2d2d
8000b532:	2d2d                	.insn	2, 0x2d2d
8000b534:	2d2d                	.insn	2, 0x2d2d
8000b536:	2d20                	.insn	2, 0x2d20
8000b538:	2d2d                	.insn	2, 0x2d2d
8000b53a:	2d2d                	.insn	2, 0x2d2d
8000b53c:	2d2d                	.insn	2, 0x2d2d
8000b53e:	2d2d                	.insn	2, 0x2d2d
8000b540:	2d2d                	.insn	2, 0x2d2d
8000b542:	202d                	.insn	2, 0x202d
8000b544:	2d2d                	.insn	2, 0x2d2d
8000b546:	2d2d                	.insn	2, 0x2d2d
8000b548:	0a2d                	.insn	2, 0x0a2d
8000b54a:	0000                	.insn	2, 0x
8000b54c:	3425                	.insn	2, 0x3425
8000b54e:	2064                	.insn	2, 0x2064
8000b550:	2020                	.insn	2, 0x2020
8000b552:	2d25                	.insn	2, 0x2d25
8000b554:	3231                	.insn	2, 0x3231
8000b556:	33252073          	.insn	4, 0x33252073
8000b55a:	0a64                	.insn	2, 0x0a64
8000b55c:	0000                	.insn	2, 0x
8000b55e:	0000                	.insn	2, 0x
8000b560:	2520                	.insn	2, 0x2520
8000b562:	64250073          	.insn	4, 0x64250073
8000b566:	6d20                	.insn	2, 0x6d20
8000b568:	7a68                	.insn	2, 0x7a68
8000b56a:	000a                	.insn	2, 0x000a
8000b56c:	2d2d                	.insn	2, 0x2d2d
8000b56e:	6568                	.insn	2, 0x6568
8000b570:	706c                	.insn	2, 0x706c
8000b572:	0000                	.insn	2, 0x
8000b574:	7355                	.insn	2, 0x7355
8000b576:	3a65                	.insn	2, 0x3a65
8000b578:	000a                	.insn	2, 0x000a
8000b57a:	0000                	.insn	2, 0x
8000b57c:	2509                	.insn	2, 0x2509
8000b57e:	635b2073          	.insn	4, 0x635b2073
8000b582:	616d6d6f          	jal	s10,800e1b98 <nnames+0x82b44>
8000b586:	646e                	.insn	2, 0x646e
8000b588:	0a5d                	.insn	2, 0x0a5d
8000b58a:	0000                	.insn	2, 0x
8000b58c:	6544                	.insn	2, 0x6544
8000b58e:	69726373          	.insn	4, 0x69726373
8000b592:	7470                	.insn	2, 0x7470
8000b594:	6f69                	.insn	2, 0x6f69
8000b596:	3a6e                	.insn	2, 0x3a6e
8000b598:	000a                	.insn	2, 0x000a
8000b59a:	0000                	.insn	2, 0x
8000b59c:	5009                	.insn	2, 0x5009
8000b59e:	6f72                	.insn	2, 0x6f72
8000b5a0:	6976                	.insn	2, 0x6976
8000b5a2:	6564                	.insn	2, 0x6564
8000b5a4:	20612073          	.insn	4, 0x20612073
8000b5a8:	696c                	.insn	2, 0x696c
8000b5aa:	6f207473          	.insn	4, 0x6f207473
8000b5ae:	2066                	.insn	2, 0x2066
8000b5b0:	6c656873          	.insn	4, 0x6c656873
8000b5b4:	206c                	.insn	2, 0x206c
8000b5b6:	6d6d6f63          	bltu	s10,s6,8000bc94 <S_box+0x40>
8000b5ba:	6e61                	.insn	2, 0x6e61
8000b5bc:	7364                	.insn	2, 0x7364
8000b5be:	6f20                	.insn	2, 0x6f20
8000b5c0:	0a72                	.insn	2, 0x0a72
8000b5c2:	0000                	.insn	2, 0x
8000b5c4:	6809                	.insn	2, 0x6809
8000b5c6:	6c65                	.insn	2, 0x6c65
8000b5c8:	2070                	.insn	2, 0x2070
8000b5ca:	6e69                	.insn	2, 0x6e69
8000b5cc:	6f66                	.insn	2, 0x6f66
8000b5ce:	6d72                	.insn	2, 0x6d72
8000b5d0:	7461                	.insn	2, 0x7461
8000b5d2:	6f69                	.insn	2, 0x6f69
8000b5d4:	206e                	.insn	2, 0x206e
8000b5d6:	6f66                	.insn	2, 0x6f66
8000b5d8:	2072                	.insn	2, 0x2072
8000b5da:	2061                	.insn	2, 0x2061
8000b5dc:	63657073          	.insn	4, 0x63657073
8000b5e0:	6669                	.insn	2, 0x6669
8000b5e2:	6369                	.insn	2, 0x6369
8000b5e4:	6320                	.insn	2, 0x6320
8000b5e6:	616d6d6f          	jal	s10,800e1bfc <nnames+0x82ba8>
8000b5ea:	646e                	.insn	2, 0x646e
8000b5ec:	000a                	.insn	2, 0x000a
8000b5ee:	0000                	.insn	2, 0x
8000b5f0:	6974704f          	.insn	4, 0x6974704f
8000b5f4:	3a736e6f          	jal	t3,8004219a <__global_pointer$+0x333f2>
8000b5f8:	000a                	.insn	2, 0x000a
8000b5fa:	0000                	.insn	2, 0x
8000b5fc:	6309                	.insn	2, 0x6309
8000b5fe:	616d6d6f          	jal	s10,800e1c14 <nnames+0x82bc0>
8000b602:	646e                	.insn	2, 0x646e
8000b604:	7309                	.insn	2, 0x7309
8000b606:	6570                	.insn	2, 0x6570
8000b608:	69666963          	bltu	a2,s6,8000bc9a <S_box+0x46>
8000b60c:	6f632063          	.insn	4, 0x6f632063
8000b610:	6d6d                	.insn	2, 0x6d6d
8000b612:	6e61                	.insn	2, 0x6e61
8000b614:	2064                	.insn	2, 0x2064
8000b616:	6f66                	.insn	2, 0x6f66
8000b618:	2072                	.insn	2, 0x2072
8000b61a:	63696877          	.insn	4, 0x63696877
8000b61e:	2068                	.insn	2, 0x2068
8000b620:	6f74                	.insn	2, 0x6f74
8000b622:	000a                	.insn	2, 0x000a
8000b624:	0909                	.insn	2, 0x0909
8000b626:	6964                	.insn	2, 0x6964
8000b628:	616c7073          	.insn	4, 0x616c7073
8000b62c:	2079                	.insn	2, 0x2079
8000b62e:	6568                	.insn	2, 0x6568
8000b630:	706c                	.insn	2, 0x706c
8000b632:	6920                	.insn	2, 0x6920
8000b634:	666e                	.insn	2, 0x666e
8000b636:	616d726f          	jal	tp,800e2c4c <nnames+0x83bf8>
8000b63a:	6974                	.insn	2, 0x6974
8000b63c:	000a6e6f          	jal	t3,800b163c <nnames+0x525e8>
8000b640:	2d09                	.insn	2, 0x2d09
8000b642:	682d                	.insn	2, 0x682d
8000b644:	6c65                	.insn	2, 0x6c65
8000b646:	0970                	.insn	2, 0x0970
8000b648:	6964                	.insn	2, 0x6964
8000b64a:	616c7073          	.insn	4, 0x616c7073
8000b64e:	2079                	.insn	2, 0x2079
8000b650:	6874                	.insn	2, 0x6874
8000b652:	7369                	.insn	2, 0x7369
8000b654:	6820                	.insn	2, 0x6820
8000b656:	6c65                	.insn	2, 0x6c65
8000b658:	2070                	.insn	2, 0x2070
8000b65a:	6e61                	.insn	2, 0x6e61
8000b65c:	2064                	.insn	2, 0x2064
8000b65e:	7865                	.insn	2, 0x7865
8000b660:	7469                	.insn	2, 0x7469
8000b662:	000a                	.insn	2, 0x000a
8000b664:	7325                	.insn	2, 0x7325
8000b666:	203a                	.insn	2, 0x203a
8000b668:	6f74                	.insn	2, 0x6f74
8000b66a:	616d206f          	j	800ddc80 <nnames+0x7ec2c>
8000b66e:	796e                	.insn	2, 0x796e
8000b670:	6120                	.insn	2, 0x6120
8000b672:	6772                	.insn	2, 0x6772
8000b674:	6d75                	.insn	2, 0x6d75
8000b676:	6e65                	.insn	2, 0x6e65
8000b678:	7374                	.insn	2, 0x7374
8000b67a:	000a                	.insn	2, 0x000a
8000b67c:	7254                	.insn	2, 0x7254
8000b67e:	2079                	.insn	2, 0x2079
8000b680:	20732527          	.insn	4, 0x20732527
8000b684:	2d2d                	.insn	2, 0x2d2d
8000b686:	6568                	.insn	2, 0x6568
8000b688:	706c                	.insn	2, 0x706c
8000b68a:	6f662027          	.insn	4, 0x6f662027
8000b68e:	2072                	.insn	2, 0x2072
8000b690:	6f6d                	.insn	2, 0x6f6d
8000b692:	6572                	.insn	2, 0x6572
8000b694:	6920                	.insn	2, 0x6920
8000b696:	666e                	.insn	2, 0x666e
8000b698:	616d726f          	jal	tp,800e2cae <nnames+0x83c5a>
8000b69c:	6974                	.insn	2, 0x6974
8000b69e:	000a6e6f          	jal	t3,800b169e <nnames+0x5264a>
8000b6a2:	0000                	.insn	2, 0x
8000b6a4:	7325                	.insn	2, 0x7325
8000b6a6:	203a                	.insn	2, 0x203a
8000b6a8:	6f6e                	.insn	2, 0x6f6e
8000b6aa:	7320                	.insn	2, 0x7320
8000b6ac:	6375                	.insn	2, 0x6375
8000b6ae:	2068                	.insn	2, 0x2068
8000b6b0:	6d6d6f63          	bltu	s10,s6,8000bd8e <invS_box+0x3a>
8000b6b4:	6e61                	.insn	2, 0x6e61
8000b6b6:	2064                	.insn	2, 0x2064
8000b6b8:	7361                	.insn	2, 0x7361
8000b6ba:	2720                	.insn	2, 0x2720
8000b6bc:	7325                	.insn	2, 0x7325
8000b6be:	00000a27          	.insn	4, 0x0a27
8000b6c2:	0000                	.insn	2, 0x
8000b6c4:	730a                	.insn	2, 0x730a
8000b6c6:	6568                	.insn	2, 0x6568
8000b6c8:	6c6c                	.insn	2, 0x6c6c
8000b6ca:	6320                	.insn	2, 0x6320
8000b6cc:	616d6d6f          	jal	s10,800e1ce2 <nnames+0x82c8e>
8000b6d0:	646e                	.insn	2, 0x646e
8000b6d2:	72612073          	.insn	4, 0x72612073
8000b6d6:	3a65                	.insn	2, 0x3a65
8000b6d8:	0a0a                	.insn	2, 0x0a0a
8000b6da:	0000                	.insn	2, 0x
8000b6dc:	7355                	.insn	2, 0x7355
8000b6de:	6761                	.insn	2, 0x6761
8000b6e0:	3a65                	.insn	2, 0x3a65
8000b6e2:	2520                	.insn	2, 0x2520
8000b6e4:	49502073          	.insn	4, 0x49502073
8000b6e8:	0a44                	.insn	2, 0x0a44
8000b6ea:	000a                	.insn	2, 0x000a
8000b6ec:	7409                	.insn	2, 0x7409
8000b6ee:	7265                	.insn	2, 0x7265
8000b6f0:	696d                	.insn	2, 0x696d
8000b6f2:	616e                	.insn	2, 0x616e
8000b6f4:	6574                	.insn	2, 0x6574
8000b6f6:	20612073          	.insn	4, 0x20612073
8000b6fa:	7270                	.insn	2, 0x7270
8000b6fc:	7365636f          	jal	t1,80061e32 <nnames+0x2dde>
8000b700:	00000a73          	.insn	4, 0x0a73
8000b704:	5009                	.insn	2, 0x5009
8000b706:	4449                	.insn	2, 0x4449
8000b708:	0920                	.insn	2, 0x0920
8000b70a:	6874                	.insn	2, 0x6874
8000b70c:	2065                	.insn	2, 0x2065
8000b70e:	4449                	.insn	2, 0x4449
8000b710:	6f20                	.insn	2, 0x6f20
8000b712:	2066                	.insn	2, 0x2066
8000b714:	2061                	.insn	2, 0x2061
8000b716:	7270                	.insn	2, 0x7270
8000b718:	7365636f          	jal	t1,80061e4e <nnames+0x2dfa>
8000b71c:	6f742073          	.insn	4, 0x6f742073
8000b720:	7420                	.insn	2, 0x7420
8000b722:	7265                	.insn	2, 0x7265
8000b724:	696d                	.insn	2, 0x696d
8000b726:	616e                	.insn	2, 0x616e
8000b728:	6574                	.insn	2, 0x6574
8000b72a:	000a                	.insn	2, 0x000a
8000b72c:	7325                	.insn	2, 0x7325
8000b72e:	203a                	.insn	2, 0x203a
8000b730:	6e69                	.insn	2, 0x6e69
8000b732:	72726f63          	bltu	tp,t2,8000be70 <Rcon+0x1c>
8000b736:	6365                	.insn	2, 0x6365
8000b738:	2074                	.insn	2, 0x2074
8000b73a:	7261                	.insn	2, 0x7261
8000b73c:	656d7567          	.insn	4, 0x656d7567
8000b740:	746e                	.insn	2, 0x746e
8000b742:	000a                	.insn	2, 0x000a
8000b744:	7325                	.insn	2, 0x7325
8000b746:	203a                	.insn	2, 0x203a
8000b748:	6f6e                	.insn	2, 0x6f6e
8000b74a:	2d6e                	.insn	2, 0x2d6e
8000b74c:	6964                	.insn	2, 0x6964
8000b74e:	20746967          	.insn	4, 0x20746967
8000b752:	6e69                	.insn	2, 0x6e69
8000b754:	7020                	.insn	2, 0x7020
8000b756:	6f72                	.insn	2, 0x6f72
8000b758:	73736563          	bltu	t1,s7,8000be82 <Rcon+0x2e>
8000b75c:	4920                	.insn	2, 0x4920
8000b75e:	0a44                	.insn	2, 0x0a44
8000b760:	0000                	.insn	2, 0x
8000b762:	0000                	.insn	2, 0x
8000b764:	7325                	.insn	2, 0x7325
8000b766:	203a                	.insn	2, 0x203a
8000b768:	6e6e6163          	bltu	t3,t1,8000be4a <invS_box+0xf6>
8000b76c:	6b20746f          	jal	s0,80012e1e <__global_pointer$+0x4076>
8000b770:	6c69                	.insn	2, 0x6c69
8000b772:	206c                	.insn	2, 0x206c
8000b774:	6874                	.insn	2, 0x6874
8000b776:	2065                	.insn	2, 0x2065
8000b778:	756e                	.insn	2, 0x756e
8000b77a:	6c6c                	.insn	2, 0x6c6c
8000b77c:	7020                	.insn	2, 0x7020
8000b77e:	6f72                	.insn	2, 0x6f72
8000b780:	73736563          	bltu	t1,s7,8000beaa <mull2+0x22>
8000b784:	000a                	.insn	2, 0x000a
8000b786:	0000                	.insn	2, 0x
8000b788:	7325                	.insn	2, 0x7325
8000b78a:	203a                	.insn	2, 0x203a
8000b78c:	6e6e6163          	bltu	t3,t1,8000be6e <Rcon+0x1a>
8000b790:	6b20746f          	jal	s0,80012e42 <__global_pointer$+0x409a>
8000b794:	6c69                	.insn	2, 0x6c69
8000b796:	206c                	.insn	2, 0x206c
8000b798:	7270                	.insn	2, 0x7270
8000b79a:	7365636f          	jal	t1,80061ed0 <nnames+0x2e7c>
8000b79e:	64252073          	.insn	4, 0x64252073
8000b7a2:	000a                	.insn	2, 0x000a
8000b7a4:	7355                	.insn	2, 0x7355
8000b7a6:	6761                	.insn	2, 0x6761
8000b7a8:	3a65                	.insn	2, 0x3a65
8000b7aa:	2520                	.insn	2, 0x2520
8000b7ac:	656d2073          	.insn	4, 0x656d2073
8000b7b0:	646d                	.insn	2, 0x646d
8000b7b2:	6d75                	.insn	2, 0x6d75
8000b7b4:	2070                	.insn	2, 0x2070
8000b7b6:	7865745b          	.insn	4, 0x7865745b
8000b7ba:	2c74                	.insn	2, 0x2c74
8000b7bc:	6164                	.insn	2, 0x6164
8000b7be:	6174                	.insn	2, 0x6174
8000b7c0:	622c                	.insn	2, 0x622c
8000b7c2:	0a5d7373          	.insn	4, 0x0a5d7373
8000b7c6:	000a                	.insn	2, 0x000a
8000b7c8:	7266                	.insn	2, 0x7266
8000b7ca:	6565                	.insn	2, 0x6565
8000b7cc:	6d20                	.insn	2, 0x6d20
8000b7ce:	6d65                	.insn	2, 0x6d65
8000b7d0:	3a79726f          	jal	tp,800a3376 <nnames+0x44322>
8000b7d4:	2520                	.insn	2, 0x2520
8000b7d6:	0a64                	.insn	2, 0x0a64
8000b7d8:	0000                	.insn	2, 0x
8000b7da:	0000                	.insn	2, 0x
8000b7dc:	7375                	.insn	2, 0x7375
8000b7de:	3a65                	.insn	2, 0x3a65
8000b7e0:	2520                	.insn	2, 0x2520
8000b7e2:	0a0a2073          	.insn	4, 0x0a0a2073
8000b7e6:	0000                	.insn	2, 0x
8000b7e8:	4409                	.insn	2, 0x4409
8000b7ea:	7369                	.insn	2, 0x7369
8000b7ec:	6c70                	.insn	2, 0x6c70
8000b7ee:	7961                	.insn	2, 0x7961
8000b7f0:	68742073          	.insn	4, 0x68742073
8000b7f4:	2065                	.insn	2, 0x2065
8000b7f6:	72727563          	bgeu	tp,t2,8000bf20 <mull2+0x98>
8000b7fa:	6e65                	.insn	2, 0x6e65
8000b7fc:	2074                	.insn	2, 0x2074
8000b7fe:	656d                	.insn	2, 0x656d
8000b800:	6f6d                	.insn	2, 0x6f6d
8000b802:	7972                	.insn	2, 0x7972
8000b804:	7520                	.insn	2, 0x7520
8000b806:	61206573          	.insn	4, 0x61206573
8000b80a:	646e                	.insn	2, 0x646e
8000b80c:	7020                	.insn	2, 0x7020
8000b80e:	6972                	.insn	2, 0x6972
8000b810:	746e                	.insn	2, 0x746e
8000b812:	68742073          	.insn	4, 0x68742073
8000b816:	0a65                	.insn	2, 0x0a65
8000b818:	0000                	.insn	2, 0x
8000b81a:	0000                	.insn	2, 0x
8000b81c:	6609                	.insn	2, 0x6609
8000b81e:	6572                	.insn	2, 0x6572
8000b820:	2065                	.insn	2, 0x2065
8000b822:	696c                	.insn	2, 0x696c
8000b824:	0a2e7473          	.insn	4, 0x0a2e7473
8000b828:	0000                	.insn	2, 0x
8000b82a:	0000                	.insn	2, 0x
8000b82c:	2d09                	.insn	2, 0x2d09
8000b82e:	682d                	.insn	2, 0x682d
8000b830:	6c65                	.insn	2, 0x6c65
8000b832:	0970                	.insn	2, 0x0970
8000b834:	6409                	.insn	2, 0x6409
8000b836:	7369                	.insn	2, 0x7369
8000b838:	6c70                	.insn	2, 0x6c70
8000b83a:	7961                	.insn	2, 0x7961
8000b83c:	7420                	.insn	2, 0x7420
8000b83e:	6968                	.insn	2, 0x6968
8000b840:	65682073          	.insn	4, 0x65682073
8000b844:	706c                	.insn	2, 0x706c
8000b846:	6120                	.insn	2, 0x6120
8000b848:	646e                	.insn	2, 0x646e
8000b84a:	6520                	.insn	2, 0x6520
8000b84c:	6978                	.insn	2, 0x6978
8000b84e:	0a74                	.insn	2, 0x0a74
8000b850:	0000                	.insn	2, 0x
8000b852:	0000                	.insn	2, 0x
8000b854:	7246                	.insn	2, 0x7246
8000b856:	6565                	.insn	2, 0x6565
8000b858:	4c20                	.insn	2, 0x4c20
8000b85a:	7369                	.insn	2, 0x7369
8000b85c:	3a74                	.insn	2, 0x3a74
8000b85e:	000a                	.insn	2, 0x000a
8000b860:	6c42                	.insn	2, 0x6c42
8000b862:	206b636f          	jal	t1,800c1a68 <nnames+0x62a14>
8000b866:	6461                	.insn	2, 0x6461
8000b868:	7264                	.insn	2, 0x7264
8000b86a:	7365                	.insn	2, 0x7365
8000b86c:	4c202073          	.insn	4, 0x4c202073
8000b870:	6e65                	.insn	2, 0x6e65
8000b872:	20687467          	.insn	4, 0x20687467
8000b876:	6428                	.insn	2, 0x6428
8000b878:	6365                	.insn	2, 0x6365
8000b87a:	2029                	.insn	2, 0x2029
8000b87c:	4c20                	.insn	2, 0x4c20
8000b87e:	6e65                	.insn	2, 0x6e65
8000b880:	20687467          	.insn	4, 0x20687467
8000b884:	6828                	.insn	2, 0x6828
8000b886:	7865                	.insn	2, 0x7865
8000b888:	0a29                	.insn	2, 0x0a29
8000b88a:	0000                	.insn	2, 0x
8000b88c:	2d2d                	.insn	2, 0x2d2d
8000b88e:	2d2d                	.insn	2, 0x2d2d
8000b890:	2d2d                	.insn	2, 0x2d2d
8000b892:	2d2d                	.insn	2, 0x2d2d
8000b894:	2d2d                	.insn	2, 0x2d2d
8000b896:	2d2d                	.insn	2, 0x2d2d
8000b898:	202d                	.insn	2, 0x202d
8000b89a:	2d20                	.insn	2, 0x2d20
8000b89c:	2d2d                	.insn	2, 0x2d2d
8000b89e:	2d2d                	.insn	2, 0x2d2d
8000b8a0:	2d2d                	.insn	2, 0x2d2d
8000b8a2:	2d2d                	.insn	2, 0x2d2d
8000b8a4:	2d2d                	.insn	2, 0x2d2d
8000b8a6:	202d                	.insn	2, 0x202d
8000b8a8:	2d20                	.insn	2, 0x2d20
8000b8aa:	2d2d                	.insn	2, 0x2d2d
8000b8ac:	2d2d                	.insn	2, 0x2d2d
8000b8ae:	2d2d                	.insn	2, 0x2d2d
8000b8b0:	2d2d                	.insn	2, 0x2d2d
8000b8b2:	2d2d                	.insn	2, 0x2d2d
8000b8b4:	0a2d                	.insn	2, 0x0a2d
8000b8b6:	0000                	.insn	2, 0x
8000b8b8:	2020                	.insn	2, 0x2020
8000b8ba:	7830                	.insn	2, 0x7830
8000b8bc:	3025                	.insn	2, 0x3025
8000b8be:	7838                	.insn	2, 0x7838
8000b8c0:	2020                	.insn	2, 0x2020
8000b8c2:	2020                	.insn	2, 0x2020
8000b8c4:	3925                	.insn	2, 0x3925
8000b8c6:	2064                	.insn	2, 0x2064
8000b8c8:	2020                	.insn	2, 0x2020
8000b8ca:	2020                	.insn	2, 0x2020
8000b8cc:	7830                	.insn	2, 0x7830
8000b8ce:	3025                	.insn	2, 0x3025
8000b8d0:	7838                	.insn	2, 0x7838
8000b8d2:	000a                	.insn	2, 0x000a
8000b8d4:	7355                	.insn	2, 0x7355
8000b8d6:	3a65                	.insn	2, 0x3a65
8000b8d8:	2520                	.insn	2, 0x2520
8000b8da:	000a0a73          	.insn	4, 0x000a0a73
8000b8de:	0000                	.insn	2, 0x
8000b8e0:	4409                	.insn	2, 0x4409
8000b8e2:	7369                	.insn	2, 0x7369
8000b8e4:	6c70                	.insn	2, 0x6c70
8000b8e6:	7961                	.insn	2, 0x7961
8000b8e8:	6e692073          	.insn	4, 0x6e692073
8000b8ec:	6f66                	.insn	2, 0x6f66
8000b8ee:	6d72                	.insn	2, 0x6d72
8000b8f0:	7461                	.insn	2, 0x7461
8000b8f2:	6f69                	.insn	2, 0x6f69
8000b8f4:	206e                	.insn	2, 0x206e
8000b8f6:	6261                	.insn	2, 0x6261
8000b8f8:	2074756f          	jal	a0,800532fe <__global_pointer$+0x44556>
8000b8fc:	7572                	.insn	2, 0x7572
8000b8fe:	6e6e                	.insn	2, 0x6e6e
8000b900:	6e69                	.insn	2, 0x6e69
8000b902:	72702067          	.insn	4, 0x72702067
8000b906:	7365636f          	jal	t1,8006203c <nnames+0x2fe8>
8000b90a:	0a736573          	.insn	4, 0x0a736573
8000b90e:	0000                	.insn	2, 0x
8000b910:	2d09                	.insn	2, 0x2d09
8000b912:	682d                	.insn	2, 0x682d
8000b914:	6c65                	.insn	2, 0x6c65
8000b916:	0970                	.insn	2, 0x0970
8000b918:	6420                	.insn	2, 0x6420
8000b91a:	7369                	.insn	2, 0x7369
8000b91c:	6c70                	.insn	2, 0x6c70
8000b91e:	7961                	.insn	2, 0x7961
8000b920:	7420                	.insn	2, 0x7420
8000b922:	6968                	.insn	2, 0x6968
8000b924:	65682073          	.insn	4, 0x65682073
8000b928:	706c                	.insn	2, 0x706c
8000b92a:	6120                	.insn	2, 0x6120
8000b92c:	646e                	.insn	2, 0x646e
8000b92e:	6520                	.insn	2, 0x6520
8000b930:	6978                	.insn	2, 0x6978
8000b932:	0a74                	.insn	2, 0x0a74
8000b934:	0000                	.insn	2, 0x
8000b936:	0000                	.insn	2, 0x
8000b938:	63617453          	.insn	4, 0x63617453
8000b93c:	6953206b          	.insn	4, 0x6953206b
8000b940:	657a                	.insn	2, 0x657a
8000b942:	0000                	.insn	2, 0x
8000b944:	63617453          	.insn	4, 0x63617453
8000b948:	7450206b          	.insn	4, 0x7450206b
8000b94c:	0072                	.insn	2, 0x0072
8000b94e:	0000                	.insn	2, 0x
8000b950:	63617453          	.insn	4, 0x63617453
8000b954:	6142206b          	.insn	4, 0x6142206b
8000b958:	00006573          	.insn	4, 0x6573
8000b95c:	74617453          	.insn	4, 0x74617453
8000b960:	0065                	.insn	2, 0x0065
8000b962:	0000                	.insn	2, 0x
8000b964:	614e                	.insn	2, 0x614e
8000b966:	656d                	.insn	2, 0x656d
8000b968:	0000                	.insn	2, 0x
8000b96a:	0000                	.insn	2, 0x
8000b96c:	6950                	.insn	2, 0x6950
8000b96e:	0064                	.insn	2, 0x0064
8000b970:	3325                	.insn	2, 0x3325
8000b972:	2d252073          	.insn	4, 0x2d252073
8000b976:	3631                	.insn	2, 0x3631
8000b978:	35252073          	.insn	4, 0x35252073
8000b97c:	31252073          	.insn	4, 0x31252073
8000b980:	7330                	.insn	2, 0x7330
8000b982:	2520                	.insn	2, 0x2520
8000b984:	312d                	.insn	2, 0x312d
8000b986:	7330                	.insn	2, 0x7330
8000b988:	2520                	.insn	2, 0x2520
8000b98a:	3031                	.insn	2, 0x3031
8000b98c:	00000a73          	.insn	4, 0x0a73
8000b990:	2d2d                	.insn	2, 0x2d2d
8000b992:	2d2d                	.insn	2, 0x2d2d
8000b994:	002d                	.insn	2, 0x002d
8000b996:	0000                	.insn	2, 0x
8000b998:	2d2d                	.insn	2, 0x2d2d
8000b99a:	2d2d                	.insn	2, 0x2d2d
8000b99c:	2d2d                	.insn	2, 0x2d2d
8000b99e:	2d2d                	.insn	2, 0x2d2d
8000b9a0:	2d2d                	.insn	2, 0x2d2d
8000b9a2:	2d2d                	.insn	2, 0x2d2d
8000b9a4:	2d2d                	.insn	2, 0x2d2d
8000b9a6:	2d2d                	.insn	2, 0x2d2d
8000b9a8:	0000                	.insn	2, 0x
8000b9aa:	0000                	.insn	2, 0x
8000b9ac:	2d2d                	.insn	2, 0x2d2d
8000b9ae:	002d                	.insn	2, 0x002d
8000b9b0:	3325                	.insn	2, 0x3325
8000b9b2:	2064                	.insn	2, 0x2064
8000b9b4:	2d25                	.insn	2, 0x2d25
8000b9b6:	3631                	.insn	2, 0x3631
8000b9b8:	73252073          	.insn	4, 0x73252073
8000b9bc:	3020                	.insn	2, 0x3020
8000b9be:	2578                	.insn	2, 0x2578
8000b9c0:	3830                	.insn	2, 0x3830
8000b9c2:	2058                	.insn	2, 0x2058
8000b9c4:	7830                	.insn	2, 0x7830
8000b9c6:	3025                	.insn	2, 0x3025
8000b9c8:	5838                	.insn	2, 0x5838
8000b9ca:	2520                	.insn	2, 0x2520
8000b9cc:	6438                	.insn	2, 0x6438
8000b9ce:	000a                	.insn	2, 0x000a
8000b9d0:	7266                	.insn	2, 0x7266
8000b9d2:	6565                	.insn	2, 0x6565
8000b9d4:	0020                	.insn	2, 0x0020
8000b9d6:	0000                	.insn	2, 0x
8000b9d8:	72727563          	bgeu	tp,t2,8000c102 <mull9+0x7a>
8000b9dc:	0020                	.insn	2, 0x0020
8000b9de:	0000                	.insn	2, 0x
8000b9e0:	6572                	.insn	2, 0x6572
8000b9e2:	6461                	.insn	2, 0x6461
8000b9e4:	0079                	.insn	2, 0x0079
8000b9e6:	0000                	.insn	2, 0x
8000b9e8:	6572                	.insn	2, 0x6572
8000b9ea:	00207663          	bgeu	zero,sp,8000b9f6 <start+0xd76>
8000b9ee:	0000                	.insn	2, 0x
8000b9f0:	65656c73          	.insn	4, 0x65656c73
8000b9f4:	0070                	.insn	2, 0x0070
8000b9f6:	0000                	.insn	2, 0x
8000b9f8:	70737573          	.insn	4, 0x70737573
8000b9fc:	0020                	.insn	2, 0x0020
8000b9fe:	0000                	.insn	2, 0x
8000ba00:	74696177          	.insn	4, 0x74696177
8000ba04:	0020                	.insn	2, 0x0020
8000ba06:	0000                	.insn	2, 0x
8000ba08:	7472                	.insn	2, 0x7472
8000ba0a:	6d69                	.insn	2, 0x6d69
8000ba0c:	0065                	.insn	2, 0x0065
8000ba0e:	0000                	.insn	2, 0x
8000ba10:	61657263          	bgeu	a0,s6,8000c014 <mull3+0x8c>
8000ba14:	6f64                	.insn	2, 0x6f64
8000ba16:	7420                	.insn	2, 0x7420
8000ba18:	7261                	.insn	2, 0x7261
8000ba1a:	6165                	.insn	2, 0x6165
8000ba1c:	0000                	.insn	2, 0x
8000ba1e:	0000                	.insn	2, 0x
8000ba20:	7865                	.insn	2, 0x7865
8000ba22:	315f 0000 0000      	.insn	6, 0x315f
8000ba28:	7325                	.insn	2, 0x7325
8000ba2a:	203a                	.insn	2, 0x203a
8000ba2c:	6425                	.insn	2, 0x6425
8000ba2e:	000a                	.insn	2, 0x000a
8000ba30:	6166                	.insn	2, 0x6166
8000ba32:	726f7463          	bgeu	t5,t1,8000c15a <mull9+0xd2>
8000ba36:	6169                	.insn	2, 0x6169
8000ba38:	3a6c                	.insn	2, 0x3a6c
8000ba3a:	2520                	.insn	2, 0x2520
8000ba3c:	0a75                	.insn	2, 0x0a75
8000ba3e:	0000                	.insn	2, 0x
8000ba40:	5f5f 5f5f 5f5f      	.insn	6, 0x5f5f5f5f5f5f
8000ba46:	5f5f 5f5f 5f5f      	.insn	6, 0x5f5f5f5f5f5f
8000ba4c:	5f5f 5f5f 5f5f      	.insn	6, 0x5f5f5f5f5f5f
8000ba52:	5f5f 5f5f 5f5f      	.insn	6, 0x5f5f5f5f5f5f
8000ba58:	5f5f 5f5f 5f5f      	.insn	6, 0x5f5f5f5f5f5f
8000ba5e:	5f5f 5f5f 5f5f      	.insn	6, 0x5f5f5f5f5f5f
8000ba64:	5f5f 5f5f 5f5f      	.insn	6, 0x5f5f5f5f5f5f
8000ba6a:	0a5f 0000 0000      	.insn	6, 0x0a5f
8000ba70:	7865                	.insn	2, 0x7865
8000ba72:	305f 0000 0000      	.insn	6, 0x305f
8000ba78:	2520                	.insn	2, 0x2520
8000ba7a:	7832                	.insn	2, 0x7832
8000ba7c:	2520                	.insn	2, 0x2520
8000ba7e:	7832                	.insn	2, 0x7832
8000ba80:	2520                	.insn	2, 0x2520
8000ba82:	7832                	.insn	2, 0x7832
8000ba84:	2520                	.insn	2, 0x2520
8000ba86:	7832                	.insn	2, 0x7832
8000ba88:	000a                	.insn	2, 0x000a
8000ba8a:	0000                	.insn	2, 0x
8000ba8c:	5245                	.insn	2, 0x5245
8000ba8e:	4f52                	.insn	2, 0x4f52
8000ba90:	2e52                	.insn	2, 0x2e52
8000ba92:	000a                	.insn	2, 0x000a
8000ba94:	0a2e4b4f          	.insn	4, 0x0a2e4b4f
8000ba98:	0000                	.insn	2, 0x
8000ba9a:	0000                	.insn	2, 0x
8000ba9c:	0201                	.insn	2, 0x0201
8000ba9e:	06050403          	lb	s0,96(a0)
8000baa2:	10090807          	.insn	4, 0x10090807
8000baa6:	1211                	.insn	2, 0x1211
8000baa8:	16151413          	.insn	4, 0x16151413
8000baac:	0000                	.insn	2, 0x
8000baae:	0000                	.insn	2, 0x
8000bab0:	614c                	.insn	2, 0x614c
8000bab2:	7320                	.insn	2, 0x7320
8000bab4:	6d75                	.insn	2, 0x6d75
8000bab6:	2061                	.insn	2, 0x2061
8000bab8:	6564                	.insn	2, 0x6564
8000baba:	6c20                	.insn	2, 0x6c20
8000babc:	7020736f          	jal	t1,800131be <__global_pointer$+0x4416>
8000bac0:	6972                	.insn	2, 0x6972
8000bac2:	656d                	.insn	2, 0x656d
8000bac4:	6f72                	.insn	2, 0x6f72
8000bac6:	64252073          	.insn	4, 0x64252073
8000baca:	6e20                	.insn	2, 0x6e20
8000bacc:	656dbac3          	.insn	4, 0x656dbac3
8000bad0:	6f72                	.insn	2, 0x6f72
8000bad2:	73652073          	.insn	4, 0x73652073
8000bad6:	203a                	.insn	2, 0x203a
8000bad8:	6425                	.insn	2, 0x6425
8000bada:	000a                	.insn	2, 0x000a
8000badc:	6954                	.insn	2, 0x6954
8000bade:	6d65                	.insn	2, 0x6d65
8000bae0:	6f70                	.insn	2, 0x6f70
8000bae2:	7420                	.insn	2, 0x7420
8000bae4:	6172                	.insn	2, 0x6172
8000bae6:	736e                	.insn	2, 0x736e
8000bae8:	72727563          	bgeu	tp,t2,8000c212 <mull11+0x8a>
8000baec:	6469                	.insn	2, 0x6469
8000baee:	25203a6f          	jal	s4,8000ed40 <_end+0xc40>
8000baf2:	2064                	.insn	2, 0x2064
8000baf4:	75676573          	.insn	4, 0x75676573
8000baf8:	646e                	.insn	2, 0x646e
8000bafa:	000a736f          	jal	t1,800b2afa <nnames+0x53aa6>
8000bafe:	0000                	.insn	2, 0x
8000bb00:	2020                	.insn	2, 0x2020
8000bb02:	7325                	.insn	2, 0x7325
8000bb04:	0909                	.insn	2, 0x0909
8000bb06:	6920                	.insn	2, 0x6920
8000bb08:	3a64                	.insn	2, 0x3a64
8000bb0a:	2520                	.insn	2, 0x2520
8000bb0c:	0a64                	.insn	2, 0x0a64
8000bb0e:	0000                	.insn	2, 0x
8000bb10:	616e                	.insn	2, 0x616e
8000bb12:	656d                	.insn	2, 0x656d
8000bb14:	63617073          	.insn	4, 0x63617073
8000bb18:	3a65                	.insn	2, 0x3a65
8000bb1a:	6420                	.insn	2, 0x6420
8000bb1c:	7665                	.insn	2, 0x7665
8000bb1e:	6369                	.insn	2, 0x6369
8000bb20:	2065                	.insn	2, 0x2065
8000bb22:	616e                	.insn	2, 0x616e
8000bb24:	656d                	.insn	2, 0x656d
8000bb26:	2520                	.insn	2, 0x2520
8000bb28:	6f742073          	.insn	4, 0x6f742073
8000bb2c:	6f6c206f          	j	800ce222 <nnames+0x6f1ce>
8000bb30:	676e                	.insn	2, 0x676e
8000bb32:	0a0d                	.insn	2, 0x0a0d
8000bb34:	0000                	.insn	2, 0x
8000bb36:	0000                	.insn	2, 0x
8000bb38:	616e                	.insn	2, 0x616e
8000bb3a:	656d                	.insn	2, 0x656d
8000bb3c:	63617073          	.insn	4, 0x63617073
8000bb40:	3a65                	.insn	2, 0x3a65
8000bb42:	6320                	.insn	2, 0x6320
8000bb44:	6e61                	.insn	2, 0x6e61
8000bb46:	6f6e                	.insn	2, 0x6f6e
8000bb48:	2074                	.insn	2, 0x2074
8000bb4a:	6f6d                	.insn	2, 0x6f6d
8000bb4c:	6e75                	.insn	2, 0x6e75
8000bb4e:	2074                	.insn	2, 0x2074
8000bb50:	6564                	.insn	2, 0x6564
8000bb52:	6976                	.insn	2, 0x6976
8000bb54:	25206563          	bltu	zero,s2,8000bd9e <invS_box+0x4a>
8000bb58:	0d64                	.insn	2, 0x0d64
8000bb5a:	000a                	.insn	2, 0x000a
8000bb5c:	7665642f          	.insn	4, 0x7665642f
8000bb60:	6c756e2f          	.insn	4, 0x6c756e2f
8000bb64:	006c                	.insn	2, 0x006c
8000bb66:	0000                	.insn	2, 0x
8000bb68:	616d                	.insn	2, 0x616d
8000bb6a:	6e69                	.insn	2, 0x6e69
8000bb6c:	000a                	.insn	2, 0x000a
8000bb6e:	0000                	.insn	2, 0x
8000bb70:	6f42                	.insn	2, 0x6f42
8000bb72:	6e69746f          	jal	s0,800a3258 <nnames+0x44204>
8000bb76:	2e2e2e67          	.insn	4, 0x2e2e2e67
8000bb7a:	000a                	.insn	2, 0x000a
8000bb7c:	616d                	.insn	2, 0x616d
8000bb7e:	6178                	.insn	2, 0x6178
8000bb80:	6464                	.insn	2, 0x6464
8000bb82:	3a72                	.insn	2, 0x3a72
8000bb84:	2520                	.insn	2, 0x2520
8000bb86:	0a78                	.insn	2, 0x0a78
8000bb88:	0000                	.insn	2, 0x
8000bb8a:	0000                	.insn	2, 0x
8000bb8c:	3125                	.insn	2, 0x3125
8000bb8e:	6430                	.insn	2, 0x6430
8000bb90:	6220                	.insn	2, 0x6220
8000bb92:	7479                	.insn	2, 0x7479
8000bb94:	7365                	.insn	2, 0x7365
8000bb96:	6f20                	.insn	2, 0x6f20
8000bb98:	2066                	.insn	2, 0x2066
8000bb9a:	6958                	.insn	2, 0x6958
8000bb9c:	756e                	.insn	2, 0x756e
8000bb9e:	6320                	.insn	2, 0x6320
8000bba0:	2e65646f          	jal	s0,80061e86 <nnames+0x2e32>
8000bba4:	000a                	.insn	2, 0x000a
8000bba6:	0000                	.insn	2, 0x
8000bba8:	2020                	.insn	2, 0x2020
8000bbaa:	2020                	.insn	2, 0x2020
8000bbac:	2020                	.insn	2, 0x2020
8000bbae:	2020                	.insn	2, 0x2020
8000bbb0:	2020                	.insn	2, 0x2020
8000bbb2:	5b20                	.insn	2, 0x5b20
8000bbb4:	7830                	.insn	2, 0x7830
8000bbb6:	3025                	.insn	2, 0x3025
8000bbb8:	5838                	.insn	2, 0x5838
8000bbba:	7420                	.insn	2, 0x7420
8000bbbc:	7830206f          	j	8000eb3e <_end+0xa3e>
8000bbc0:	3025                	.insn	2, 0x3025
8000bbc2:	5838                	.insn	2, 0x5838
8000bbc4:	0a5d                	.insn	2, 0x0a5d
8000bbc6:	0000                	.insn	2, 0x
8000bbc8:	3125                	.insn	2, 0x3125
8000bbca:	6430                	.insn	2, 0x6430
8000bbcc:	6220                	.insn	2, 0x6220
8000bbce:	7479                	.insn	2, 0x7479
8000bbd0:	7365                	.insn	2, 0x7365
8000bbd2:	6f20                	.insn	2, 0x6f20
8000bbd4:	2066                	.insn	2, 0x2066
8000bbd6:	6164                	.insn	2, 0x6164
8000bbd8:	6174                	.insn	2, 0x6174
8000bbda:	0a2e                	.insn	2, 0x0a2e
8000bbdc:	0000                	.insn	2, 0x
8000bbde:	0000                	.insn	2, 0x
8000bbe0:	2020                	.insn	2, 0x2020
8000bbe2:	2020                	.insn	2, 0x2020
8000bbe4:	2020                	.insn	2, 0x2020
8000bbe6:	2020                	.insn	2, 0x2020
8000bbe8:	2020                	.insn	2, 0x2020
8000bbea:	5b20                	.insn	2, 0x5b20
8000bbec:	7830                	.insn	2, 0x7830
8000bbee:	3025                	.insn	2, 0x3025
8000bbf0:	5838                	.insn	2, 0x5838
8000bbf2:	7420                	.insn	2, 0x7420
8000bbf4:	7830206f          	j	8000eb76 <_end+0xa76>
8000bbf8:	3025                	.insn	2, 0x3025
8000bbfa:	5838                	.insn	2, 0x5838
8000bbfc:	0a5d                	.insn	2, 0x0a5d
8000bbfe:	000a                	.insn	2, 0x000a
8000bc00:	04d0                	.insn	2, 0x04d0
8000bc02:	8000                	.insn	2, 0x8000
8000bc04:	04b8                	.insn	2, 0x04b8
8000bc06:	8000                	.insn	2, 0x8000
8000bc08:	04c4                	.insn	2, 0x04c4
8000bc0a:	8000                	.insn	2, 0x8000
8000bc0c:	048c                	.insn	2, 0x048c
8000bc0e:	8000                	.insn	2, 0x8000
8000bc10:	04a0                	.insn	2, 0x04a0
8000bc12:	8000                	.insn	2, 0x8000
8000bc14:	0480                	.insn	2, 0x0480
8000bc16:	8000                	.insn	2, 0x8000
8000bc18:	04ac                	.insn	2, 0x04ac
8000bc1a:	8000                	.insn	2, 0x8000
8000bc1c:	0494                	.insn	2, 0x0494
8000bc1e:	8000                	.insn	2, 0x8000
8000bc20:	0a1c                	.insn	2, 0x0a1c
8000bc22:	8000                	.insn	2, 0x8000
8000bc24:	0a30                	.insn	2, 0x0a30
8000bc26:	8000                	.insn	2, 0x8000
8000bc28:	0a90                	.insn	2, 0x0a90
8000bc2a:	8000                	.insn	2, 0x8000
8000bc2c:	0a90                	.insn	2, 0x0a90
8000bc2e:	8000                	.insn	2, 0x8000
8000bc30:	0a90                	.insn	2, 0x0a90
8000bc32:	8000                	.insn	2, 0x8000
8000bc34:	0a90                	.insn	2, 0x0a90
8000bc36:	8000                	.insn	2, 0x8000
8000bc38:	0a90                	.insn	2, 0x0a90
8000bc3a:	8000                	.insn	2, 0x8000
8000bc3c:	0a44                	.insn	2, 0x0a44
8000bc3e:	8000                	.insn	2, 0x8000
8000bc40:	0a90                	.insn	2, 0x0a90
8000bc42:	8000                	.insn	2, 0x8000
8000bc44:	0a58                	.insn	2, 0x0a58
8000bc46:	8000                	.insn	2, 0x8000
8000bc48:	0a90                	.insn	2, 0x0a90
8000bc4a:	8000                	.insn	2, 0x8000
8000bc4c:	0a6c                	.insn	2, 0x0a6c
8000bc4e:	8000                	.insn	2, 0x8000
8000bc50:	0a80                	.insn	2, 0x0a80
8000bc52:	8000                	.insn	2, 0x8000

8000bc54 <S_box>:
8000bc54:	7c63 7b77 6bf2 c56f 0130 2b67 d7fe 76ab     c|w{.ko.0.g+...v
8000bc64:	82ca 7dc9 59fa f047 d4ad afa2 a49c c072     ...}.YG.......r.
8000bc74:	fdb7 2693 3f36 ccf7 a534 f1e5 d871 1531     ...&6?..4...q.1.
8000bc84:	c704 c323 9618 9a05 1207 e280 27eb 75b2     ..#..........'.u
8000bc94:	8309 1a2c 6e1b a05a 3b52 b3d6 e329 842f     ..,..nZ.R;..)./.
8000bca4:	d153 ed00 fc20 5bb1 cb6a 39be 4c4a cf58     S... ..[j..9JLX.
8000bcb4:	efd0 fbaa 4d43 8533 f945 7f02 3c50 a89f     ....CM3.E...P<..
8000bcc4:	a351 8f40 9d92 f538 b6bc 21da ff10 d2f3     Q.@...8....!....
8000bcd4:	0ccd ec13 975f 1744 a7c4 3d7e 5d64 7319     ...._.D...~=d].s
8000bce4:	8160 dc4f 2a22 8890 ee46 14b8 5ede db0b     `.O."*..F....^..
8000bcf4:	32e0 0a3a 0649 5c24 d3c2 62ac 9591 79e4     .2:.I.$\...b...y
8000bd04:	c8e7 6d37 d58d a94e 566c eaf4 7a65 08ae     ..7m..N.lV..ez..
8000bd14:	78ba 2e25 a61c c6b4 dde8 1f74 bd4b 8a8b     .x%.......t.K...
8000bd24:	3e70 66b5 0348 0ef6 3561 b957 c186 9e1d     p>.fH...a5W.....
8000bd34:	f8e1 1198 d969 948e 1e9b e987 55ce df28     ....i........U(.
8000bd44:	a18c 0d89 e6bf 6842 9941 0f2d 54b0 16bb     ......BhA.-..T..

8000bd54 <invS_box>:
8000bd54:	0952 d56a 3630 38a5 40bf 9ea3 f381 fbd7     R.j.06.8.@......
8000bd64:	e37c 8239 2f9b 87ff 8e34 4443 dec4 cbe9     |.9../..4.CD....
8000bd74:	7b54 3294 c2a6 3d23 4cee 0b95 fa42 4ec3     T{.2..#=.L..B..N
8000bd84:	2e08 66a1 d928 b224 5b76 49a2 8b6d 25d1     ...f(.$.v[.Im..%
8000bd94:	f872 64f6 6886 1698 a4d4 cc5c 655d 92b6     r..d.h....\.]e..
8000bda4:	706c 5048 edfd dab9 155e 5746 8da7 849d     lpHP....^.FW....
8000bdb4:	d890 00ab bc8c 0ad3 e4f7 0558 b3b8 0645     ..........X...E.
8000bdc4:	2cd0 8f1e 3fca 020f afc1 03bd 1301 6b8a     .,...?.........k
8000bdd4:	913a 4111 674f eadc f297 cecf b4f0 73e6     :..AOg.........s
8000bde4:	ac96 2274 ade7 8535 f9e2 e837 751c 6edf     ..t"..5...7..u.n
8000bdf4:	f147 711a 291d 89c5 b76f 0e62 18aa 1bbe     G..q.)..o.b.....
8000be04:	56fc 4b3e d2c6 2079 db9a fec0 cd78 f45a     .V>K..y ....x.Z.
8000be14:	dd1f 33a8 0788 31c7 12b1 5910 8027 5fec     ...3...1...Y'.._
8000be24:	5160 a97f b519 0d4a e52d 9f7a c993 ef9c     `Q....J.-.z.....
8000be34:	e0a0 4d3b 2aae b0f5 ebc8 3cbb 5383 6199     ..;M.*.....<.S.a
8000be44:	2b17 7e04 77ba 26d6 69e1 6314 2155 7d0c     .+.~.w.&.i.cU!.}

8000be54 <Rcon>:
8000be54:	0201 0804 2010 8040 361b 0000 0000 0000     ..... @..6......
	...
8000be7c:	0100 0402 1008 4020 1b80 0036               ...... @..6.

8000be88 <mull2>:
8000be88:	0200 0604 0a08 0e0c 1210 1614 1a18 1e1c     ................
8000be98:	2220 2624 2a28 2e2c 3230 3634 3a38 3e3c      "$&(*,.02468:<>
8000bea8:	4240 4644 4a48 4e4c 5250 5654 5a58 5e5c     @BDFHJLNPRTVXZ\^
8000beb8:	6260 6664 6a68 6e6c 7270 7674 7a78 7e7c     `bdfhjlnprtvxz|~
8000bec8:	8280 8684 8a88 8e8c 9290 9694 9a98 9e9c     ................
8000bed8:	a2a0 a6a4 aaa8 aeac b2b0 b6b4 bab8 bebc     ................
8000bee8:	c2c0 c6c4 cac8 cecc d2d0 d6d4 dad8 dedc     ................
8000bef8:	e2e0 e6e4 eae8 eeec f2f0 f6f4 faf8 fefc     ................
8000bf08:	191b 1d1f 1113 1517 090b 0d0f 0103 0507     ................
8000bf18:	393b 3d3f 3133 3537 292b 2d2f 2123 2527     ;9?=3175+)/-#!'%
8000bf28:	595b 5d5f 5153 5557 494b 4d4f 4143 4547     [Y_]SQWUKIOMCAGE
8000bf38:	797b 7d7f 7173 7577 696b 6d6f 6163 6567     {y.}sqwukiomcage
8000bf48:	999b 9d9f 9193 9597 898b 8d8f 8183 8587     ................
8000bf58:	b9bb bdbf b1b3 b5b7 a9ab adaf a1a3 a5a7     ................
8000bf68:	d9db dddf d1d3 d5d7 c9cb cdcf c1c3 c5c7     ................
8000bf78:	f9fb fdff f1f3 f5f7 e9eb edef e1e3 e5e7     ................

8000bf88 <mull3>:
8000bf88:	0300 0506 0f0c 090a 1b18 1d1e 1714 1112     ................
8000bf98:	3330 3536 3f3c 393a 2b28 2d2e 2724 2122     0365<?:9(+.-$'"!
8000bfa8:	6360 6566 6f6c 696a 7b78 7d7e 7774 7172     `cfelojix{~}twrq
8000bfb8:	5350 5556 5f5c 595a 4b48 4d4e 4744 4142     PSVU\_ZYHKNMDGBA
8000bfc8:	c3c0 c5c6 cfcc c9ca dbd8 ddde d7d4 d1d2     ................
8000bfd8:	f3f0 f5f6 fffc f9fa ebe8 edee e7e4 e1e2     ................
8000bfe8:	a3a0 a5a6 afac a9aa bbb8 bdbe b7b4 b1b2     ................
8000bff8:	9390 9596 9f9c 999a 8b88 8d8e 8784 8182     ................
8000c008:	989b 9e9d 9497 9291 8083 8685 8c8f 8a89     ................
8000c018:	a8ab aead a4a7 a2a1 b0b3 b6b5 bcbf bab9     ................
8000c028:	f8fb fefd f4f7 f2f1 e0e3 e6e5 ecef eae9     ................
8000c038:	c8cb cecd c4c7 c2c1 d0d3 d6d5 dcdf dad9     ................
8000c048:	585b 5e5d 5457 5251 4043 4645 4c4f 4a49     [X]^WTQRC@EFOLIJ
8000c058:	686b 6e6d 6467 6261 7073 7675 7c7f 7a79     khmngdabspuv.|yz
8000c068:	383b 3e3d 3437 3231 2023 2625 2c2f 2a29     ;8=>7412# %&/,)*
8000c078:	080b 0e0d 0407 0201 1013 1615 1c1f 1a19     ................

8000c088 <mull9>:
8000c088:	0900 1b12 2d24 3f36 4148 535a 656c 777e     ....$-6?HAZSle~w
8000c098:	9990 8b82 bdb4 afa6 d1d8 c3ca f5fc e7ee     ................
8000c0a8:	323b 2029 161f 040d 7a73 6861 5e57 4c45     ;2) ....szahW^EL
8000c0b8:	a2ab b0b9 868f 949d eae3 f8f1 cec7 dcd5     ................
8000c0c8:	7f76 6d64 5b52 4940 373e 252c 131a 0108     v.dmR[@I>7,%....
8000c0d8:	efe6 fdf4 cbc2 d9d0 a7ae b5bc 838a 9198     ................
8000c0e8:	444d 565f 6069 727b 0c05 1e17 2821 3a33     MD_Vi`{r....!(3:
8000c0f8:	d4dd c6cf f0f9 e2eb 9c95 8e87 b8b1 aaa3     ................
8000c108:	e5ec f7fe c1c8 d3da ada4 bfb6 8980 9b92     ................
8000c118:	757c 676e 5158 434a 3d34 2f26 1910 0b02     |ungXQJC4=&/....
8000c128:	ded7 ccc5 faf3 e8e1 969f 848d b2bb a0a9     ................
8000c138:	4e47 5c55 6a63 7871 060f 141d 222b 3039     GNU\cjqx....+"90
8000c148:	939a 8188 b7be a5ac dbd2 c9c0 fff6 ede4     ................
8000c158:	030a 1118 272e 353c 4b42 5950 6f66 7d74     .....'<5BKPYfot}
8000c168:	a8a1 bab3 8c85 9e97 e0e9 f2fb c4cd d6df     ................
8000c178:	3831 2a23 1c15 0e07 7079 626b 545d 464f     18#*....ypkb]TOF

8000c188 <mull11>:
8000c188:	0b00 1d16 272c 313a 5358 454e 7f74 6962     ....,':1XSNEt.bi
8000c198:	bbb0 ada6 979c 818a e3e8 f5fe cfc4 d9d2     ................
8000c1a8:	707b 666d 5c57 4a41 2823 3e35 040f 1219     {pmfW\AJ#(5>....
8000c1b8:	c0cb d6dd ece7 faf1 9893 8e85 b4bf a2a9     ................
8000c1c8:	fdf6 ebe0 d1da c7cc a5ae b3b8 8982 9f94     ................
8000c1d8:	4d46 5b50 616a 777c 151e 0308 3932 2f24     FMP[ja|w....29$/
8000c1e8:	868d 909b aaa1 bcb7 ded5 c8c3 f2f9 e4ef     ................
8000c1f8:	363d 202b 1a11 0c07 6e65 7873 4249 545f     =6+ ....ensxIB_T
8000c208:	fcf7 eae1 d0db c6cd a4af b2b9 8883 9e95     ................
8000c218:	4c47 5a51 606b 767d 141f 0209 3833 2e25     GLQZk`}v....38%.
8000c228:	878c 919a aba0 bdb6 dfd4 c9c2 f3f8 e5ee     ................
8000c238:	373c 212a 1b10 0d06 6f64 7972 4348 555e     <7*!....doryHC^U
8000c248:	0a01 1c17 262d 303b 5259 444f 7e75 6863     ....-&;0YRODu~ch
8000c258:	bab1 aca7 969d 808b e2e9 f4ff cec5 d8d3     ................
8000c268:	717a 676c 5d56 4b40 2922 3f34 050e 1318     zqlgV]@K")4?....
8000c278:	c1ca d7dc ede6 fbf0 9992 8f84 b5be a3a8     ................

8000c288 <mull13>:
8000c288:	0d00 171a 3934 232e 6568 7f72 515c 4b46     ....49.#her.\QFK
8000c298:	ddd0 c7ca e9e4 f3fe b5b8 afa2 818c 9b96     ................
8000c2a8:	b6bb aca1 828f 9895 ded3 c4c9 eae7 f0fd     ................
8000c2b8:	666b 7c71 525f 4845 0e03 1419 3a37 202d     kfq|_REH....7:- 
8000c2c8:	606d 7a77 5459 4e43 0805 121f 3c31 262b     m`wzYTCN....1<+&
8000c2d8:	b0bd aaa7 8489 9e93 d8d5 c2cf ece1 f6fb     ................
8000c2e8:	dbd6 c1cc efe2 f5f8 b3be a9a4 878a 9d90     ................
8000c2f8:	0b06 111c 3f32 2528 636e 7974 575a 4d40     ....2?(%nctyZW@M
8000c308:	d7da cdc0 e3ee f9f4 bfb2 a5a8 8b86 919c     ................
8000c318:	070a 1d10 333e 2924 6f62 7578 5b56 414c     ....>3$)boxuV[LA
8000c328:	6c61 767b 5855 424f 0409 1e13 303d 2a27     al{vUXOB....=0'*
8000c338:	bcb1 a6ab 8885 929f d4d9 cec3 e0ed faf7     ................
8000c348:	bab7 a0ad 8e83 9499 d2df c8c5 e6eb fcf1     ................
8000c358:	6a67 707d 5e53 4449 020f 1815 363b 2c21     gj}pS^ID....;6!,
8000c368:	010c 1b16 3538 2f22 6964 737e 5d50 474a     ....85"/di~sP]JG
8000c378:	d1dc cbc6 e5e8 fff2 b9b4 a3ae 8d80 979a     ................

8000c388 <mull14>:
8000c388:	0e00 121c 3638 2a24 7e70 626c 4648 5a54     ....86$*p~lbHFTZ
8000c398:	eee0 f2fc d6d8 cac4 9e90 828c a6a8 bab4     ................
8000c3a8:	d5db c9c7 ede3 f1ff a5ab b9b7 9d93 818f     ................
8000c3b8:	353b 2927 0d03 111f 454b 5957 7d73 616f     ;5')....KEWYs}oa
8000c3c8:	a3ad bfb1 9b95 8789 d3dd cfc1 ebe5 f7f9     ................
8000c3d8:	434d 5f51 7b75 6769 333d 2f21 0b05 1719     MCQ_u{ig=3!/....
8000c3e8:	7876 646a 404e 5c52 0806 141a 303e 2c22     vxjdN@R\....>0",
8000c3f8:	9896 848a a0ae bcb2 e8e6 f4fa d0de ccc2     ................
8000c408:	4f41 535d 7779 6b65 3f31 232d 0709 1b15     AO]Sywek1?-#....
8000c418:	afa1 b3bd 9799 8b85 dfd1 c3cd e7e9 fbf5     ................
8000c428:	949a 8886 aca2 b0be e4ea f8f6 dcd2 c0ce     ................
8000c438:	747a 6866 4c42 505e 040a 1816 3c32 202e     ztfhBL^P....2<. 
8000c448:	e2ec fef0 dad4 c6c8 929c 8e80 aaa4 b6b8     ................
8000c458:	020c 1e10 3a34 2628 727c 6e60 4a44 5658     ....4:(&|r`nDJXV
8000c468:	3937 252b 010f 1d13 4947 555b 717f 6d63     79+%....GI[U.qcm
8000c478:	d9d7 c5cb e1ef fdf3 a9a7 b5bb 919f 8d83     ................

8000c488 <Mmix>:
8000c488:	0302 0101 0201 0103 0101 0302 0103 0201     ................

8000c498 <invMmix>:
8000c498:	0b0e 090d 0e09 0d0b 090d 0b0e 0d0b 0e09     ................

8000c4a8 <_ctype_>:
8000c4a8:	2000 2020 2020 2020 2020 0808 0808 2008     .         ..... 
8000c4b8:	2020 2020 2020 2020 2020 2020 2020 2020                     
8000c4c8:	0820 1010 1010 1010 1010 1010 1010 1010      ...............
8000c4d8:	0410 0404 0404 0404 0404 1004 1010 1010     ................
8000c4e8:	1010 4141 4141 4141 0101 0101 0101 0101     ..AAAAAA........
8000c4f8:	0101 0101 0101 0101 0101 0101 1010 1010     ................
8000c508:	1010 4242 4242 4242 0202 0202 0202 0202     ..BBBBBB........
8000c518:	0202 0202 0202 0202 0202 0202 1010 1010     ................
8000c528:	0020 0000 1634 8000 14b8 8000 1564 8000      ...4.......d...
8000c538:	1480 8000 1484 8000 1480 8000 1618 8000     ................
8000c548:	1480 8000 1480 8000 1480 8000 1480 8000     ................
8000c558:	1480 8000 1480 8000 15c0 8000 1480 8000     ................
8000c568:	1480 8000 1480 8000 14dc 8000 1480 8000     ................
8000c578:	1580 8000 1480 8000 1480 8000 15e8 8000     ................

8000c588 <a>:
8000c588:	0000 0000 0a92 3f06 0fdb 3fc9 0a92 3f86     .......?...?...?
8000c598:	6de4 8000 6e50 8000 6e00 8000 6df8 8000     .m..Pn...n...m..
8000c5a8:	6e00 8000 6e20 8000 6df8 8000               .n.. n...m..

8000c5b4 <cmdtab>:
8000c5b4:	b46c 8000 0000 0000 997c 8000 b474 8000     l.......|...t...
8000c5c4:	0000 0000 9010 8000 b47c 8000 0001 0000     ........|.......
8000c5d4:	90ac 8000 b484 8000 0001 0000 9138 8000     ............8...
8000c5e4:	b48c 8000 0000 0000 91e0 8000 b494 8000     ................
8000c5f4:	0001 0000 94a8 8000 b49c 8000 0000 0000     ................
8000c604:	9610 8000 b4a4 8000 0001 0000 9680 8000     ................
8000c614:	b4ac 8000 0001 0000 97c4 8000 b4b0 8000     ................
8000c624:	0000 0000 91e0 8000 b4b4 8000 0000 0000     ................
8000c634:	8ff8 8000 b4bc 8000 0000 0000 9c98 8000     ................
8000c644:	b4c0 8000 0001 0000 9008 8000 b4c4 8000     ................
8000c654:	0001 0000 9608 8000 b4c8 8000 0000 0000     ................
8000c664:	9000 8000 b4cc 8000 0000 0000 90a4 8000     ................
8000c674:	b4d4 8000 0001 0000 97bc 8000 b4dc 8000     ................
8000c684:	0001 0000 9974 8000 b4e0 8000 0001 0000     ....t...........
8000c694:	9994 8000 b4e4 8000 0001 0000 9c90 8000     ................
8000c6a4:	b4ec 8000 0000 0000 999c 8000 b4f0 8000     ................
8000c6b4:	0000 0000 9140 8000 b4f8 8000 0000 0000     ....@...........
8000c6c4:	9b90 8000 b500 8000 0000 0000 8ff0 8000     ................
8000c6d4:	b504 8000 0000 0000 9180 8000 b50c 8000     ................
8000c6e4:	0000 0000 9af4 8000 b9d0 8000 b9d8 8000     ................
8000c6f4:	b9e0 8000 b9e8 8000 b9f0 8000 b9f8 8000     ................
8000c704:	ba00 8000 ba08 8000 0201 0403 0605 0807     ................
8000c714:	0a09 0c0b 0e0d 000f 1211 1413 1615 1817     ................
8000c724:	2019 2221 2423 2625 a250 8000 a2a4 8000     . !"#$%&P.......
8000c734:	a2c8 8000 a2e4 8000 a358 8000 a300 8000     ........X.......
8000c744:	a31c 8000 a33c 8000                         ....<...
